

Microchip MPLAB XC8 Assembler V2.46 build 20240104201356 
                                                                                               Tue Mar 31 09:49:24 2026

Microchip MPLAB XC8 C Compiler v2.46 (Free license) build 20240104201356 Og1 
     1                           	processor	16F1936
     2                           	pagewidth 120
     3                           	opt	flic
     4                           	psect	idataBANK0,global,class=CODE,delta=2,noexec
     5                           	psect	cinit,global,class=CODE,merge=1,delta=2
     6                           	psect	bssCOMMON,global,class=COMMON,space=1,delta=1,noexec
     7                           	psect	bssBANK0,global,class=BANK0,space=1,delta=1,noexec
     8                           	psect	dataBANK0,global,class=BANK0,space=1,delta=1,noexec
     9                           	psect	clrtext,global,class=CODE,delta=2
    10                           	psect	cstackCOMMON,global,class=COMMON,space=1,delta=1,noexec
    11                           	psect	maintext,global,class=CODE,merge=1,split=1,delta=2
    12                           	psect	text1,local,class=CODE,merge=1,delta=2
    13                           	psect	text2,local,class=CODE,merge=1,delta=2
    14                           	psect	text3,local,class=CODE,merge=1,delta=2
    15                           	psect	text4,local,class=CODE,merge=1,delta=2
    16                           	psect	text5,local,class=CODE,merge=1,delta=2
    17                           	psect	text6,local,class=CODE,merge=1,delta=2
    18                           	psect	text7,local,class=CODE,merge=1,delta=2
    19                           	psect	text8,local,class=CODE,merge=1,delta=2
    20                           	psect	text9,local,class=CODE,merge=1,delta=2
    21                           	psect	text10,local,class=CODE,merge=1,delta=2
    22                           	psect	text11,local,class=CODE,merge=1,delta=2
    23                           	psect	text12,local,class=CODE,merge=1,delta=2
    24                           	psect	text13,local,class=CODE,merge=1,delta=2
    25                           	psect	text14,local,class=CODE,merge=1,delta=2
    26                           	psect	text15,local,class=CODE,merge=1,delta=2
    27                           	psect	text16,local,class=CODE,merge=1,delta=2
    28                           	psect	text17,local,class=CODE,merge=1,delta=2
    29                           	psect	text18,local,class=CODE,merge=1,delta=2
    30                           	psect	text19,local,class=CODE,merge=1,delta=2
    31                           	psect	text20,local,class=CODE,merge=1,delta=2
    32                           	psect	text21,local,class=CODE,merge=1,delta=2
    33                           	psect	text22,local,class=CODE,merge=1,delta=2
    34                           	psect	text23,local,class=CODE,merge=1,delta=2
    35                           	psect	text24,local,class=CODE,merge=1,delta=2
    36                           	psect	text25,local,class=CODE,merge=1,delta=2
    37                           	psect	text26,local,class=CODE,merge=1,delta=2
    38                           	psect	text27,local,class=CODE,merge=1,delta=2
    39                           	psect	text28,local,class=CODE,merge=1,delta=2
    40                           	psect	text29,local,class=CODE,merge=1,delta=2
    41                           	psect	text30,local,class=CODE,merge=1,delta=2
    42                           	psect	text31,local,class=CODE,merge=1,delta=2
    43                           	psect	text32,local,class=CODE,merge=1,delta=2
    44                           	psect	text33,local,class=CODE,merge=1,delta=2
    45                           	psect	text34,local,class=CODE,merge=1,delta=2
    46                           	psect	text35,local,class=CODE,merge=1,delta=2
    47                           	psect	text36,local,class=CODE,merge=1,delta=2
    48                           	psect	text37,local,class=CODE,merge=1,delta=2
    49                           	psect	text38,local,class=CODE,merge=1,delta=2
    50                           	psect	text39,local,class=CODE,merge=1,delta=2
    51                           	psect	text40,local,class=CODE,merge=1,delta=2
    52                           	psect	text41,local,class=CODE,merge=1,delta=2
    53                           	psect	text42,local,class=CODE,merge=1,delta=2
    54                           	psect	text43,local,class=CODE,merge=1,delta=2
    55                           	psect	text44,local,class=CODE,merge=1,delta=2
    56                           	psect	text45,local,class=CODE,merge=1,delta=2
    57                           	psect	text46,local,class=CODE,merge=1,delta=2
    58                           	psect	text47,local,class=CODE,merge=1,delta=2
    59                           	psect	text48,local,class=CODE,merge=1,delta=2
    60                           	psect	text49,local,class=CODE,merge=1,delta=2
    61                           	psect	text50,local,class=CODE,merge=1,delta=2
    62                           	psect	text51,local,class=CODE,merge=1,delta=2
    63                           	psect	text52,local,class=CODE,merge=1,delta=2
    64                           	psect	text53,local,class=CODE,merge=1,delta=2
    65                           	psect	text54,local,class=CODE,merge=1,delta=2
    66                           	psect	text55,local,class=CODE,merge=1,delta=2
    67                           	psect	text56,local,class=CODE,merge=1,delta=2
    68                           	psect	text57,local,class=CODE,merge=1,delta=2
    69                           	psect	text58,local,class=CODE,merge=1,delta=2
    70                           	psect	text59,local,class=CODE,merge=1,delta=2
    71                           	psect	intentry,global,class=CODE,delta=2
    72                           	psect	text61,local,class=CODE,merge=1,delta=2
    73                           	psect	text62,local,class=CODE,merge=1,delta=2
    74                           	psect	config,global,abs,ovrld,class=CONFIG,space=4,delta=2,noexec
    75                           	dabs	1,0x7E,2
    76     0000                     
    77                           ; Version 2.20
    78                           ; Generated 12/02/2020 GMT
    79                           ; 
    80                           ; Copyright © 2020, Microchip Technology Inc. and its subsidiaries ("Microchip")
    81                           ; All rights reserved.
    82                           ; 
    83                           ; This software is developed by Microchip Technology Inc. and its subsidiaries ("Microch
      +                          ip").
    84                           ; 
    85                           ; Redistribution and use in source and binary forms, with or without modification, are
    86                           ; permitted provided that the following conditions are met:
    87                           ; 
    88                           ;     1. Redistributions of source code must retain the above copyright notice, this lis
      +                          t of
    89                           ;        conditions and the following disclaimer.
    90                           ; 
    91                           ;     2. Redistributions in binary form must reproduce the above copyright notice, this 
      +                          list
    92                           ;        of conditions and the following disclaimer in the documentation and/or other
    93                           ;        materials provided with the distribution.
    94                           ; 
    95                           ;     3. Microchip's name may not be used to endorse or promote products derived from th
      +                          is
    96                           ;        software without specific prior written permission.
    97                           ; 
    98                           ; THIS SOFTWARE IS PROVIDED BY MICROCHIP "AS IS" AND ANY EXPRESS OR IMPLIED WARRANTIES,
    99                           ; INCLUDING, BUT NOT LIMITED TO, THE IMPLIED WARRANTIES OF MERCHANTABILITY AND FITNESS F
      +                          OR
   100                           ; PURPOSE ARE DISCLAIMED.  IN NO EVENT SHALL MICROCHIP BE LIABLE FOR ANY DIRECT, INDIREC
      +                          T,
   101                           ; INCIDENTAL, SPECIAL, EXEMPLARY, OR CONSEQUENTIAL DAMAGES (INCLUDING BUT NOT LIMITED TO
   102                           ; PROCUREMENT OF SUBSTITUTE GOODS OR SERVICES; LOSS OF USE, DATA OR PROFITS; OR BUSINESS
   103                           ; INTERRUPTION) HOWSOEVER CAUSED AND ON ANY THEORY OF LIABILITY, WHETHER IN CONTRACT, ST
      +                          RICT
   104                           ; LIABILITY, OR TORT (INCLUDING NEGLIGENCE OR OTHERWISE) ARISING IN ANY WAY OUT OF THE U
      +                          SE OF
   105                           ; THIS SOFTWARE, EVEN IF ADVISED OF THE POSSIBILITY OF SUCH DAMAGE.
   106                           ; 
   107                           ; 
   108                           ; Code-generator required, PIC16F1936 Definitions
   109                           ; 
   110                           ; SFR Addresses
   111     0000                     	;# 
   112     0001                     	;# 
   113     0002                     	;# 
   114     0003                     	;# 
   115     0004                     	;# 
   116     0005                     	;# 
   117     0006                     	;# 
   118     0007                     	;# 
   119     0008                     	;# 
   120     0009                     	;# 
   121     000A                     	;# 
   122     000B                     	;# 
   123     000C                     	;# 
   124     000D                     	;# 
   125     000E                     	;# 
   126     0010                     	;# 
   127     0011                     	;# 
   128     0012                     	;# 
   129     0013                     	;# 
   130     0015                     	;# 
   131     0016                     	;# 
   132     0016                     	;# 
   133     0017                     	;# 
   134     0018                     	;# 
   135     0019                     	;# 
   136     001A                     	;# 
   137     001B                     	;# 
   138     001C                     	;# 
   139     001E                     	;# 
   140     001F                     	;# 
   141     008C                     	;# 
   142     008D                     	;# 
   143     008E                     	;# 
   144     0090                     	;# 
   145     0091                     	;# 
   146     0092                     	;# 
   147     0093                     	;# 
   148     0095                     	;# 
   149     0096                     	;# 
   150     0097                     	;# 
   151     0098                     	;# 
   152     0099                     	;# 
   153     009A                     	;# 
   154     009B                     	;# 
   155     009B                     	;# 
   156     009C                     	;# 
   157     009D                     	;# 
   158     009E                     	;# 
   159     010C                     	;# 
   160     010D                     	;# 
   161     010E                     	;# 
   162     0110                     	;# 
   163     0111                     	;# 
   164     0112                     	;# 
   165     0113                     	;# 
   166     0114                     	;# 
   167     0115                     	;# 
   168     0116                     	;# 
   169     0117                     	;# 
   170     0118                     	;# 
   171     0119                     	;# 
   172     011A                     	;# 
   173     011B                     	;# 
   174     011D                     	;# 
   175     018C                     	;# 
   176     018D                     	;# 
   177     0191                     	;# 
   178     0191                     	;# 
   179     0192                     	;# 
   180     0193                     	;# 
   181     0193                     	;# 
   182     0193                     	;# 
   183     0194                     	;# 
   184     0195                     	;# 
   185     0196                     	;# 
   186     0199                     	;# 
   187     019A                     	;# 
   188     019B                     	;# 
   189     019B                     	;# 
   190     019B                     	;# 
   191     019B                     	;# 
   192     019C                     	;# 
   193     019C                     	;# 
   194     019D                     	;# 
   195     019E                     	;# 
   196     019F                     	;# 
   197     020D                     	;# 
   198     0210                     	;# 
   199     0211                     	;# 
   200     0212                     	;# 
   201     0213                     	;# 
   202     0214                     	;# 
   203     0215                     	;# 
   204     0215                     	;# 
   205     0216                     	;# 
   206     0217                     	;# 
   207     0291                     	;# 
   208     0291                     	;# 
   209     0292                     	;# 
   210     0293                     	;# 
   211     0294                     	;# 
   212     0295                     	;# 
   213     0295                     	;# 
   214     0296                     	;# 
   215     0298                     	;# 
   216     0298                     	;# 
   217     0299                     	;# 
   218     029A                     	;# 
   219     029B                     	;# 
   220     029C                     	;# 
   221     029C                     	;# 
   222     029D                     	;# 
   223     029E                     	;# 
   224     029F                     	;# 
   225     0311                     	;# 
   226     0311                     	;# 
   227     0312                     	;# 
   228     0313                     	;# 
   229     0314                     	;# 
   230     0315                     	;# 
   231     0315                     	;# 
   232     0316                     	;# 
   233     0318                     	;# 
   234     0318                     	;# 
   235     0319                     	;# 
   236     031A                     	;# 
   237     031C                     	;# 
   238     031C                     	;# 
   239     031D                     	;# 
   240     031E                     	;# 
   241     0394                     	;# 
   242     0395                     	;# 
   243     0396                     	;# 
   244     0415                     	;# 
   245     0416                     	;# 
   246     0417                     	;# 
   247     041C                     	;# 
   248     041D                     	;# 
   249     041E                     	;# 
   250     0791                     	;# 
   251     0792                     	;# 
   252     0793                     	;# 
   253     0794                     	;# 
   254     0795                     	;# 
   255     0798                     	;# 
   256     0799                     	;# 
   257     07A0                     	;# 
   258     07A1                     	;# 
   259     07A3                     	;# 
   260     07A4                     	;# 
   261     07A6                     	;# 
   262     07A7                     	;# 
   263     07A9                     	;# 
   264     07AA                     	;# 
   265     0FE4                     	;# 
   266     0FE5                     	;# 
   267     0FE6                     	;# 
   268     0FE7                     	;# 
   269     0FE8                     	;# 
   270     0FE9                     	;# 
   271     0FEA                     	;# 
   272     0FEB                     	;# 
   273     0FED                     	;# 
   274     0FEE                     	;# 
   275     0FEF                     	;# 
   276     0000                     	;# 
   277     0001                     	;# 
   278     0002                     	;# 
   279     0003                     	;# 
   280     0004                     	;# 
   281     0005                     	;# 
   282     0006                     	;# 
   283     0007                     	;# 
   284     0008                     	;# 
   285     0009                     	;# 
   286     000A                     	;# 
   287     000B                     	;# 
   288     000C                     	;# 
   289     000D                     	;# 
   290     000E                     	;# 
   291     0010                     	;# 
   292     0011                     	;# 
   293     0012                     	;# 
   294     0013                     	;# 
   295     0015                     	;# 
   296     0016                     	;# 
   297     0016                     	;# 
   298     0017                     	;# 
   299     0018                     	;# 
   300     0019                     	;# 
   301     001A                     	;# 
   302     001B                     	;# 
   303     001C                     	;# 
   304     001E                     	;# 
   305     001F                     	;# 
   306     008C                     	;# 
   307     008D                     	;# 
   308     008E                     	;# 
   309     0090                     	;# 
   310     0091                     	;# 
   311     0092                     	;# 
   312     0093                     	;# 
   313     0095                     	;# 
   314     0096                     	;# 
   315     0097                     	;# 
   316     0098                     	;# 
   317     0099                     	;# 
   318     009A                     	;# 
   319     009B                     	;# 
   320     009B                     	;# 
   321     009C                     	;# 
   322     009D                     	;# 
   323     009E                     	;# 
   324     010C                     	;# 
   325     010D                     	;# 
   326     010E                     	;# 
   327     0110                     	;# 
   328     0111                     	;# 
   329     0112                     	;# 
   330     0113                     	;# 
   331     0114                     	;# 
   332     0115                     	;# 
   333     0116                     	;# 
   334     0117                     	;# 
   335     0118                     	;# 
   336     0119                     	;# 
   337     011A                     	;# 
   338     011B                     	;# 
   339     011D                     	;# 
   340     018C                     	;# 
   341     018D                     	;# 
   342     0191                     	;# 
   343     0191                     	;# 
   344     0192                     	;# 
   345     0193                     	;# 
   346     0193                     	;# 
   347     0193                     	;# 
   348     0194                     	;# 
   349     0195                     	;# 
   350     0196                     	;# 
   351     0199                     	;# 
   352     019A                     	;# 
   353     019B                     	;# 
   354     019B                     	;# 
   355     019B                     	;# 
   356     019B                     	;# 
   357     019C                     	;# 
   358     019C                     	;# 
   359     019D                     	;# 
   360     019E                     	;# 
   361     019F                     	;# 
   362     020D                     	;# 
   363     0210                     	;# 
   364     0211                     	;# 
   365     0212                     	;# 
   366     0213                     	;# 
   367     0214                     	;# 
   368     0215                     	;# 
   369     0215                     	;# 
   370     0216                     	;# 
   371     0217                     	;# 
   372     0291                     	;# 
   373     0291                     	;# 
   374     0292                     	;# 
   375     0293                     	;# 
   376     0294                     	;# 
   377     0295                     	;# 
   378     0295                     	;# 
   379     0296                     	;# 
   380     0298                     	;# 
   381     0298                     	;# 
   382     0299                     	;# 
   383     029A                     	;# 
   384     029B                     	;# 
   385     029C                     	;# 
   386     029C                     	;# 
   387     029D                     	;# 
   388     029E                     	;# 
   389     029F                     	;# 
   390     0311                     	;# 
   391     0311                     	;# 
   392     0312                     	;# 
   393     0313                     	;# 
   394     0314                     	;# 
   395     0315                     	;# 
   396     0315                     	;# 
   397     0316                     	;# 
   398     0318                     	;# 
   399     0318                     	;# 
   400     0319                     	;# 
   401     031A                     	;# 
   402     031C                     	;# 
   403     031C                     	;# 
   404     031D                     	;# 
   405     031E                     	;# 
   406     0394                     	;# 
   407     0395                     	;# 
   408     0396                     	;# 
   409     0415                     	;# 
   410     0416                     	;# 
   411     0417                     	;# 
   412     041C                     	;# 
   413     041D                     	;# 
   414     041E                     	;# 
   415     0791                     	;# 
   416     0792                     	;# 
   417     0793                     	;# 
   418     0794                     	;# 
   419     0795                     	;# 
   420     0798                     	;# 
   421     0799                     	;# 
   422     07A0                     	;# 
   423     07A1                     	;# 
   424     07A3                     	;# 
   425     07A4                     	;# 
   426     07A6                     	;# 
   427     07A7                     	;# 
   428     07A9                     	;# 
   429     07AA                     	;# 
   430     0FE4                     	;# 
   431     0FE5                     	;# 
   432     0FE6                     	;# 
   433     0FE7                     	;# 
   434     0FE8                     	;# 
   435     0FE9                     	;# 
   436     0FEA                     	;# 
   437     0FEB                     	;# 
   438     0FED                     	;# 
   439     0FEE                     	;# 
   440     0FEF                     	;# 
   441     0000                     	;# 
   442     0001                     	;# 
   443     0002                     	;# 
   444     0003                     	;# 
   445     0004                     	;# 
   446     0005                     	;# 
   447     0006                     	;# 
   448     0007                     	;# 
   449     0008                     	;# 
   450     0009                     	;# 
   451     000A                     	;# 
   452     000B                     	;# 
   453     000C                     	;# 
   454     000D                     	;# 
   455     000E                     	;# 
   456     0010                     	;# 
   457     0011                     	;# 
   458     0012                     	;# 
   459     0013                     	;# 
   460     0015                     	;# 
   461     0016                     	;# 
   462     0016                     	;# 
   463     0017                     	;# 
   464     0018                     	;# 
   465     0019                     	;# 
   466     001A                     	;# 
   467     001B                     	;# 
   468     001C                     	;# 
   469     001E                     	;# 
   470     001F                     	;# 
   471     008C                     	;# 
   472     008D                     	;# 
   473     008E                     	;# 
   474     0090                     	;# 
   475     0091                     	;# 
   476     0092                     	;# 
   477     0093                     	;# 
   478     0095                     	;# 
   479     0096                     	;# 
   480     0097                     	;# 
   481     0098                     	;# 
   482     0099                     	;# 
   483     009A                     	;# 
   484     009B                     	;# 
   485     009B                     	;# 
   486     009C                     	;# 
   487     009D                     	;# 
   488     009E                     	;# 
   489     010C                     	;# 
   490     010D                     	;# 
   491     010E                     	;# 
   492     0110                     	;# 
   493     0111                     	;# 
   494     0112                     	;# 
   495     0113                     	;# 
   496     0114                     	;# 
   497     0115                     	;# 
   498     0116                     	;# 
   499     0117                     	;# 
   500     0118                     	;# 
   501     0119                     	;# 
   502     011A                     	;# 
   503     011B                     	;# 
   504     011D                     	;# 
   505     018C                     	;# 
   506     018D                     	;# 
   507     0191                     	;# 
   508     0191                     	;# 
   509     0192                     	;# 
   510     0193                     	;# 
   511     0193                     	;# 
   512     0193                     	;# 
   513     0194                     	;# 
   514     0195                     	;# 
   515     0196                     	;# 
   516     0199                     	;# 
   517     019A                     	;# 
   518     019B                     	;# 
   519     019B                     	;# 
   520     019B                     	;# 
   521     019B                     	;# 
   522     019C                     	;# 
   523     019C                     	;# 
   524     019D                     	;# 
   525     019E                     	;# 
   526     019F                     	;# 
   527     020D                     	;# 
   528     0210                     	;# 
   529     0211                     	;# 
   530     0212                     	;# 
   531     0213                     	;# 
   532     0214                     	;# 
   533     0215                     	;# 
   534     0215                     	;# 
   535     0216                     	;# 
   536     0217                     	;# 
   537     0291                     	;# 
   538     0291                     	;# 
   539     0292                     	;# 
   540     0293                     	;# 
   541     0294                     	;# 
   542     0295                     	;# 
   543     0295                     	;# 
   544     0296                     	;# 
   545     0298                     	;# 
   546     0298                     	;# 
   547     0299                     	;# 
   548     029A                     	;# 
   549     029B                     	;# 
   550     029C                     	;# 
   551     029C                     	;# 
   552     029D                     	;# 
   553     029E                     	;# 
   554     029F                     	;# 
   555     0311                     	;# 
   556     0311                     	;# 
   557     0312                     	;# 
   558     0313                     	;# 
   559     0314                     	;# 
   560     0315                     	;# 
   561     0315                     	;# 
   562     0316                     	;# 
   563     0318                     	;# 
   564     0318                     	;# 
   565     0319                     	;# 
   566     031A                     	;# 
   567     031C                     	;# 
   568     031C                     	;# 
   569     031D                     	;# 
   570     031E                     	;# 
   571     0394                     	;# 
   572     0395                     	;# 
   573     0396                     	;# 
   574     0415                     	;# 
   575     0416                     	;# 
   576     0417                     	;# 
   577     041C                     	;# 
   578     041D                     	;# 
   579     041E                     	;# 
   580     0791                     	;# 
   581     0792                     	;# 
   582     0793                     	;# 
   583     0794                     	;# 
   584     0795                     	;# 
   585     0798                     	;# 
   586     0799                     	;# 
   587     07A0                     	;# 
   588     07A1                     	;# 
   589     07A3                     	;# 
   590     07A4                     	;# 
   591     07A6                     	;# 
   592     07A7                     	;# 
   593     07A9                     	;# 
   594     07AA                     	;# 
   595     0FE4                     	;# 
   596     0FE5                     	;# 
   597     0FE6                     	;# 
   598     0FE7                     	;# 
   599     0FE8                     	;# 
   600     0FE9                     	;# 
   601     0FEA                     	;# 
   602     0FEB                     	;# 
   603     0FED                     	;# 
   604     0FEE                     	;# 
   605     0FEF                     	;# 
   606     0000                     	;# 
   607     0001                     	;# 
   608     0002                     	;# 
   609     0003                     	;# 
   610     0004                     	;# 
   611     0005                     	;# 
   612     0006                     	;# 
   613     0007                     	;# 
   614     0008                     	;# 
   615     0009                     	;# 
   616     000A                     	;# 
   617     000B                     	;# 
   618     000C                     	;# 
   619     000D                     	;# 
   620     000E                     	;# 
   621     0010                     	;# 
   622     0011                     	;# 
   623     0012                     	;# 
   624     0013                     	;# 
   625     0015                     	;# 
   626     0016                     	;# 
   627     0016                     	;# 
   628     0017                     	;# 
   629     0018                     	;# 
   630     0019                     	;# 
   631     001A                     	;# 
   632     001B                     	;# 
   633     001C                     	;# 
   634     001E                     	;# 
   635     001F                     	;# 
   636     008C                     	;# 
   637     008D                     	;# 
   638     008E                     	;# 
   639     0090                     	;# 
   640     0091                     	;# 
   641     0092                     	;# 
   642     0093                     	;# 
   643     0095                     	;# 
   644     0096                     	;# 
   645     0097                     	;# 
   646     0098                     	;# 
   647     0099                     	;# 
   648     009A                     	;# 
   649     009B                     	;# 
   650     009B                     	;# 
   651     009C                     	;# 
   652     009D                     	;# 
   653     009E                     	;# 
   654     010C                     	;# 
   655     010D                     	;# 
   656     010E                     	;# 
   657     0110                     	;# 
   658     0111                     	;# 
   659     0112                     	;# 
   660     0113                     	;# 
   661     0114                     	;# 
   662     0115                     	;# 
   663     0116                     	;# 
   664     0117                     	;# 
   665     0118                     	;# 
   666     0119                     	;# 
   667     011A                     	;# 
   668     011B                     	;# 
   669     011D                     	;# 
   670     018C                     	;# 
   671     018D                     	;# 
   672     0191                     	;# 
   673     0191                     	;# 
   674     0192                     	;# 
   675     0193                     	;# 
   676     0193                     	;# 
   677     0193                     	;# 
   678     0194                     	;# 
   679     0195                     	;# 
   680     0196                     	;# 
   681     0199                     	;# 
   682     019A                     	;# 
   683     019B                     	;# 
   684     019B                     	;# 
   685     019B                     	;# 
   686     019B                     	;# 
   687     019C                     	;# 
   688     019C                     	;# 
   689     019D                     	;# 
   690     019E                     	;# 
   691     019F                     	;# 
   692     020D                     	;# 
   693     0210                     	;# 
   694     0211                     	;# 
   695     0212                     	;# 
   696     0213                     	;# 
   697     0214                     	;# 
   698     0215                     	;# 
   699     0215                     	;# 
   700     0216                     	;# 
   701     0217                     	;# 
   702     0291                     	;# 
   703     0291                     	;# 
   704     0292                     	;# 
   705     0293                     	;# 
   706     0294                     	;# 
   707     0295                     	;# 
   708     0295                     	;# 
   709     0296                     	;# 
   710     0298                     	;# 
   711     0298                     	;# 
   712     0299                     	;# 
   713     029A                     	;# 
   714     029B                     	;# 
   715     029C                     	;# 
   716     029C                     	;# 
   717     029D                     	;# 
   718     029E                     	;# 
   719     029F                     	;# 
   720     0311                     	;# 
   721     0311                     	;# 
   722     0312                     	;# 
   723     0313                     	;# 
   724     0314                     	;# 
   725     0315                     	;# 
   726     0315                     	;# 
   727     0316                     	;# 
   728     0318                     	;# 
   729     0318                     	;# 
   730     0319                     	;# 
   731     031A                     	;# 
   732     031C                     	;# 
   733     031C                     	;# 
   734     031D                     	;# 
   735     031E                     	;# 
   736     0394                     	;# 
   737     0395                     	;# 
   738     0396                     	;# 
   739     0415                     	;# 
   740     0416                     	;# 
   741     0417                     	;# 
   742     041C                     	;# 
   743     041D                     	;# 
   744     041E                     	;# 
   745     0791                     	;# 
   746     0792                     	;# 
   747     0793                     	;# 
   748     0794                     	;# 
   749     0795                     	;# 
   750     0798                     	;# 
   751     0799                     	;# 
   752     07A0                     	;# 
   753     07A1                     	;# 
   754     07A3                     	;# 
   755     07A4                     	;# 
   756     07A6                     	;# 
   757     07A7                     	;# 
   758     07A9                     	;# 
   759     07AA                     	;# 
   760     0FE4                     	;# 
   761     0FE5                     	;# 
   762     0FE6                     	;# 
   763     0FE7                     	;# 
   764     0FE8                     	;# 
   765     0FE9                     	;# 
   766     0FEA                     	;# 
   767     0FEB                     	;# 
   768     0FED                     	;# 
   769     0FEE                     	;# 
   770     0FEF                     	;# 
   771     0000                     	;# 
   772     0001                     	;# 
   773     0002                     	;# 
   774     0003                     	;# 
   775     0004                     	;# 
   776     0005                     	;# 
   777     0006                     	;# 
   778     0007                     	;# 
   779     0008                     	;# 
   780     0009                     	;# 
   781     000A                     	;# 
   782     000B                     	;# 
   783     000C                     	;# 
   784     000D                     	;# 
   785     000E                     	;# 
   786     0010                     	;# 
   787     0011                     	;# 
   788     0012                     	;# 
   789     0013                     	;# 
   790     0015                     	;# 
   791     0016                     	;# 
   792     0016                     	;# 
   793     0017                     	;# 
   794     0018                     	;# 
   795     0019                     	;# 
   796     001A                     	;# 
   797     001B                     	;# 
   798     001C                     	;# 
   799     001E                     	;# 
   800     001F                     	;# 
   801     008C                     	;# 
   802     008D                     	;# 
   803     008E                     	;# 
   804     0090                     	;# 
   805     0091                     	;# 
   806     0092                     	;# 
   807     0093                     	;# 
   808     0095                     	;# 
   809     0096                     	;# 
   810     0097                     	;# 
   811     0098                     	;# 
   812     0099                     	;# 
   813     009A                     	;# 
   814     009B                     	;# 
   815     009B                     	;# 
   816     009C                     	;# 
   817     009D                     	;# 
   818     009E                     	;# 
   819     010C                     	;# 
   820     010D                     	;# 
   821     010E                     	;# 
   822     0110                     	;# 
   823     0111                     	;# 
   824     0112                     	;# 
   825     0113                     	;# 
   826     0114                     	;# 
   827     0115                     	;# 
   828     0116                     	;# 
   829     0117                     	;# 
   830     0118                     	;# 
   831     0119                     	;# 
   832     011A                     	;# 
   833     011B                     	;# 
   834     011D                     	;# 
   835     018C                     	;# 
   836     018D                     	;# 
   837     0191                     	;# 
   838     0191                     	;# 
   839     0192                     	;# 
   840     0193                     	;# 
   841     0193                     	;# 
   842     0193                     	;# 
   843     0194                     	;# 
   844     0195                     	;# 
   845     0196                     	;# 
   846     0199                     	;# 
   847     019A                     	;# 
   848     019B                     	;# 
   849     019B                     	;# 
   850     019B                     	;# 
   851     019B                     	;# 
   852     019C                     	;# 
   853     019C                     	;# 
   854     019D                     	;# 
   855     019E                     	;# 
   856     019F                     	;# 
   857     020D                     	;# 
   858     0210                     	;# 
   859     0211                     	;# 
   860     0212                     	;# 
   861     0213                     	;# 
   862     0214                     	;# 
   863     0215                     	;# 
   864     0215                     	;# 
   865     0216                     	;# 
   866     0217                     	;# 
   867     0291                     	;# 
   868     0291                     	;# 
   869     0292                     	;# 
   870     0293                     	;# 
   871     0294                     	;# 
   872     0295                     	;# 
   873     0295                     	;# 
   874     0296                     	;# 
   875     0298                     	;# 
   876     0298                     	;# 
   877     0299                     	;# 
   878     029A                     	;# 
   879     029B                     	;# 
   880     029C                     	;# 
   881     029C                     	;# 
   882     029D                     	;# 
   883     029E                     	;# 
   884     029F                     	;# 
   885     0311                     	;# 
   886     0311                     	;# 
   887     0312                     	;# 
   888     0313                     	;# 
   889     0314                     	;# 
   890     0315                     	;# 
   891     0315                     	;# 
   892     0316                     	;# 
   893     0318                     	;# 
   894     0318                     	;# 
   895     0319                     	;# 
   896     031A                     	;# 
   897     031C                     	;# 
   898     031C                     	;# 
   899     031D                     	;# 
   900     031E                     	;# 
   901     0394                     	;# 
   902     0395                     	;# 
   903     0396                     	;# 
   904     0415                     	;# 
   905     0416                     	;# 
   906     0417                     	;# 
   907     041C                     	;# 
   908     041D                     	;# 
   909     041E                     	;# 
   910     0791                     	;# 
   911     0792                     	;# 
   912     0793                     	;# 
   913     0794                     	;# 
   914     0795                     	;# 
   915     0798                     	;# 
   916     0799                     	;# 
   917     07A0                     	;# 
   918     07A1                     	;# 
   919     07A3                     	;# 
   920     07A4                     	;# 
   921     07A6                     	;# 
   922     07A7                     	;# 
   923     07A9                     	;# 
   924     07AA                     	;# 
   925     0FE4                     	;# 
   926     0FE5                     	;# 
   927     0FE6                     	;# 
   928     0FE7                     	;# 
   929     0FE8                     	;# 
   930     0FE9                     	;# 
   931     0FEA                     	;# 
   932     0FEB                     	;# 
   933     0FED                     	;# 
   934     0FEE                     	;# 
   935     0FEF                     	;# 
   936     0000                     	;# 
   937     0001                     	;# 
   938     0002                     	;# 
   939     0003                     	;# 
   940     0004                     	;# 
   941     0005                     	;# 
   942     0006                     	;# 
   943     0007                     	;# 
   944     0008                     	;# 
   945     0009                     	;# 
   946     000A                     	;# 
   947     000B                     	;# 
   948     000C                     	;# 
   949     000D                     	;# 
   950     000E                     	;# 
   951     0010                     	;# 
   952     0011                     	;# 
   953     0012                     	;# 
   954     0013                     	;# 
   955     0015                     	;# 
   956     0016                     	;# 
   957     0016                     	;# 
   958     0017                     	;# 
   959     0018                     	;# 
   960     0019                     	;# 
   961     001A                     	;# 
   962     001B                     	;# 
   963     001C                     	;# 
   964     001E                     	;# 
   965     001F                     	;# 
   966     008C                     	;# 
   967     008D                     	;# 
   968     008E                     	;# 
   969     0090                     	;# 
   970     0091                     	;# 
   971     0092                     	;# 
   972     0093                     	;# 
   973     0095                     	;# 
   974     0096                     	;# 
   975     0097                     	;# 
   976     0098                     	;# 
   977     0099                     	;# 
   978     009A                     	;# 
   979     009B                     	;# 
   980     009B                     	;# 
   981     009C                     	;# 
   982     009D                     	;# 
   983     009E                     	;# 
   984     010C                     	;# 
   985     010D                     	;# 
   986     010E                     	;# 
   987     0110                     	;# 
   988     0111                     	;# 
   989     0112                     	;# 
   990     0113                     	;# 
   991     0114                     	;# 
   992     0115                     	;# 
   993     0116                     	;# 
   994     0117                     	;# 
   995     0118                     	;# 
   996     0119                     	;# 
   997     011A                     	;# 
   998     011B                     	;# 
   999     011D                     	;# 
  1000     018C                     	;# 
  1001     018D                     	;# 
  1002     0191                     	;# 
  1003     0191                     	;# 
  1004     0192                     	;# 
  1005     0193                     	;# 
  1006     0193                     	;# 
  1007     0193                     	;# 
  1008     0194                     	;# 
  1009     0195                     	;# 
  1010     0196                     	;# 
  1011     0199                     	;# 
  1012     019A                     	;# 
  1013     019B                     	;# 
  1014     019B                     	;# 
  1015     019B                     	;# 
  1016     019B                     	;# 
  1017     019C                     	;# 
  1018     019C                     	;# 
  1019     019D                     	;# 
  1020     019E                     	;# 
  1021     019F                     	;# 
  1022     020D                     	;# 
  1023     0210                     	;# 
  1024     0211                     	;# 
  1025     0212                     	;# 
  1026     0213                     	;# 
  1027     0214                     	;# 
  1028     0215                     	;# 
  1029     0215                     	;# 
  1030     0216                     	;# 
  1031     0217                     	;# 
  1032     0291                     	;# 
  1033     0291                     	;# 
  1034     0292                     	;# 
  1035     0293                     	;# 
  1036     0294                     	;# 
  1037     0295                     	;# 
  1038     0295                     	;# 
  1039     0296                     	;# 
  1040     0298                     	;# 
  1041     0298                     	;# 
  1042     0299                     	;# 
  1043     029A                     	;# 
  1044     029B                     	;# 
  1045     029C                     	;# 
  1046     029C                     	;# 
  1047     029D                     	;# 
  1048     029E                     	;# 
  1049     029F                     	;# 
  1050     0311                     	;# 
  1051     0311                     	;# 
  1052     0312                     	;# 
  1053     0313                     	;# 
  1054     0314                     	;# 
  1055     0315                     	;# 
  1056     0315                     	;# 
  1057     0316                     	;# 
  1058     0318                     	;# 
  1059     0318                     	;# 
  1060     0319                     	;# 
  1061     031A                     	;# 
  1062     031C                     	;# 
  1063     031C                     	;# 
  1064     031D                     	;# 
  1065     031E                     	;# 
  1066     0394                     	;# 
  1067     0395                     	;# 
  1068     0396                     	;# 
  1069     0415                     	;# 
  1070     0416                     	;# 
  1071     0417                     	;# 
  1072     041C                     	;# 
  1073     041D                     	;# 
  1074     041E                     	;# 
  1075     0791                     	;# 
  1076     0792                     	;# 
  1077     0793                     	;# 
  1078     0794                     	;# 
  1079     0795                     	;# 
  1080     0798                     	;# 
  1081     0799                     	;# 
  1082     07A0                     	;# 
  1083     07A1                     	;# 
  1084     07A3                     	;# 
  1085     07A4                     	;# 
  1086     07A6                     	;# 
  1087     07A7                     	;# 
  1088     07A9                     	;# 
  1089     07AA                     	;# 
  1090     0FE4                     	;# 
  1091     0FE5                     	;# 
  1092     0FE6                     	;# 
  1093     0FE7                     	;# 
  1094     0FE8                     	;# 
  1095     0FE9                     	;# 
  1096     0FEA                     	;# 
  1097     0FEB                     	;# 
  1098     0FED                     	;# 
  1099     0FEE                     	;# 
  1100     0FEF                     	;# 
  1101     0000                     	;# 
  1102     0001                     	;# 
  1103     0002                     	;# 
  1104     0003                     	;# 
  1105     0004                     	;# 
  1106     0005                     	;# 
  1107     0006                     	;# 
  1108     0007                     	;# 
  1109     0008                     	;# 
  1110     0009                     	;# 
  1111     000A                     	;# 
  1112     000B                     	;# 
  1113     000C                     	;# 
  1114     000D                     	;# 
  1115     000E                     	;# 
  1116     0010                     	;# 
  1117     0011                     	;# 
  1118     0012                     	;# 
  1119     0013                     	;# 
  1120     0015                     	;# 
  1121     0016                     	;# 
  1122     0016                     	;# 
  1123     0017                     	;# 
  1124     0018                     	;# 
  1125     0019                     	;# 
  1126     001A                     	;# 
  1127     001B                     	;# 
  1128     001C                     	;# 
  1129     001E                     	;# 
  1130     001F                     	;# 
  1131     008C                     	;# 
  1132     008D                     	;# 
  1133     008E                     	;# 
  1134     0090                     	;# 
  1135     0091                     	;# 
  1136     0092                     	;# 
  1137     0093                     	;# 
  1138     0095                     	;# 
  1139     0096                     	;# 
  1140     0097                     	;# 
  1141     0098                     	;# 
  1142     0099                     	;# 
  1143     009A                     	;# 
  1144     009B                     	;# 
  1145     009B                     	;# 
  1146     009C                     	;# 
  1147     009D                     	;# 
  1148     009E                     	;# 
  1149     010C                     	;# 
  1150     010D                     	;# 
  1151     010E                     	;# 
  1152     0110                     	;# 
  1153     0111                     	;# 
  1154     0112                     	;# 
  1155     0113                     	;# 
  1156     0114                     	;# 
  1157     0115                     	;# 
  1158     0116                     	;# 
  1159     0117                     	;# 
  1160     0118                     	;# 
  1161     0119                     	;# 
  1162     011A                     	;# 
  1163     011B                     	;# 
  1164     011D                     	;# 
  1165     018C                     	;# 
  1166     018D                     	;# 
  1167     0191                     	;# 
  1168     0191                     	;# 
  1169     0192                     	;# 
  1170     0193                     	;# 
  1171     0193                     	;# 
  1172     0193                     	;# 
  1173     0194                     	;# 
  1174     0195                     	;# 
  1175     0196                     	;# 
  1176     0199                     	;# 
  1177     019A                     	;# 
  1178     019B                     	;# 
  1179     019B                     	;# 
  1180     019B                     	;# 
  1181     019B                     	;# 
  1182     019C                     	;# 
  1183     019C                     	;# 
  1184     019D                     	;# 
  1185     019E                     	;# 
  1186     019F                     	;# 
  1187     020D                     	;# 
  1188     0210                     	;# 
  1189     0211                     	;# 
  1190     0212                     	;# 
  1191     0213                     	;# 
  1192     0214                     	;# 
  1193     0215                     	;# 
  1194     0215                     	;# 
  1195     0216                     	;# 
  1196     0217                     	;# 
  1197     0291                     	;# 
  1198     0291                     	;# 
  1199     0292                     	;# 
  1200     0293                     	;# 
  1201     0294                     	;# 
  1202     0295                     	;# 
  1203     0295                     	;# 
  1204     0296                     	;# 
  1205     0298                     	;# 
  1206     0298                     	;# 
  1207     0299                     	;# 
  1208     029A                     	;# 
  1209     029B                     	;# 
  1210     029C                     	;# 
  1211     029C                     	;# 
  1212     029D                     	;# 
  1213     029E                     	;# 
  1214     029F                     	;# 
  1215     0311                     	;# 
  1216     0311                     	;# 
  1217     0312                     	;# 
  1218     0313                     	;# 
  1219     0314                     	;# 
  1220     0315                     	;# 
  1221     0315                     	;# 
  1222     0316                     	;# 
  1223     0318                     	;# 
  1224     0318                     	;# 
  1225     0319                     	;# 
  1226     031A                     	;# 
  1227     031C                     	;# 
  1228     031C                     	;# 
  1229     031D                     	;# 
  1230     031E                     	;# 
  1231     0394                     	;# 
  1232     0395                     	;# 
  1233     0396                     	;# 
  1234     0415                     	;# 
  1235     0416                     	;# 
  1236     0417                     	;# 
  1237     041C                     	;# 
  1238     041D                     	;# 
  1239     041E                     	;# 
  1240     0791                     	;# 
  1241     0792                     	;# 
  1242     0793                     	;# 
  1243     0794                     	;# 
  1244     0795                     	;# 
  1245     0798                     	;# 
  1246     0799                     	;# 
  1247     07A0                     	;# 
  1248     07A1                     	;# 
  1249     07A3                     	;# 
  1250     07A4                     	;# 
  1251     07A6                     	;# 
  1252     07A7                     	;# 
  1253     07A9                     	;# 
  1254     07AA                     	;# 
  1255     0FE4                     	;# 
  1256     0FE5                     	;# 
  1257     0FE6                     	;# 
  1258     0FE7                     	;# 
  1259     0FE8                     	;# 
  1260     0FE9                     	;# 
  1261     0FEA                     	;# 
  1262     0FEB                     	;# 
  1263     0FED                     	;# 
  1264     0FEE                     	;# 
  1265     0FEF                     	;# 
  1266     0000                     	;# 
  1267     0001                     	;# 
  1268     0002                     	;# 
  1269     0003                     	;# 
  1270     0004                     	;# 
  1271     0005                     	;# 
  1272     0006                     	;# 
  1273     0007                     	;# 
  1274     0008                     	;# 
  1275     0009                     	;# 
  1276     000A                     	;# 
  1277     000B                     	;# 
  1278     000C                     	;# 
  1279     000D                     	;# 
  1280     000E                     	;# 
  1281     0010                     	;# 
  1282     0011                     	;# 
  1283     0012                     	;# 
  1284     0013                     	;# 
  1285     0015                     	;# 
  1286     0016                     	;# 
  1287     0016                     	;# 
  1288     0017                     	;# 
  1289     0018                     	;# 
  1290     0019                     	;# 
  1291     001A                     	;# 
  1292     001B                     	;# 
  1293     001C                     	;# 
  1294     001E                     	;# 
  1295     001F                     	;# 
  1296     008C                     	;# 
  1297     008D                     	;# 
  1298     008E                     	;# 
  1299     0090                     	;# 
  1300     0091                     	;# 
  1301     0092                     	;# 
  1302     0093                     	;# 
  1303     0095                     	;# 
  1304     0096                     	;# 
  1305     0097                     	;# 
  1306     0098                     	;# 
  1307     0099                     	;# 
  1308     009A                     	;# 
  1309     009B                     	;# 
  1310     009B                     	;# 
  1311     009C                     	;# 
  1312     009D                     	;# 
  1313     009E                     	;# 
  1314     010C                     	;# 
  1315     010D                     	;# 
  1316     010E                     	;# 
  1317     0110                     	;# 
  1318     0111                     	;# 
  1319     0112                     	;# 
  1320     0113                     	;# 
  1321     0114                     	;# 
  1322     0115                     	;# 
  1323     0116                     	;# 
  1324     0117                     	;# 
  1325     0118                     	;# 
  1326     0119                     	;# 
  1327     011A                     	;# 
  1328     011B                     	;# 
  1329     011D                     	;# 
  1330     018C                     	;# 
  1331     018D                     	;# 
  1332     0191                     	;# 
  1333     0191                     	;# 
  1334     0192                     	;# 
  1335     0193                     	;# 
  1336     0193                     	;# 
  1337     0193                     	;# 
  1338     0194                     	;# 
  1339     0195                     	;# 
  1340     0196                     	;# 
  1341     0199                     	;# 
  1342     019A                     	;# 
  1343     019B                     	;# 
  1344     019B                     	;# 
  1345     019B                     	;# 
  1346     019B                     	;# 
  1347     019C                     	;# 
  1348     019C                     	;# 
  1349     019D                     	;# 
  1350     019E                     	;# 
  1351     019F                     	;# 
  1352     020D                     	;# 
  1353     0210                     	;# 
  1354     0211                     	;# 
  1355     0212                     	;# 
  1356     0213                     	;# 
  1357     0214                     	;# 
  1358     0215                     	;# 
  1359     0215                     	;# 
  1360     0216                     	;# 
  1361     0217                     	;# 
  1362     0291                     	;# 
  1363     0291                     	;# 
  1364     0292                     	;# 
  1365     0293                     	;# 
  1366     0294                     	;# 
  1367     0295                     	;# 
  1368     0295                     	;# 
  1369     0296                     	;# 
  1370     0298                     	;# 
  1371     0298                     	;# 
  1372     0299                     	;# 
  1373     029A                     	;# 
  1374     029B                     	;# 
  1375     029C                     	;# 
  1376     029C                     	;# 
  1377     029D                     	;# 
  1378     029E                     	;# 
  1379     029F                     	;# 
  1380     0311                     	;# 
  1381     0311                     	;# 
  1382     0312                     	;# 
  1383     0313                     	;# 
  1384     0314                     	;# 
  1385     0315                     	;# 
  1386     0315                     	;# 
  1387     0316                     	;# 
  1388     0318                     	;# 
  1389     0318                     	;# 
  1390     0319                     	;# 
  1391     031A                     	;# 
  1392     031C                     	;# 
  1393     031C                     	;# 
  1394     031D                     	;# 
  1395     031E                     	;# 
  1396     0394                     	;# 
  1397     0395                     	;# 
  1398     0396                     	;# 
  1399     0415                     	;# 
  1400     0416                     	;# 
  1401     0417                     	;# 
  1402     041C                     	;# 
  1403     041D                     	;# 
  1404     041E                     	;# 
  1405     0791                     	;# 
  1406     0792                     	;# 
  1407     0793                     	;# 
  1408     0794                     	;# 
  1409     0795                     	;# 
  1410     0798                     	;# 
  1411     0799                     	;# 
  1412     07A0                     	;# 
  1413     07A1                     	;# 
  1414     07A3                     	;# 
  1415     07A4                     	;# 
  1416     07A6                     	;# 
  1417     07A7                     	;# 
  1418     07A9                     	;# 
  1419     07AA                     	;# 
  1420     0FE4                     	;# 
  1421     0FE5                     	;# 
  1422     0FE6                     	;# 
  1423     0FE7                     	;# 
  1424     0FE8                     	;# 
  1425     0FE9                     	;# 
  1426     0FEA                     	;# 
  1427     0FEB                     	;# 
  1428     0FED                     	;# 
  1429     0FEE                     	;# 
  1430     0FEF                     	;# 
  1431     0000                     	;# 
  1432     0001                     	;# 
  1433     0002                     	;# 
  1434     0003                     	;# 
  1435     0004                     	;# 
  1436     0005                     	;# 
  1437     0006                     	;# 
  1438     0007                     	;# 
  1439     0008                     	;# 
  1440     0009                     	;# 
  1441     000A                     	;# 
  1442     000B                     	;# 
  1443     000C                     	;# 
  1444     000D                     	;# 
  1445     000E                     	;# 
  1446     0010                     	;# 
  1447     0011                     	;# 
  1448     0012                     	;# 
  1449     0013                     	;# 
  1450     0015                     	;# 
  1451     0016                     	;# 
  1452     0016                     	;# 
  1453     0017                     	;# 
  1454     0018                     	;# 
  1455     0019                     	;# 
  1456     001A                     	;# 
  1457     001B                     	;# 
  1458     001C                     	;# 
  1459     001E                     	;# 
  1460     001F                     	;# 
  1461     008C                     	;# 
  1462     008D                     	;# 
  1463     008E                     	;# 
  1464     0090                     	;# 
  1465     0091                     	;# 
  1466     0092                     	;# 
  1467     0093                     	;# 
  1468     0095                     	;# 
  1469     0096                     	;# 
  1470     0097                     	;# 
  1471     0098                     	;# 
  1472     0099                     	;# 
  1473     009A                     	;# 
  1474     009B                     	;# 
  1475     009B                     	;# 
  1476     009C                     	;# 
  1477     009D                     	;# 
  1478     009E                     	;# 
  1479     010C                     	;# 
  1480     010D                     	;# 
  1481     010E                     	;# 
  1482     0110                     	;# 
  1483     0111                     	;# 
  1484     0112                     	;# 
  1485     0113                     	;# 
  1486     0114                     	;# 
  1487     0115                     	;# 
  1488     0116                     	;# 
  1489     0117                     	;# 
  1490     0118                     	;# 
  1491     0119                     	;# 
  1492     011A                     	;# 
  1493     011B                     	;# 
  1494     011D                     	;# 
  1495     018C                     	;# 
  1496     018D                     	;# 
  1497     0191                     	;# 
  1498     0191                     	;# 
  1499     0192                     	;# 
  1500     0193                     	;# 
  1501     0193                     	;# 
  1502     0193                     	;# 
  1503     0194                     	;# 
  1504     0195                     	;# 
  1505     0196                     	;# 
  1506     0199                     	;# 
  1507     019A                     	;# 
  1508     019B                     	;# 
  1509     019B                     	;# 
  1510     019B                     	;# 
  1511     019B                     	;# 
  1512     019C                     	;# 
  1513     019C                     	;# 
  1514     019D                     	;# 
  1515     019E                     	;# 
  1516     019F                     	;# 
  1517     020D                     	;# 
  1518     0210                     	;# 
  1519     0211                     	;# 
  1520     0212                     	;# 
  1521     0213                     	;# 
  1522     0214                     	;# 
  1523     0215                     	;# 
  1524     0215                     	;# 
  1525     0216                     	;# 
  1526     0217                     	;# 
  1527     0291                     	;# 
  1528     0291                     	;# 
  1529     0292                     	;# 
  1530     0293                     	;# 
  1531     0294                     	;# 
  1532     0295                     	;# 
  1533     0295                     	;# 
  1534     0296                     	;# 
  1535     0298                     	;# 
  1536     0298                     	;# 
  1537     0299                     	;# 
  1538     029A                     	;# 
  1539     029B                     	;# 
  1540     029C                     	;# 
  1541     029C                     	;# 
  1542     029D                     	;# 
  1543     029E                     	;# 
  1544     029F                     	;# 
  1545     0311                     	;# 
  1546     0311                     	;# 
  1547     0312                     	;# 
  1548     0313                     	;# 
  1549     0314                     	;# 
  1550     0315                     	;# 
  1551     0315                     	;# 
  1552     0316                     	;# 
  1553     0318                     	;# 
  1554     0318                     	;# 
  1555     0319                     	;# 
  1556     031A                     	;# 
  1557     031C                     	;# 
  1558     031C                     	;# 
  1559     031D                     	;# 
  1560     031E                     	;# 
  1561     0394                     	;# 
  1562     0395                     	;# 
  1563     0396                     	;# 
  1564     0415                     	;# 
  1565     0416                     	;# 
  1566     0417                     	;# 
  1567     041C                     	;# 
  1568     041D                     	;# 
  1569     041E                     	;# 
  1570     0791                     	;# 
  1571     0792                     	;# 
  1572     0793                     	;# 
  1573     0794                     	;# 
  1574     0795                     	;# 
  1575     0798                     	;# 
  1576     0799                     	;# 
  1577     07A0                     	;# 
  1578     07A1                     	;# 
  1579     07A3                     	;# 
  1580     07A4                     	;# 
  1581     07A6                     	;# 
  1582     07A7                     	;# 
  1583     07A9                     	;# 
  1584     07AA                     	;# 
  1585     0FE4                     	;# 
  1586     0FE5                     	;# 
  1587     0FE6                     	;# 
  1588     0FE7                     	;# 
  1589     0FE8                     	;# 
  1590     0FE9                     	;# 
  1591     0FEA                     	;# 
  1592     0FEB                     	;# 
  1593     0FED                     	;# 
  1594     0FEE                     	;# 
  1595     0FEF                     	;# 
  1596                           
  1597                           	psect	idataBANK0
  1598     05D5                     __pidataBANK0:
  1599                           
  1600                           ;initializer for _tDelay_ms
  1601     05D5  3439               	retlw	57
  1602     05D6  3400               	retlw	0
  1603     000D                     _PORTBbits	set	13
  1604     000E                     _PORTCbits	set	14
  1605     0015                     _TMR0	set	21
  1606     000B                     _INTCONbits	set	11
  1607     001C                     _T2CONbits	set	28
  1608     001C                     _T2CON	set	28
  1609     0011                     _PIR1bits	set	17
  1610     001A                     _TMR2	set	26
  1611     001B                     _PR2	set	27
  1612     0095                     _OPTION_REG	set	149
  1613     0095                     _OPTION_REGbits	set	149
  1614     008E                     _TRISC	set	142
  1615     008D                     _TRISB	set	141
  1616     008C                     _TRISA	set	140
  1617     0090                     _TRISE	set	144
  1618     0097                     _WDTCON	set	151
  1619     0098                     _OSCTUNE	set	152
  1620     0099                     _OSCCON	set	153
  1621     04D6                     _PLLR	set	1238
  1622     010C                     _LATAbits	set	268
  1623     010E                     _LATCbits	set	270
  1624     011D                     _APFCON	set	285
  1625     010E                     _LATC	set	270
  1626     010D                     _LATB	set	269
  1627     010C                     _LATA	set	268
  1628     0110                     _LATE	set	272
  1629     0116                     _BORCON	set	278
  1630     018C                     _ANSELA	set	396
  1631     018D                     _ANSELB	set	397
  1632     020D                     _WPUB	set	525
  1633     0210                     _WPUE	set	528
  1634     029E                     _CCPTMRS0bits	set	670
  1635     0291                     _CCPR1L	set	657
  1636     0292                     _CCPR1H	set	658
  1637     0296                     _PSTR1CON	set	662
  1638     0294                     _PWM1CON	set	660
  1639     0295                     _ECCP1AS	set	661
  1640     0293                     _CCP1CON	set	659
  1641                           
  1642                           	psect	cinit
  1643     0015                     start_initialization:	
  1644                           ; #config settings
  1645                           
  1646     0015                     __initialization:
  1647                           
  1648                           ; Initialize objects allocated to BANK0
  1649     0015  3185  25D5  3180   	fcall	__pidataBANK0	;fetch initializer
  1650     0018  00AF               	movwf	__pdataBANK0& (0+127)
  1651     0019  3185  25D6  3180   	fcall	__pidataBANK0+1	;fetch initializer
  1652     001C  00B0               	movwf	(__pdataBANK0+1)& (0+127)
  1653                           
  1654                           ; Clear objects allocated to COMMON
  1655     001D  01F0               	clrf	__pbssCOMMON& (0+127)
  1656     001E  01F1               	clrf	(__pbssCOMMON+1)& (0+127)
  1657     001F  01F2               	clrf	(__pbssCOMMON+2)& (0+127)
  1658     0020  01F3               	clrf	(__pbssCOMMON+3)& (0+127)
  1659     0021  01F4               	clrf	(__pbssCOMMON+4)& (0+127)
  1660     0022  01F5               	clrf	(__pbssCOMMON+5)& (0+127)
  1661     0023  01F6               	clrf	(__pbssCOMMON+6)& (0+127)
  1662                           
  1663                           ; Clear objects allocated to BANK0
  1664     0024  3020               	movlw	low __pbssBANK0
  1665     0025  0084               	movwf	4
  1666     0026  3000               	movlw	high __pbssBANK0
  1667     0027  0085               	movwf	5
  1668     0028  300F               	movlw	15
  1669     0029  3185  257F  3180   	fcall	clear_ram0
  1670     002C                     end_of_initialization:	
  1671                           ;End of C runtime variable initialization code
  1672                           
  1673     002C                     __end_of__initialization:
  1674     002C  107E               	bcf	int$flags,0	;clear compiler interrupt flag (level 1)
  1675     002D  0020               	movlb	0
  1676     002E  3184  2C6F         	ljmp	_main	;jump to C main() function
  1677                           
  1678                           	psect	bssCOMMON
  1679     0070                     __pbssCOMMON:
  1680     0070                     _fturn_off_600ms:
  1681     0070                     	ds	1
  1682     0071                     _turn_fall_edge_cnt:
  1683     0071                     	ds	1
  1684     0072                     _fWelcome_light:
  1685     0072                     	ds	1
  1686     0073                     _eWelcome_step:
  1687     0073                     	ds	1
  1688     0074                     _f1ms:
  1689     0074                     	ds	1
  1690     0075                     _ORB:
  1691     0075                     	ds	1
  1692     0076                     _timer0ReloadVal:
  1693     0076                     	ds	1
  1694                           
  1695                           	psect	bssBANK0
  1696     0020                     __pbssBANK0:
  1697     0020                     _welcome_1ms_cnt:
  1698     0020                     	ds	4
  1699     0024                     _turn_off_cnt:
  1700     0024                     	ds	2
  1701     0026                     _turn_1ms_cnt:
  1702     0026                     	ds	2
  1703     0028                     _TMR0_InterruptHandler:
  1704     0028                     	ds	2
  1705     002A                     debounce_IO@TRB:
  1706     002A                     	ds	1
  1707     002B                     _eTurn_step:
  1708     002B                     	ds	1
  1709     002C                     _fturn_light_disable:
  1710     002C                     	ds	1
  1711     002D                     _fturn_state:
  1712     002D                     	ds	1
  1713     002E                     _fWelcome_light_disable:
  1714     002E                     	ds	1
  1715                           
  1716                           	psect	dataBANK0
  1717     002F                     __pdataBANK0:
  1718     002F                     _tDelay_ms:
  1719     002F                     	ds	2
  1720                           
  1721                           	psect	clrtext
  1722     057F                     clear_ram0:	
  1723                           ;	Called with FSR0 containing the base address, and
  1724                           ;	WREG with the size to clear
  1725                           
  1726     057F  0064               	clrwdt	;clear the watchdog before getting into this loop
  1727     0580                     clrloop0:
  1728     0580  0180               	clrf	0	;clear RAM location pointed to by FSR
  1729     0581  3101               	addfsr 0,1
  1730     0582  0B89               	decfsz	9,f	;Have we reached the end of clearing yet?
  1731     0583  2D80               	goto	clrloop0	;have we reached the end yet?
  1732     0584  3400               	retlw	0	;all done for this memory range, return
  1733                           
  1734                           	psect	cstackCOMMON
  1735     0077                     __pcstackCOMMON:
  1736     0077                     ?_PIN_MANAGER_Initialize:
  1737     0077                     ??_PIN_MANAGER_Initialize:	
  1738                           ; 1 bytes @ 0x0
  1739                           
  1740     0077                     ?_OSCILLATOR_Initialize:	
  1741                           ; 1 bytes @ 0x0
  1742                           
  1743     0077                     ??_OSCILLATOR_Initialize:	
  1744                           ; 1 bytes @ 0x0
  1745                           
  1746     0077                     ?_WDT_Initialize:	
  1747                           ; 1 bytes @ 0x0
  1748                           
  1749     0077                     ??_WDT_Initialize:	
  1750                           ; 1 bytes @ 0x0
  1751                           
  1752     0077                     ?_EPWM1_Initialize:	
  1753                           ; 1 bytes @ 0x0
  1754                           
  1755     0077                     ??_EPWM1_Initialize:	
  1756                           ; 1 bytes @ 0x0
  1757                           
  1758     0077                     ?_TMR2_Initialize:	
  1759                           ; 1 bytes @ 0x0
  1760                           
  1761     0077                     ??_TMR2_Initialize:	
  1762                           ; 1 bytes @ 0x0
  1763                           
  1764     0077                     ?_TMR0_Initialize:	
  1765                           ; 1 bytes @ 0x0
  1766                           
  1767     0077                     ??_TMR0_Initialize:	
  1768                           ; 1 bytes @ 0x0
  1769                           
  1770     0077                     ?_TMR0_ISR:	
  1771                           ; 1 bytes @ 0x0
  1772                           
  1773     0077                     ??_TMR0_ISR:	
  1774                           ; 1 bytes @ 0x0
  1775                           
  1776     0077                     ?_tmr0_10ms_even:	
  1777                           ; 1 bytes @ 0x0
  1778                           
  1779     0077                     ??_tmr0_10ms_even:	
  1780                           ; 1 bytes @ 0x0
  1781                           
  1782     0077                     ?_clear_no_call_warning_message:	
  1783                           ; 1 bytes @ 0x0
  1784                           
  1785     0077                     ?_LED_main:	
  1786                           ; 1 bytes @ 0x0
  1787                           
  1788     0077                     ?_PWM_all_off:	
  1789                           ; 1 bytes @ 0x0
  1790                           
  1791     0077                     ?_is_turn_signals:	
  1792                           ; 1 bytes @ 0x0
  1793                           
  1794     0077                     ??_is_turn_signals:	
  1795                           ; 1 bytes @ 0x0
  1796                           
  1797     0077                     ?_is_DRL:	
  1798                           ; 1 bytes @ 0x0
  1799                           
  1800     0077                     ??_is_DRL:	
  1801                           ; 1 bytes @ 0x0
  1802                           
  1803     0077                     ?_is_POS:	
  1804                           ; 1 bytes @ 0x0
  1805                           
  1806     0077                     ??_is_POS:	
  1807                           ; 1 bytes @ 0x0
  1808                           
  1809     0077                     ?_is_white:	
  1810                           ; 1 bytes @ 0x0
  1811                           
  1812     0077                     ??_is_white:	
  1813                           ; 1 bytes @ 0x0
  1814                           
  1815     0077                     ?_is_test:	
  1816                           ; 1 bytes @ 0x0
  1817                           
  1818     0077                     ??_is_test:	
  1819                           ; 1 bytes @ 0x0
  1820                           
  1821     0077                     ?_is_WELCOME:	
  1822                           ; 1 bytes @ 0x0
  1823                           
  1824     0077                     ??_is_WELCOME:	
  1825                           ; 1 bytes @ 0x0
  1826                           
  1827     0077                     ?_all_led_off:	
  1828                           ; 1 bytes @ 0x0
  1829                           
  1830     0077                     ?_SYSTEM_Initialize:	
  1831                           ; 1 bytes @ 0x0
  1832                           
  1833     0077                     ??_SYSTEM_Initialize:	
  1834                           ; 1 bytes @ 0x0
  1835                           
  1836     0077                     ?_PIN_MANAGER_IOC:	
  1837                           ; 1 bytes @ 0x0
  1838                           
  1839     0077                     ??_PIN_MANAGER_IOC:	
  1840                           ; 1 bytes @ 0x0
  1841                           
  1842     0077                     ?_EPWM1_LoadDutyValue:	
  1843                           ; 1 bytes @ 0x0
  1844                           
  1845     0077                     ?_TMR2_StartTimer:	
  1846                           ; 1 bytes @ 0x0
  1847                           
  1848     0077                     ??_TMR2_StartTimer:	
  1849                           ; 1 bytes @ 0x0
  1850                           
  1851     0077                     ?_TMR2_StopTimer:	
  1852                           ; 1 bytes @ 0x0
  1853                           
  1854     0077                     ??_TMR2_StopTimer:	
  1855                           ; 1 bytes @ 0x0
  1856                           
  1857     0077                     ?_TMR2_ReadTimer:	
  1858                           ; 1 bytes @ 0x0
  1859                           
  1860     0077                     ??_TMR2_ReadTimer:	
  1861                           ; 1 bytes @ 0x0
  1862                           
  1863     0077                     ?_TMR2_WriteTimer:	
  1864                           ; 1 bytes @ 0x0
  1865                           
  1866     0077                     ??_TMR2_WriteTimer:	
  1867                           ; 1 bytes @ 0x0
  1868                           
  1869     0077                     ?_TMR2_LoadPeriodRegister:	
  1870                           ; 1 bytes @ 0x0
  1871                           
  1872     0077                     ??_TMR2_LoadPeriodRegister:	
  1873                           ; 1 bytes @ 0x0
  1874                           
  1875     0077                     ?_TMR2_HasOverflowOccured:	
  1876                           ; 1 bytes @ 0x0
  1877                           
  1878     0077                     ??_TMR2_HasOverflowOccured:	
  1879                           ; 1 bytes @ 0x0
  1880                           
  1881     0077                     ?_INTERRUPT_InterruptManager:	
  1882                           ; 1 bytes @ 0x0
  1883                           
  1884     0077                     ??_INTERRUPT_InterruptManager:	
  1885                           ; 1 bytes @ 0x0
  1886                           
  1887     0077                     ?_TMR0_ReadTimer:	
  1888                           ; 1 bytes @ 0x0
  1889                           
  1890     0077                     ??_TMR0_ReadTimer:	
  1891                           ; 1 bytes @ 0x0
  1892                           
  1893     0077                     ?_TMR0_WriteTimer:	
  1894                           ; 1 bytes @ 0x0
  1895                           
  1896     0077                     ??_TMR0_WriteTimer:	
  1897                           ; 1 bytes @ 0x0
  1898                           
  1899     0077                     ?_TMR0_Reload:	
  1900                           ; 1 bytes @ 0x0
  1901                           
  1902     0077                     ??_TMR0_Reload:	
  1903                           ; 1 bytes @ 0x0
  1904                           
  1905     0077                     ?_TMR0_SetInterruptHandler:	
  1906                           ; 1 bytes @ 0x0
  1907                           
  1908     0077                     ?_debounce_IO:	
  1909                           ; 1 bytes @ 0x0
  1910                           
  1911     0077                     ??_debounce_IO:	
  1912                           ; 1 bytes @ 0x0
  1913                           
  1914     0077                     ?_turn_signals_state_update:	
  1915                           ; 1 bytes @ 0x0
  1916                           
  1917     0077                     ?_check_welcome_signal:	
  1918                           ; 1 bytes @ 0x0
  1919                           
  1920     0077                     ??_check_welcome_signal:	
  1921                           ; 1 bytes @ 0x0
  1922                           
  1923     0077                     ?_all_yellow_led_turn_on:	
  1924                           ; 1 bytes @ 0x0
  1925                           
  1926     0077                     ??_all_yellow_led_turn_on:	
  1927                           ; 1 bytes @ 0x0
  1928                           
  1929     0077                     ?_all_yellow_led_turn_off:	
  1930                           ; 1 bytes @ 0x0
  1931                           
  1932     0077                     ??_all_yellow_led_turn_off:	
  1933                           ; 1 bytes @ 0x0
  1934                           
  1935     0077                     ?_all_white_led_turn_on:	
  1936                           ; 1 bytes @ 0x0
  1937                           
  1938     0077                     ??_all_white_led_turn_on:	
  1939                           ; 1 bytes @ 0x0
  1940                           
  1941     0077                     ?_all_white_led_turn_off:	
  1942                           ; 1 bytes @ 0x0
  1943                           
  1944     0077                     ??_all_white_led_turn_off:	
  1945                           ; 1 bytes @ 0x0
  1946                           
  1947     0077                     ?_P2_on:	
  1948                           ; 1 bytes @ 0x0
  1949                           
  1950     0077                     ??_P2_on:	
  1951                           ; 1 bytes @ 0x0
  1952                           
  1953     0077                     ?_P2_off:	
  1954                           ; 1 bytes @ 0x0
  1955                           
  1956     0077                     ??_P2_off:	
  1957                           ; 1 bytes @ 0x0
  1958                           
  1959     0077                     ?_PWM_DRL:	
  1960                           ; 1 bytes @ 0x0
  1961                           
  1962     0077                     ?_PWM_POS:	
  1963                           ; 1 bytes @ 0x0
  1964                           
  1965     0077                     ?_PWM_turn_signals:	
  1966                           ; 1 bytes @ 0x0
  1967                           
  1968     0077                     ?_DRL_on:	
  1969                           ; 1 bytes @ 0x0
  1970                           
  1971     0077                     ?_POS_on:	
  1972                           ; 1 bytes @ 0x0
  1973                           
  1974     0077                     ?_delay_us:	
  1975                           ; 1 bytes @ 0x0
  1976                           
  1977     0077                     ??_delay_us:	
  1978                           ; 1 bytes @ 0x0
  1979                           
  1980     0077                     ?_delay_ms:	
  1981                           ; 1 bytes @ 0x0
  1982                           
  1983     0077                     ?_yellow_to_white:	
  1984                           ; 1 bytes @ 0x0
  1985                           
  1986     0077                     ?_white_fad_out:	
  1987                           ; 1 bytes @ 0x0
  1988                           
  1989     0077                     ?_yellow_seg1_forward:	
  1990                           ; 1 bytes @ 0x0
  1991                           
  1992     0077                     ?_yellow_seg2_forward:	
  1993                           ; 1 bytes @ 0x0
  1994                           
  1995     0077                     ?_yellow_seg3_forward:	
  1996                           ; 1 bytes @ 0x0
  1997                           
  1998     0077                     ?_yellow_seg4_forward:	
  1999                           ; 1 bytes @ 0x0
  2000                           
  2001     0077                     ?_tellow_seg1_backward:	
  2002                           ; 1 bytes @ 0x0
  2003                           
  2004     0077                     ?_yellow_seg2_backward:	
  2005                           ; 1 bytes @ 0x0
  2006                           
  2007     0077                     ?_yellow_seg3_backward:	
  2008                           ; 1 bytes @ 0x0
  2009                           
  2010     0077                     ?_yellow_seg4_backward:	
  2011                           ; 1 bytes @ 0x0
  2012                           
  2013     0077                     ?_check_test_mode:	
  2014                           ; 1 bytes @ 0x0
  2015                           
  2016     0077                     ??_check_test_mode:	
  2017                           ; 1 bytes @ 0x0
  2018                           
  2019     0077                     ?_check_POS_P2:	
  2020                           ; 1 bytes @ 0x0
  2021                           
  2022     0077                     ??_check_POS_P2:	
  2023                           ; 1 bytes @ 0x0
  2024                           
  2025     0077                     ?_turn_on_turn_signals:	
  2026                           ; 1 bytes @ 0x0
  2027                           
  2028     0077                     ?_check_welcome_light:	
  2029                           ; 1 bytes @ 0x0
  2030                           
  2031     0077                     ?_main:	
  2032                           ; 1 bytes @ 0x0
  2033                           
  2034     0077                     TMR2_WriteTimer@timerVal:	
  2035                           ; 2 bytes @ 0x0
  2036                           
  2037     0077                     TMR2_LoadPeriodRegister@periodVal:	
  2038                           ; 1 bytes @ 0x0
  2039                           
  2040     0077                     TMR2_HasOverflowOccured@status:	
  2041                           ; 1 bytes @ 0x0
  2042                           
  2043     0077                     TMR0_WriteTimer@timerVal:	
  2044                           ; 1 bytes @ 0x0
  2045                           
  2046     0077                     debounce_IO@temp:	
  2047                           ; 1 bytes @ 0x0
  2048                           
  2049     0077                     EPWM1_LoadDutyValue@dutyValue:	
  2050                           ; 1 bytes @ 0x0
  2051                           
  2052     0077                     TMR0_SetInterruptHandler@InterruptHandler:	
  2053                           ; 2 bytes @ 0x0
  2054                           
  2055     0077                     delay_ms@ms:	
  2056                           ; 2 bytes @ 0x0
  2057                           
  2058                           
  2059                           ; 2 bytes @ 0x0
  2060     0077                     	ds	1
  2061     0078                     delay_us@us:
  2062                           
  2063                           ; 1 bytes @ 0x1
  2064     0078                     	ds	1
  2065     0079                     ??_EPWM1_LoadDutyValue:
  2066     0079                     ??_TMR0_SetInterruptHandler:	
  2067                           ; 1 bytes @ 0x2
  2068                           
  2069     0079                     ??_delay_ms:	
  2070                           ; 1 bytes @ 0x2
  2071                           
  2072     0079                     ??_yellow_to_white:	
  2073                           ; 1 bytes @ 0x2
  2074                           
  2075     0079                     ??_white_fad_out:	
  2076                           ; 1 bytes @ 0x2
  2077                           
  2078     0079                     ??_yellow_seg1_forward:	
  2079                           ; 1 bytes @ 0x2
  2080                           
  2081     0079                     ??_yellow_seg2_forward:	
  2082                           ; 1 bytes @ 0x2
  2083                           
  2084     0079                     ??_yellow_seg3_forward:	
  2085                           ; 1 bytes @ 0x2
  2086                           
  2087     0079                     ??_yellow_seg4_forward:	
  2088                           ; 1 bytes @ 0x2
  2089                           
  2090     0079                     ??_tellow_seg1_backward:	
  2091                           ; 1 bytes @ 0x2
  2092                           
  2093     0079                     ??_yellow_seg2_backward:	
  2094                           ; 1 bytes @ 0x2
  2095                           
  2096     0079                     ??_yellow_seg3_backward:	
  2097                           ; 1 bytes @ 0x2
  2098                           
  2099     0079                     ??_yellow_seg4_backward:	
  2100                           ; 1 bytes @ 0x2
  2101                           
  2102                           
  2103                           ; 1 bytes @ 0x2
  2104     0079                     	ds	1
  2105     007A                     yellow_to_white@ii:
  2106     007A                     white_fad_out@ii:	
  2107                           ; 1 bytes @ 0x3
  2108                           
  2109     007A                     yellow_seg1_forward@ii:	
  2110                           ; 1 bytes @ 0x3
  2111                           
  2112     007A                     yellow_seg2_forward@ii:	
  2113                           ; 1 bytes @ 0x3
  2114                           
  2115     007A                     yellow_seg3_forward@ii:	
  2116                           ; 1 bytes @ 0x3
  2117                           
  2118     007A                     yellow_seg4_forward@ii:	
  2119                           ; 1 bytes @ 0x3
  2120                           
  2121     007A                     tellow_seg1_backward@ii:	
  2122                           ; 1 bytes @ 0x3
  2123                           
  2124     007A                     yellow_seg2_backward@ii:	
  2125                           ; 1 bytes @ 0x3
  2126                           
  2127     007A                     yellow_seg3_backward@ii:	
  2128                           ; 1 bytes @ 0x3
  2129                           
  2130     007A                     yellow_seg4_backward@ii:	
  2131                           ; 1 bytes @ 0x3
  2132                           
  2133                           
  2134                           ; 1 bytes @ 0x3
  2135     007A                     	ds	1
  2136     007B                     ??_clear_no_call_warning_message:
  2137     007B                     ??_PWM_all_off:	
  2138                           ; 1 bytes @ 0x4
  2139                           
  2140     007B                     ??_all_led_off:	
  2141                           ; 1 bytes @ 0x4
  2142                           
  2143     007B                     ??_turn_signals_state_update:	
  2144                           ; 1 bytes @ 0x4
  2145                           
  2146     007B                     ??_PWM_DRL:	
  2147                           ; 1 bytes @ 0x4
  2148                           
  2149     007B                     ??_PWM_POS:	
  2150                           ; 1 bytes @ 0x4
  2151                           
  2152     007B                     ??_PWM_turn_signals:	
  2153                           ; 1 bytes @ 0x4
  2154                           
  2155     007B                     ??_DRL_on:	
  2156                           ; 1 bytes @ 0x4
  2157                           
  2158     007B                     ??_POS_on:	
  2159                           ; 1 bytes @ 0x4
  2160                           
  2161     007B                     ??_turn_on_turn_signals:	
  2162                           ; 1 bytes @ 0x4
  2163                           
  2164     007B                     yellow_to_white@pwm_idx:	
  2165                           ; 1 bytes @ 0x4
  2166                           
  2167     007B                     white_fad_out@pwm_idx:	
  2168                           ; 1 bytes @ 0x4
  2169                           
  2170     007B                     yellow_seg1_forward@pwm_idx:	
  2171                           ; 1 bytes @ 0x4
  2172                           
  2173     007B                     yellow_seg2_forward@pwm_idx:	
  2174                           ; 1 bytes @ 0x4
  2175                           
  2176     007B                     yellow_seg3_forward@pwm_idx:	
  2177                           ; 1 bytes @ 0x4
  2178                           
  2179     007B                     yellow_seg4_forward@pwm_idx:	
  2180                           ; 1 bytes @ 0x4
  2181                           
  2182     007B                     tellow_seg1_backward@pwm_idx:	
  2183                           ; 1 bytes @ 0x4
  2184                           
  2185     007B                     yellow_seg2_backward@pwm_idx:	
  2186                           ; 1 bytes @ 0x4
  2187                           
  2188     007B                     yellow_seg3_backward@pwm_idx:	
  2189                           ; 1 bytes @ 0x4
  2190                           
  2191     007B                     yellow_seg4_backward@pwm_idx:	
  2192                           ; 1 bytes @ 0x4
  2193                           
  2194                           
  2195                           ; 1 bytes @ 0x4
  2196     007B                     	ds	1
  2197     007C                     ??_check_welcome_light:
  2198                           
  2199                           ; 1 bytes @ 0x5
  2200     007C                     	ds	2
  2201     007E                     ??_LED_main:
  2202     007E                     ??_main:	
  2203                           ; 1 bytes @ 0x7
  2204                           
  2205                           
  2206                           	psect	maintext
  2207     046F                     __pmaintext:	
  2208                           ; 1 bytes @ 0x7
  2209 ;;
  2210 ;;Main: autosize = 0, tempsize = 0, incstack = 0, save=0
  2211 ;;
  2212 ;; *************** function _main *****************
  2213 ;; Defined at:
  2214 ;;		line 67 in file "main.c"
  2215 ;; Parameters:    Size  Location     Type
  2216 ;;		None
  2217 ;; Auto vars:     Size  Location     Type
  2218 ;;		None
  2219 ;; Return value:  Size  Location     Type
  2220 ;;                  2  178[None  ] int 
  2221 ;; Registers used:
  2222 ;;		wreg, fsr0l, fsr0h, status,2, status,0, pclath, cstack
  2223 ;; Tracked objects:
  2224 ;;		On entry : B1F/0
  2225 ;;		On exit  : 0/0
  2226 ;;		Unchanged: 0/0
  2227 ;; Data sizes:     COMMON   BANK0   BANK1   BANK2   BANK3   BANK4   BANK5   BANK6
  2228 ;;      Params:         0       0       0       0       0       0       0       0
  2229 ;;      Locals:         0       0       0       0       0       0       0       0
  2230 ;;      Temps:          0       0       0       0       0       0       0       0
  2231 ;;      Totals:         0       0       0       0       0       0       0       0
  2232 ;;Total ram usage:        0 bytes
  2233 ;; Hardware stack levels required when called: 8
  2234 ;; This function calls:
  2235 ;;		_LED_main
  2236 ;;		_SYSTEM_Initialize
  2237 ;;		_TMR0_SetInterruptHandler
  2238 ;;		_clear_no_call_warning_message
  2239 ;; This function is called by:
  2240 ;;		Startup code after reset
  2241 ;; This function uses a non-reentrant model
  2242 ;;
  2243                           
  2244     046F                     _main:	
  2245                           ;psect for function _main
  2246                           
  2247     046F                     l2689:	
  2248                           ;incstack = 0
  2249                           ; Regs used in _main: [wreg-fsr0h+status,2+status,0+pclath+cstack]
  2250                           
  2251                           
  2252                           ;main.c: 69:   SYSTEM_Initialize();
  2253     046F  3184  249D  3184   	fcall	_SYSTEM_Initialize
  2254                           
  2255                           ;main.c: 70:   TMR0_SetInterruptHandler(tmr0_10ms_even);
  2256     0472  30E2               	movlw	low _tmr0_10ms_even
  2257     0473  00F7               	movwf	TMR0_SetInterruptHandler@InterruptHandler
  2258     0474  3004               	movlw	high _tmr0_10ms_even
  2259     0475  00F8               	movwf	TMR0_SetInterruptHandler@InterruptHandler+1
  2260     0476  3185  2585  3184   	fcall	_TMR0_SetInterruptHandler
  2261     0479                     l2691:
  2262                           
  2263                           ;main.c: 73:   clear_no_call_warning_message();
  2264     0479  3185  25D7  3184   	fcall	_clear_no_call_warning_message
  2265     047C                     l2693:
  2266                           
  2267                           ;main.c: 74:   LATCbits.LATC2 = 1;
  2268     047C  0022               	movlb	2	; select bank2
  2269     047D  150E               	bsf	14,2	;volatile
  2270     047E                     l2695:
  2271                           
  2272                           ;main.c: 77:   (INTCONbits.GIE = 1);
  2273     047E  178B               	bsf	11,7	;volatile
  2274     047F                     l2697:
  2275                           
  2276                           ;main.c: 79:   (INTCONbits.PEIE = 1);
  2277     047F  170B               	bsf	11,6	;volatile
  2278     0480                     l2699:
  2279                           
  2280                           ;main.c: 83:     LED_main();
  2281     0480  3181  2155  3184   	fcall	_LED_main
  2282     0483  2C80               	goto	l2699
  2283     0484  3180  2813         	ljmp	start
  2284     0486                     __end_of_main:
  2285                           
  2286                           	psect	text1
  2287     05D7                     __ptext1:	
  2288 ;; *************** function _clear_no_call_warning_message *****************
  2289 ;; Defined at:
  2290 ;;		line 32 in file "D:/yiming/00work/TY1500_U3_V06.X/LED.c"
  2291 ;; Parameters:    Size  Location     Type
  2292 ;;		None
  2293 ;; Auto vars:     Size  Location     Type
  2294 ;;  i               1    0        unsigned char 
  2295 ;; Return value:  Size  Location     Type
  2296 ;;                  1    wreg      void 
  2297 ;; Registers used:
  2298 ;;		status,2
  2299 ;; Tracked objects:
  2300 ;;		On entry : 0/0
  2301 ;;		On exit  : 0/0
  2302 ;;		Unchanged: 0/0
  2303 ;; Data sizes:     COMMON   BANK0   BANK1   BANK2   BANK3   BANK4   BANK5   BANK6
  2304 ;;      Params:         0       0       0       0       0       0       0       0
  2305 ;;      Locals:         0       0       0       0       0       0       0       0
  2306 ;;      Temps:          0       0       0       0       0       0       0       0
  2307 ;;      Totals:         0       0       0       0       0       0       0       0
  2308 ;;Total ram usage:        0 bytes
  2309 ;; Hardware stack levels used: 1
  2310 ;; Hardware stack levels required when called: 5
  2311 ;; This function calls:
  2312 ;;		_PIN_MANAGER_IOC
  2313 ;;		_PWM_all_off
  2314 ;;		_TMR0_ReadTimer
  2315 ;;		_TMR0_Reload
  2316 ;;		_TMR0_WriteTimer
  2317 ;;		_TMR2_HasOverflowOccured
  2318 ;;		_TMR2_LoadPeriodRegister
  2319 ;;		_TMR2_ReadTimer
  2320 ;;		_TMR2_StartTimer
  2321 ;;		_TMR2_StopTimer
  2322 ;;		_TMR2_WriteTimer
  2323 ;; This function is called by:
  2324 ;;		_main
  2325 ;; This function uses a non-reentrant model
  2326 ;;
  2327                           
  2328     05D7                     _clear_no_call_warning_message:	
  2329                           ;psect for function _clear_no_call_warning_message
  2330                           
  2331     05D7                     l2605:	
  2332                           ;incstack = 0
  2333                           ; Regs used in _clear_no_call_warning_message: [status,2]
  2334                           
  2335     05D7                     l276:
  2336     05D7  0008               	return
  2337     05D8                     __end_of_clear_no_call_warning_message:
  2338                           
  2339                           	psect	text2
  2340     058B                     __ptext2:	
  2341 ;; *************** function _TMR2_WriteTimer *****************
  2342 ;; Defined at:
  2343 ;;		line 100 in file "mcc_generated_files/tmr2.c"
  2344 ;; Parameters:    Size  Location     Type
  2345 ;;  timerVal        1    wreg     unsigned char 
  2346 ;; Auto vars:     Size  Location     Type
  2347 ;;  timerVal        1    0[COMMON] unsigned char 
  2348 ;; Return value:  Size  Location     Type
  2349 ;;                  1    wreg      void 
  2350 ;; Registers used:
  2351 ;;		wreg
  2352 ;; Tracked objects:
  2353 ;;		On entry : 0/0
  2354 ;;		On exit  : 0/0
  2355 ;;		Unchanged: 0/0
  2356 ;; Data sizes:     COMMON   BANK0   BANK1   BANK2   BANK3   BANK4   BANK5   BANK6
  2357 ;;      Params:         0       0       0       0       0       0       0       0
  2358 ;;      Locals:         1       0       0       0       0       0       0       0
  2359 ;;      Temps:          0       0       0       0       0       0       0       0
  2360 ;;      Totals:         1       0       0       0       0       0       0       0
  2361 ;;Total ram usage:        1 bytes
  2362 ;; Hardware stack levels used: 1
  2363 ;; Hardware stack levels required when called: 3
  2364 ;; This function calls:
  2365 ;;		Nothing
  2366 ;; This function is called by:
  2367 ;;		_clear_no_call_warning_message
  2368 ;; This function uses a non-reentrant model
  2369 ;;
  2370                           
  2371     058B                     _TMR2_WriteTimer:	
  2372                           ;psect for function _TMR2_WriteTimer
  2373                           
  2374                           
  2375                           ;incstack = 0
  2376                           ; Regs used in _TMR2_WriteTimer: [wreg]
  2377                           ;TMR2_WriteTimer@timerVal stored from wreg
  2378     058B  00F7               	movwf	TMR2_WriteTimer@timerVal
  2379     058C                     l1557:
  2380                           
  2381                           ;mcc_generated_files/tmr2.c: 100: void TMR2_WriteTimer(uint8_t timerVal);mcc_generated_f
      +                          iles/tmr2.c: 101: {;mcc_generated_files/tmr2.c: 103:     TMR2 = timerVal;
  2382     058C  0877               	movf	TMR2_WriteTimer@timerVal,w
  2383     058D  0020               	movlb	0	; select bank0
  2384     058E  009A               	movwf	26	;volatile
  2385     058F                     l113:
  2386     058F  0008               	return
  2387     0590                     __end_of_TMR2_WriteTimer:
  2388                           
  2389                           	psect	text3
  2390     05BD                     __ptext3:	
  2391 ;; *************** function _TMR2_StopTimer *****************
  2392 ;; Defined at:
  2393 ;;		line 85 in file "mcc_generated_files/tmr2.c"
  2394 ;; Parameters:    Size  Location     Type
  2395 ;;		None
  2396 ;; Auto vars:     Size  Location     Type
  2397 ;;		None
  2398 ;; Return value:  Size  Location     Type
  2399 ;;                  1    wreg      void 
  2400 ;; Registers used:
  2401 ;;		None
  2402 ;; Tracked objects:
  2403 ;;		On entry : 0/0
  2404 ;;		On exit  : 0/0
  2405 ;;		Unchanged: 0/0
  2406 ;; Data sizes:     COMMON   BANK0   BANK1   BANK2   BANK3   BANK4   BANK5   BANK6
  2407 ;;      Params:         0       0       0       0       0       0       0       0
  2408 ;;      Locals:         0       0       0       0       0       0       0       0
  2409 ;;      Temps:          0       0       0       0       0       0       0       0
  2410 ;;      Totals:         0       0       0       0       0       0       0       0
  2411 ;;Total ram usage:        0 bytes
  2412 ;; Hardware stack levels used: 1
  2413 ;; Hardware stack levels required when called: 3
  2414 ;; This function calls:
  2415 ;;		Nothing
  2416 ;; This function is called by:
  2417 ;;		_clear_no_call_warning_message
  2418 ;; This function uses a non-reentrant model
  2419 ;;
  2420                           
  2421     05BD                     _TMR2_StopTimer:	
  2422                           ;psect for function _TMR2_StopTimer
  2423                           
  2424     05BD                     l1551:	
  2425                           ;incstack = 0
  2426                           ; Regs used in _TMR2_StopTimer: []
  2427                           
  2428                           
  2429                           ;mcc_generated_files/tmr2.c: 88:     T2CONbits.TMR2ON = 0;
  2430     05BD  0020               	movlb	0	; select bank0
  2431     05BE  111C               	bcf	28,2	;volatile
  2432     05BF                     l107:
  2433     05BF  0008               	return
  2434     05C0                     __end_of_TMR2_StopTimer:
  2435                           
  2436                           	psect	text4
  2437     05C0                     __ptext4:	
  2438 ;; *************** function _TMR2_StartTimer *****************
  2439 ;; Defined at:
  2440 ;;		line 79 in file "mcc_generated_files/tmr2.c"
  2441 ;; Parameters:    Size  Location     Type
  2442 ;;		None
  2443 ;; Auto vars:     Size  Location     Type
  2444 ;;		None
  2445 ;; Return value:  Size  Location     Type
  2446 ;;                  1    wreg      void 
  2447 ;; Registers used:
  2448 ;;		None
  2449 ;; Tracked objects:
  2450 ;;		On entry : 0/0
  2451 ;;		On exit  : 0/0
  2452 ;;		Unchanged: 0/0
  2453 ;; Data sizes:     COMMON   BANK0   BANK1   BANK2   BANK3   BANK4   BANK5   BANK6
  2454 ;;      Params:         0       0       0       0       0       0       0       0
  2455 ;;      Locals:         0       0       0       0       0       0       0       0
  2456 ;;      Temps:          0       0       0       0       0       0       0       0
  2457 ;;      Totals:         0       0       0       0       0       0       0       0
  2458 ;;Total ram usage:        0 bytes
  2459 ;; Hardware stack levels used: 1
  2460 ;; Hardware stack levels required when called: 3
  2461 ;; This function calls:
  2462 ;;		Nothing
  2463 ;; This function is called by:
  2464 ;;		_clear_no_call_warning_message
  2465 ;; This function uses a non-reentrant model
  2466 ;;
  2467                           
  2468     05C0                     _TMR2_StartTimer:	
  2469                           ;psect for function _TMR2_StartTimer
  2470                           
  2471     05C0                     l1549:	
  2472                           ;incstack = 0
  2473                           ; Regs used in _TMR2_StartTimer: []
  2474                           
  2475                           
  2476                           ;mcc_generated_files/tmr2.c: 82:     T2CONbits.TMR2ON = 1;
  2477     05C0  0020               	movlb	0	; select bank0
  2478     05C1  151C               	bsf	28,2	;volatile
  2479     05C2                     l104:
  2480     05C2  0008               	return
  2481     05C3                     __end_of_TMR2_StartTimer:
  2482                           
  2483                           	psect	text5
  2484     05C3                     __ptext5:	
  2485 ;; *************** function _TMR2_ReadTimer *****************
  2486 ;; Defined at:
  2487 ;;		line 91 in file "mcc_generated_files/tmr2.c"
  2488 ;; Parameters:    Size  Location     Type
  2489 ;;		None
  2490 ;; Auto vars:     Size  Location     Type
  2491 ;;  readVal         1    0        unsigned char 
  2492 ;; Return value:  Size  Location     Type
  2493 ;;                  1    wreg      unsigned char 
  2494 ;; Registers used:
  2495 ;;		wreg
  2496 ;; Tracked objects:
  2497 ;;		On entry : 0/0
  2498 ;;		On exit  : 0/0
  2499 ;;		Unchanged: 0/0
  2500 ;; Data sizes:     COMMON   BANK0   BANK1   BANK2   BANK3   BANK4   BANK5   BANK6
  2501 ;;      Params:         0       0       0       0       0       0       0       0
  2502 ;;      Locals:         0       0       0       0       0       0       0       0
  2503 ;;      Temps:          0       0       0       0       0       0       0       0
  2504 ;;      Totals:         0       0       0       0       0       0       0       0
  2505 ;;Total ram usage:        0 bytes
  2506 ;; Hardware stack levels used: 1
  2507 ;; Hardware stack levels required when called: 3
  2508 ;; This function calls:
  2509 ;;		Nothing
  2510 ;; This function is called by:
  2511 ;;		_clear_no_call_warning_message
  2512 ;; This function uses a non-reentrant model
  2513 ;;
  2514                           
  2515     05C3                     _TMR2_ReadTimer:	
  2516                           ;psect for function _TMR2_ReadTimer
  2517                           
  2518     05C3                     l1553:	
  2519                           ;incstack = 0
  2520                           ; Regs used in _TMR2_ReadTimer: [wreg]
  2521                           
  2522     05C3  0020               	movlb	0	; select bank0
  2523     05C4  081A               	movf	26,w	;volatile
  2524     05C5                     l110:
  2525     05C5  0008               	return
  2526     05C6                     __end_of_TMR2_ReadTimer:
  2527                           
  2528                           	psect	text6
  2529     0590                     __ptext6:	
  2530 ;; *************** function _TMR2_LoadPeriodRegister *****************
  2531 ;; Defined at:
  2532 ;;		line 106 in file "mcc_generated_files/tmr2.c"
  2533 ;; Parameters:    Size  Location     Type
  2534 ;;  periodVal       1    wreg     unsigned char 
  2535 ;; Auto vars:     Size  Location     Type
  2536 ;;  periodVal       1    0[COMMON] unsigned char 
  2537 ;; Return value:  Size  Location     Type
  2538 ;;                  1    wreg      void 
  2539 ;; Registers used:
  2540 ;;		wreg
  2541 ;; Tracked objects:
  2542 ;;		On entry : 0/0
  2543 ;;		On exit  : 0/0
  2544 ;;		Unchanged: 0/0
  2545 ;; Data sizes:     COMMON   BANK0   BANK1   BANK2   BANK3   BANK4   BANK5   BANK6
  2546 ;;      Params:         0       0       0       0       0       0       0       0
  2547 ;;      Locals:         1       0       0       0       0       0       0       0
  2548 ;;      Temps:          0       0       0       0       0       0       0       0
  2549 ;;      Totals:         1       0       0       0       0       0       0       0
  2550 ;;Total ram usage:        1 bytes
  2551 ;; Hardware stack levels used: 1
  2552 ;; Hardware stack levels required when called: 3
  2553 ;; This function calls:
  2554 ;;		Nothing
  2555 ;; This function is called by:
  2556 ;;		_clear_no_call_warning_message
  2557 ;; This function uses a non-reentrant model
  2558 ;;
  2559                           
  2560     0590                     _TMR2_LoadPeriodRegister:	
  2561                           ;psect for function _TMR2_LoadPeriodRegister
  2562                           
  2563                           
  2564                           ;incstack = 0
  2565                           ; Regs used in _TMR2_LoadPeriodRegister: [wreg]
  2566                           ;TMR2_LoadPeriodRegister@periodVal stored from wreg
  2567     0590  00F7               	movwf	TMR2_LoadPeriodRegister@periodVal
  2568     0591                     l1559:
  2569                           
  2570                           ;mcc_generated_files/tmr2.c: 106: void TMR2_LoadPeriodRegister(uint8_t periodVal);mcc_ge
      +                          nerated_files/tmr2.c: 107: {;mcc_generated_files/tmr2.c: 108:    PR2 = periodVal;
  2571     0591  0877               	movf	TMR2_LoadPeriodRegister@periodVal,w
  2572     0592  0020               	movlb	0	; select bank0
  2573     0593  009B               	movwf	27	;volatile
  2574     0594                     l116:
  2575     0594  0008               	return
  2576     0595                     __end_of_TMR2_LoadPeriodRegister:
  2577                           
  2578                           	psect	text7
  2579     051B                     __ptext7:	
  2580 ;; *************** function _TMR2_HasOverflowOccured *****************
  2581 ;; Defined at:
  2582 ;;		line 111 in file "mcc_generated_files/tmr2.c"
  2583 ;; Parameters:    Size  Location     Type
  2584 ;;		None
  2585 ;; Auto vars:     Size  Location     Type
  2586 ;;  status          1    0[COMMON] _Bool 
  2587 ;; Return value:  Size  Location     Type
  2588 ;;                  1    wreg      _Bool 
  2589 ;; Registers used:
  2590 ;;		wreg, status,2, status,0
  2591 ;; Tracked objects:
  2592 ;;		On entry : 0/0
  2593 ;;		On exit  : 0/0
  2594 ;;		Unchanged: 0/0
  2595 ;; Data sizes:     COMMON   BANK0   BANK1   BANK2   BANK3   BANK4   BANK5   BANK6
  2596 ;;      Params:         0       0       0       0       0       0       0       0
  2597 ;;      Locals:         1       0       0       0       0       0       0       0
  2598 ;;      Temps:          0       0       0       0       0       0       0       0
  2599 ;;      Totals:         1       0       0       0       0       0       0       0
  2600 ;;Total ram usage:        1 bytes
  2601 ;; Hardware stack levels used: 1
  2602 ;; Hardware stack levels required when called: 3
  2603 ;; This function calls:
  2604 ;;		Nothing
  2605 ;; This function is called by:
  2606 ;;		_clear_no_call_warning_message
  2607 ;; This function uses a non-reentrant model
  2608 ;;
  2609                           
  2610     051B                     _TMR2_HasOverflowOccured:	
  2611                           ;psect for function _TMR2_HasOverflowOccured
  2612                           
  2613     051B                     l1561:	
  2614                           ;incstack = 0
  2615                           ; Regs used in _TMR2_HasOverflowOccured: [wreg+status,2+status,0]
  2616                           
  2617                           
  2618                           ;mcc_generated_files/tmr2.c: 114:     _Bool status = PIR1bits.TMR2IF;
  2619     051B  3000               	movlw	0
  2620     051C  0020               	movlb	0	; select bank0
  2621     051D  1891               	btfsc	17,1	;volatile
  2622     051E  3001               	movlw	1
  2623     051F  00F7               	movwf	TMR2_HasOverflowOccured@status
  2624     0520                     l1563:
  2625                           
  2626                           ;mcc_generated_files/tmr2.c: 115:     if(status)
  2627     0520  0877               	movf	TMR2_HasOverflowOccured@status,w
  2628     0521  1903               	btfsc	3,2
  2629     0522  2D24               	goto	u361
  2630     0523  2D25               	goto	u360
  2631     0524                     u361:
  2632     0524  2D26               	goto	l120
  2633     0525                     u360:
  2634     0525                     l1565:
  2635                           
  2636                           ;mcc_generated_files/tmr2.c: 116:     {;mcc_generated_files/tmr2.c: 118:         PIR1bit
      +                          s.TMR2IF = 0;
  2637     0525  1091               	bcf	17,1	;volatile
  2638     0526                     l120:
  2639     0526  0008               	return
  2640     0527                     __end_of_TMR2_HasOverflowOccured:
  2641                           
  2642                           	psect	text8
  2643     0595                     __ptext8:	
  2644 ;; *************** function _TMR0_WriteTimer *****************
  2645 ;; Defined at:
  2646 ;;		line 96 in file "mcc_generated_files/tmr0.c"
  2647 ;; Parameters:    Size  Location     Type
  2648 ;;  timerVal        1    wreg     unsigned char 
  2649 ;; Auto vars:     Size  Location     Type
  2650 ;;  timerVal        1    0[COMMON] unsigned char 
  2651 ;; Return value:  Size  Location     Type
  2652 ;;                  1    wreg      void 
  2653 ;; Registers used:
  2654 ;;		wreg
  2655 ;; Tracked objects:
  2656 ;;		On entry : 0/0
  2657 ;;		On exit  : 0/0
  2658 ;;		Unchanged: 0/0
  2659 ;; Data sizes:     COMMON   BANK0   BANK1   BANK2   BANK3   BANK4   BANK5   BANK6
  2660 ;;      Params:         0       0       0       0       0       0       0       0
  2661 ;;      Locals:         1       0       0       0       0       0       0       0
  2662 ;;      Temps:          0       0       0       0       0       0       0       0
  2663 ;;      Totals:         1       0       0       0       0       0       0       0
  2664 ;;Total ram usage:        1 bytes
  2665 ;; Hardware stack levels used: 1
  2666 ;; Hardware stack levels required when called: 3
  2667 ;; This function calls:
  2668 ;;		Nothing
  2669 ;; This function is called by:
  2670 ;;		_clear_no_call_warning_message
  2671 ;; This function uses a non-reentrant model
  2672 ;;
  2673                           
  2674     0595                     _TMR0_WriteTimer:	
  2675                           ;psect for function _TMR0_WriteTimer
  2676                           
  2677                           
  2678                           ;incstack = 0
  2679                           ; Regs used in _TMR0_WriteTimer: [wreg]
  2680                           ;TMR0_WriteTimer@timerVal stored from wreg
  2681     0595  00F7               	movwf	TMR0_WriteTimer@timerVal
  2682     0596                     l1571:
  2683                           
  2684                           ;mcc_generated_files/tmr0.c: 96: void TMR0_WriteTimer(uint8_t timerVal);mcc_generated_fi
      +                          les/tmr0.c: 97: {;mcc_generated_files/tmr0.c: 99:     TMR0 = timerVal;
  2685     0596  0877               	movf	TMR0_WriteTimer@timerVal,w
  2686     0597  0020               	movlb	0	; select bank0
  2687     0598  0095               	movwf	21	;volatile
  2688     0599                     l150:
  2689     0599  0008               	return
  2690     059A                     __end_of_TMR0_WriteTimer:
  2691                           
  2692                           	psect	text9
  2693     05A9                     __ptext9:	
  2694 ;; *************** function _TMR0_Reload *****************
  2695 ;; Defined at:
  2696 ;;		line 102 in file "mcc_generated_files/tmr0.c"
  2697 ;; Parameters:    Size  Location     Type
  2698 ;;		None
  2699 ;; Auto vars:     Size  Location     Type
  2700 ;;		None
  2701 ;; Return value:  Size  Location     Type
  2702 ;;                  1    wreg      void 
  2703 ;; Registers used:
  2704 ;;		wreg
  2705 ;; Tracked objects:
  2706 ;;		On entry : 0/0
  2707 ;;		On exit  : 0/0
  2708 ;;		Unchanged: 0/0
  2709 ;; Data sizes:     COMMON   BANK0   BANK1   BANK2   BANK3   BANK4   BANK5   BANK6
  2710 ;;      Params:         0       0       0       0       0       0       0       0
  2711 ;;      Locals:         0       0       0       0       0       0       0       0
  2712 ;;      Temps:          0       0       0       0       0       0       0       0
  2713 ;;      Totals:         0       0       0       0       0       0       0       0
  2714 ;;Total ram usage:        0 bytes
  2715 ;; Hardware stack levels used: 1
  2716 ;; Hardware stack levels required when called: 3
  2717 ;; This function calls:
  2718 ;;		Nothing
  2719 ;; This function is called by:
  2720 ;;		_clear_no_call_warning_message
  2721 ;; This function uses a non-reentrant model
  2722 ;;
  2723                           
  2724     05A9                     _TMR0_Reload:	
  2725                           ;psect for function _TMR0_Reload
  2726                           
  2727     05A9                     l1573:	
  2728                           ;incstack = 0
  2729                           ; Regs used in _TMR0_Reload: [wreg]
  2730                           
  2731                           
  2732                           ;mcc_generated_files/tmr0.c: 105:     TMR0 = timer0ReloadVal;
  2733     05A9  0876               	movf	_timer0ReloadVal,w	;volatile
  2734     05AA  0020               	movlb	0	; select bank0
  2735     05AB  0095               	movwf	21	;volatile
  2736     05AC                     l153:
  2737     05AC  0008               	return
  2738     05AD                     __end_of_TMR0_Reload:
  2739                           
  2740                           	psect	text10
  2741     05C6                     __ptext10:	
  2742 ;; *************** function _TMR0_ReadTimer *****************
  2743 ;; Defined at:
  2744 ;;		line 87 in file "mcc_generated_files/tmr0.c"
  2745 ;; Parameters:    Size  Location     Type
  2746 ;;		None
  2747 ;; Auto vars:     Size  Location     Type
  2748 ;;  readVal         1    0        unsigned char 
  2749 ;; Return value:  Size  Location     Type
  2750 ;;                  1    wreg      unsigned char 
  2751 ;; Registers used:
  2752 ;;		wreg
  2753 ;; Tracked objects:
  2754 ;;		On entry : 0/0
  2755 ;;		On exit  : 0/0
  2756 ;;		Unchanged: 0/0
  2757 ;; Data sizes:     COMMON   BANK0   BANK1   BANK2   BANK3   BANK4   BANK5   BANK6
  2758 ;;      Params:         0       0       0       0       0       0       0       0
  2759 ;;      Locals:         0       0       0       0       0       0       0       0
  2760 ;;      Temps:          0       0       0       0       0       0       0       0
  2761 ;;      Totals:         0       0       0       0       0       0       0       0
  2762 ;;Total ram usage:        0 bytes
  2763 ;; Hardware stack levels used: 1
  2764 ;; Hardware stack levels required when called: 3
  2765 ;; This function calls:
  2766 ;;		Nothing
  2767 ;; This function is called by:
  2768 ;;		_clear_no_call_warning_message
  2769 ;; This function uses a non-reentrant model
  2770 ;;
  2771                           
  2772     05C6                     _TMR0_ReadTimer:	
  2773                           ;psect for function _TMR0_ReadTimer
  2774                           
  2775     05C6                     l1567:	
  2776                           ;incstack = 0
  2777                           ; Regs used in _TMR0_ReadTimer: [wreg]
  2778                           
  2779     05C6  0020               	movlb	0	; select bank0
  2780     05C7  0815               	movf	21,w	;volatile
  2781     05C8                     l147:
  2782     05C8  0008               	return
  2783     05C9                     __end_of_TMR0_ReadTimer:
  2784                           
  2785                           	psect	text11
  2786     0571                     __ptext11:	
  2787 ;; *************** function _PWM_all_off *****************
  2788 ;; Defined at:
  2789 ;;		line 145 in file "D:/yiming/00work/TY1500_U3_V06.X/LED.c"
  2790 ;; Parameters:    Size  Location     Type
  2791 ;;		None
  2792 ;; Auto vars:     Size  Location     Type
  2793 ;;		None
  2794 ;; Return value:  Size  Location     Type
  2795 ;;                  1    wreg      void 
  2796 ;; Registers used:
  2797 ;;		wreg, status,2, status,0, pclath, cstack
  2798 ;; Tracked objects:
  2799 ;;		On entry : 0/0
  2800 ;;		On exit  : 0/0
  2801 ;;		Unchanged: 0/0
  2802 ;; Data sizes:     COMMON   BANK0   BANK1   BANK2   BANK3   BANK4   BANK5   BANK6
  2803 ;;      Params:         0       0       0       0       0       0       0       0
  2804 ;;      Locals:         0       0       0       0       0       0       0       0
  2805 ;;      Temps:          0       0       0       0       0       0       0       0
  2806 ;;      Totals:         0       0       0       0       0       0       0       0
  2807 ;;Total ram usage:        0 bytes
  2808 ;; Hardware stack levels used: 1
  2809 ;; Hardware stack levels required when called: 4
  2810 ;; This function calls:
  2811 ;;		_EPWM1_LoadDutyValue
  2812 ;; This function is called by:
  2813 ;;		_clear_no_call_warning_message
  2814 ;; This function uses a non-reentrant model
  2815 ;;
  2816                           
  2817     0571                     _PWM_all_off:	
  2818                           ;psect for function _PWM_all_off
  2819                           
  2820     0571                     l2345:	
  2821                           ;incstack = 0
  2822                           ; Regs used in _PWM_all_off: [wreg+status,2+status,0+pclath+cstack]
  2823                           
  2824     0571  3000               	movlw	0
  2825     0572  00F7               	movwf	EPWM1_LoadDutyValue@dutyValue
  2826     0573  00F8               	movwf	EPWM1_LoadDutyValue@dutyValue+1
  2827     0574  3184  2486  3185   	fcall	_EPWM1_LoadDutyValue
  2828     0577                     l338:
  2829     0577  0008               	return
  2830     0578                     __end_of_PWM_all_off:
  2831                           
  2832                           	psect	text12
  2833     05D8                     __ptext12:	
  2834 ;; *************** function _PIN_MANAGER_IOC *****************
  2835 ;; Defined at:
  2836 ;;		line 99 in file "mcc_generated_files/pin_manager.c"
  2837 ;; Parameters:    Size  Location     Type
  2838 ;;		None
  2839 ;; Auto vars:     Size  Location     Type
  2840 ;;		None
  2841 ;; Return value:  Size  Location     Type
  2842 ;;                  1    wreg      void 
  2843 ;; Registers used:
  2844 ;;		None
  2845 ;; Tracked objects:
  2846 ;;		On entry : 0/0
  2847 ;;		On exit  : 0/0
  2848 ;;		Unchanged: 0/0
  2849 ;; Data sizes:     COMMON   BANK0   BANK1   BANK2   BANK3   BANK4   BANK5   BANK6
  2850 ;;      Params:         0       0       0       0       0       0       0       0
  2851 ;;      Locals:         0       0       0       0       0       0       0       0
  2852 ;;      Temps:          0       0       0       0       0       0       0       0
  2853 ;;      Totals:         0       0       0       0       0       0       0       0
  2854 ;;Total ram usage:        0 bytes
  2855 ;; Hardware stack levels used: 1
  2856 ;; Hardware stack levels required when called: 3
  2857 ;; This function calls:
  2858 ;;		Nothing
  2859 ;; This function is called by:
  2860 ;;		_clear_no_call_warning_message
  2861 ;; This function uses a non-reentrant model
  2862 ;;
  2863                           
  2864     05D8                     _PIN_MANAGER_IOC:	
  2865                           ;psect for function _PIN_MANAGER_IOC
  2866                           
  2867     05D8                     l68:	
  2868                           ;incstack = 0
  2869                           ; Regs used in _PIN_MANAGER_IOC: []
  2870                           
  2871     05D8  0008               	return
  2872     05D9                     __end_of_PIN_MANAGER_IOC:
  2873                           
  2874                           	psect	text13
  2875     0585                     __ptext13:	
  2876 ;; *************** function _TMR0_SetInterruptHandler *****************
  2877 ;; Defined at:
  2878 ;;		line 125 in file "mcc_generated_files/tmr0.c"
  2879 ;; Parameters:    Size  Location     Type
  2880 ;;  InterruptHan    2    0[COMMON] PTR FTN()void 
  2881 ;;		 -> tmr0_10ms_even(1), 
  2882 ;; Auto vars:     Size  Location     Type
  2883 ;;		None
  2884 ;; Return value:  Size  Location     Type
  2885 ;;                  1    wreg      void 
  2886 ;; Registers used:
  2887 ;;		wreg
  2888 ;; Tracked objects:
  2889 ;;		On entry : 0/0
  2890 ;;		On exit  : 0/0
  2891 ;;		Unchanged: 0/0
  2892 ;; Data sizes:     COMMON   BANK0   BANK1   BANK2   BANK3   BANK4   BANK5   BANK6
  2893 ;;      Params:         2       0       0       0       0       0       0       0
  2894 ;;      Locals:         0       0       0       0       0       0       0       0
  2895 ;;      Temps:          0       0       0       0       0       0       0       0
  2896 ;;      Totals:         2       0       0       0       0       0       0       0
  2897 ;;Total ram usage:        2 bytes
  2898 ;; Hardware stack levels used: 1
  2899 ;; Hardware stack levels required when called: 3
  2900 ;; This function calls:
  2901 ;;		Nothing
  2902 ;; This function is called by:
  2903 ;;		_main
  2904 ;; This function uses a non-reentrant model
  2905 ;;
  2906                           
  2907     0585                     _TMR0_SetInterruptHandler:	
  2908                           ;psect for function _TMR0_SetInterruptHandler
  2909                           
  2910     0585                     l2603:	
  2911                           ;incstack = 0
  2912                           ; Regs used in _TMR0_SetInterruptHandler: [wreg]
  2913                           
  2914                           
  2915                           ;mcc_generated_files/tmr0.c: 126:     TMR0_InterruptHandler = InterruptHandler;
  2916     0585  0878               	movf	TMR0_SetInterruptHandler@InterruptHandler+1,w
  2917     0586  0020               	movlb	0	; select bank0
  2918     0587  00A9               	movwf	_TMR0_InterruptHandler+1
  2919     0588  0877               	movf	TMR0_SetInterruptHandler@InterruptHandler,w
  2920     0589  00A8               	movwf	_TMR0_InterruptHandler
  2921     058A                     l160:
  2922     058A  0008               	return
  2923     058B                     __end_of_TMR0_SetInterruptHandler:
  2924                           
  2925                           	psect	text14
  2926     049D                     __ptext14:	
  2927 ;; *************** function _SYSTEM_Initialize *****************
  2928 ;; Defined at:
  2929 ;;		line 50 in file "mcc_generated_files/mcc.c"
  2930 ;; Parameters:    Size  Location     Type
  2931 ;;		None
  2932 ;; Auto vars:     Size  Location     Type
  2933 ;;		None
  2934 ;; Return value:  Size  Location     Type
  2935 ;;                  1    wreg      void 
  2936 ;; Registers used:
  2937 ;;		wreg, status,2, status,0, pclath, cstack
  2938 ;; Tracked objects:
  2939 ;;		On entry : 0/0
  2940 ;;		On exit  : 0/0
  2941 ;;		Unchanged: 0/0
  2942 ;; Data sizes:     COMMON   BANK0   BANK1   BANK2   BANK3   BANK4   BANK5   BANK6
  2943 ;;      Params:         0       0       0       0       0       0       0       0
  2944 ;;      Locals:         0       0       0       0       0       0       0       0
  2945 ;;      Temps:          0       0       0       0       0       0       0       0
  2946 ;;      Totals:         0       0       0       0       0       0       0       0
  2947 ;;Total ram usage:        0 bytes
  2948 ;; Hardware stack levels used: 1
  2949 ;; Hardware stack levels required when called: 4
  2950 ;; This function calls:
  2951 ;;		_EPWM1_Initialize
  2952 ;;		_OSCILLATOR_Initialize
  2953 ;;		_PIN_MANAGER_Initialize
  2954 ;;		_TMR0_Initialize
  2955 ;;		_TMR2_Initialize
  2956 ;;		_WDT_Initialize
  2957 ;; This function is called by:
  2958 ;;		_main
  2959 ;; This function uses a non-reentrant model
  2960 ;;
  2961                           
  2962     049D                     _SYSTEM_Initialize:	
  2963                           ;psect for function _SYSTEM_Initialize
  2964                           
  2965     049D                     l1827:	
  2966                           ;incstack = 0
  2967                           ; Regs used in _SYSTEM_Initialize: [wreg+status,2+status,0+pclath+cstack]
  2968                           
  2969                           
  2970                           ;mcc_generated_files/mcc.c: 53:     PIN_MANAGER_Initialize();
  2971     049D  3184  2457  3184   	fcall	_PIN_MANAGER_Initialize
  2972                           
  2973                           ;mcc_generated_files/mcc.c: 54:     OSCILLATOR_Initialize();
  2974     04A0  3185  2527  3184   	fcall	_OSCILLATOR_Initialize
  2975                           
  2976                           ;mcc_generated_files/mcc.c: 55:     WDT_Initialize();
  2977     04A3  3185  25AD  3184   	fcall	_WDT_Initialize
  2978                           
  2979                           ;mcc_generated_files/mcc.c: 56:     EPWM1_Initialize();
  2980     04A6  3185  250E  3184   	fcall	_EPWM1_Initialize
  2981                           
  2982                           ;mcc_generated_files/mcc.c: 57:     TMR2_Initialize();
  2983     04A9  3185  2549  3184   	fcall	_TMR2_Initialize
  2984                           
  2985                           ;mcc_generated_files/mcc.c: 58:     TMR0_Initialize();
  2986     04AC  3185  2501  3184   	fcall	_TMR0_Initialize
  2987     04AF                     l25:
  2988     04AF  0008               	return
  2989     04B0                     __end_of_SYSTEM_Initialize:
  2990                           
  2991                           	psect	text15
  2992     05AD                     __ptext15:	
  2993 ;; *************** function _WDT_Initialize *****************
  2994 ;; Defined at:
  2995 ;;		line 75 in file "mcc_generated_files/mcc.c"
  2996 ;; Parameters:    Size  Location     Type
  2997 ;;		None
  2998 ;; Auto vars:     Size  Location     Type
  2999 ;;		None
  3000 ;; Return value:  Size  Location     Type
  3001 ;;                  1    wreg      void 
  3002 ;; Registers used:
  3003 ;;		wreg
  3004 ;; Tracked objects:
  3005 ;;		On entry : 0/0
  3006 ;;		On exit  : 0/0
  3007 ;;		Unchanged: 0/0
  3008 ;; Data sizes:     COMMON   BANK0   BANK1   BANK2   BANK3   BANK4   BANK5   BANK6
  3009 ;;      Params:         0       0       0       0       0       0       0       0
  3010 ;;      Locals:         0       0       0       0       0       0       0       0
  3011 ;;      Temps:          0       0       0       0       0       0       0       0
  3012 ;;      Totals:         0       0       0       0       0       0       0       0
  3013 ;;Total ram usage:        0 bytes
  3014 ;; Hardware stack levels used: 1
  3015 ;; Hardware stack levels required when called: 3
  3016 ;; This function calls:
  3017 ;;		Nothing
  3018 ;; This function is called by:
  3019 ;;		_SYSTEM_Initialize
  3020 ;; This function uses a non-reentrant model
  3021 ;;
  3022                           
  3023     05AD                     _WDT_Initialize:	
  3024                           ;psect for function _WDT_Initialize
  3025                           
  3026     05AD                     l1515:	
  3027                           ;incstack = 0
  3028                           ; Regs used in _WDT_Initialize: [wreg]
  3029                           
  3030                           
  3031                           ;mcc_generated_files/mcc.c: 78:     WDTCON = 0x16;
  3032     05AD  3016               	movlw	22
  3033     05AE  0021               	movlb	1	; select bank1
  3034     05AF  0097               	movwf	23	;volatile
  3035     05B0                     l34:
  3036     05B0  0008               	return
  3037     05B1                     __end_of_WDT_Initialize:
  3038                           
  3039                           	psect	text16
  3040     0549                     __ptext16:	
  3041 ;; *************** function _TMR2_Initialize *****************
  3042 ;; Defined at:
  3043 ;;		line 62 in file "mcc_generated_files/tmr2.c"
  3044 ;; Parameters:    Size  Location     Type
  3045 ;;		None
  3046 ;; Auto vars:     Size  Location     Type
  3047 ;;		None
  3048 ;; Return value:  Size  Location     Type
  3049 ;;                  1    wreg      void 
  3050 ;; Registers used:
  3051 ;;		wreg, status,2
  3052 ;; Tracked objects:
  3053 ;;		On entry : 0/0
  3054 ;;		On exit  : 0/0
  3055 ;;		Unchanged: 0/0
  3056 ;; Data sizes:     COMMON   BANK0   BANK1   BANK2   BANK3   BANK4   BANK5   BANK6
  3057 ;;      Params:         0       0       0       0       0       0       0       0
  3058 ;;      Locals:         0       0       0       0       0       0       0       0
  3059 ;;      Temps:          0       0       0       0       0       0       0       0
  3060 ;;      Totals:         0       0       0       0       0       0       0       0
  3061 ;;Total ram usage:        0 bytes
  3062 ;; Hardware stack levels used: 1
  3063 ;; Hardware stack levels required when called: 3
  3064 ;; This function calls:
  3065 ;;		Nothing
  3066 ;; This function is called by:
  3067 ;;		_SYSTEM_Initialize
  3068 ;; This function uses a non-reentrant model
  3069 ;;
  3070                           
  3071     0549                     _TMR2_Initialize:	
  3072                           ;psect for function _TMR2_Initialize
  3073                           
  3074     0549                     l1531:	
  3075                           ;incstack = 0
  3076                           ; Regs used in _TMR2_Initialize: [wreg+status,2]
  3077                           
  3078                           
  3079                           ;mcc_generated_files/tmr2.c: 67:     PR2 = 0xC7;
  3080     0549  30C7               	movlw	199
  3081     054A  0020               	movlb	0	; select bank0
  3082     054B  009B               	movwf	27	;volatile
  3083     054C                     l1533:
  3084                           
  3085                           ;mcc_generated_files/tmr2.c: 70:     TMR2 = 0x00;
  3086     054C  019A               	clrf	26	;volatile
  3087     054D                     l1535:
  3088                           
  3089                           ;mcc_generated_files/tmr2.c: 73:     PIR1bits.TMR2IF = 0;
  3090     054D  1091               	bcf	17,1	;volatile
  3091     054E                     l1537:
  3092                           
  3093                           ;mcc_generated_files/tmr2.c: 76:     T2CON = 0x07;
  3094     054E  3007               	movlw	7
  3095     054F  009C               	movwf	28	;volatile
  3096     0550                     l101:
  3097     0550  0008               	return
  3098     0551                     __end_of_TMR2_Initialize:
  3099                           
  3100                           	psect	text17
  3101     0501                     __ptext17:	
  3102 ;; *************** function _TMR0_Initialize *****************
  3103 ;; Defined at:
  3104 ;;		line 64 in file "mcc_generated_files/tmr0.c"
  3105 ;; Parameters:    Size  Location     Type
  3106 ;;		None
  3107 ;; Auto vars:     Size  Location     Type
  3108 ;;		None
  3109 ;; Return value:  Size  Location     Type
  3110 ;;                  1    wreg      void 
  3111 ;; Registers used:
  3112 ;;		wreg, status,2
  3113 ;; Tracked objects:
  3114 ;;		On entry : 0/0
  3115 ;;		On exit  : 0/0
  3116 ;;		Unchanged: 0/0
  3117 ;; Data sizes:     COMMON   BANK0   BANK1   BANK2   BANK3   BANK4   BANK5   BANK6
  3118 ;;      Params:         0       0       0       0       0       0       0       0
  3119 ;;      Locals:         0       0       0       0       0       0       0       0
  3120 ;;      Temps:          0       0       0       0       0       0       0       0
  3121 ;;      Totals:         0       0       0       0       0       0       0       0
  3122 ;;Total ram usage:        0 bytes
  3123 ;; Hardware stack levels used: 1
  3124 ;; Hardware stack levels required when called: 3
  3125 ;; This function calls:
  3126 ;;		Nothing
  3127 ;; This function is called by:
  3128 ;;		_SYSTEM_Initialize
  3129 ;; This function uses a non-reentrant model
  3130 ;;
  3131                           
  3132     0501                     _TMR0_Initialize:	
  3133                           ;psect for function _TMR0_Initialize
  3134                           
  3135     0501                     l1539:	
  3136                           ;incstack = 0
  3137                           ; Regs used in _TMR0_Initialize: [wreg+status,2]
  3138                           
  3139                           
  3140                           ;mcc_generated_files/tmr0.c: 69:     OPTION_REG = (uint8_t)((OPTION_REG & 0xC0) | (0xD4 
      +                          & 0x3F));
  3141     0501  0021               	movlb	1	; select bank1
  3142     0502  0815               	movf	21,w	;volatile
  3143     0503  39C0               	andlw	192
  3144     0504  3814               	iorlw	20
  3145     0505  0095               	movwf	21	;volatile
  3146     0506                     l1541:
  3147                           
  3148                           ;mcc_generated_files/tmr0.c: 72:     TMR0 = 0x06;
  3149     0506  3006               	movlw	6
  3150     0507  0020               	movlb	0	; select bank0
  3151     0508  0095               	movwf	21	;volatile
  3152     0509                     l1543:
  3153                           
  3154                           ;mcc_generated_files/tmr0.c: 75:     timer0ReloadVal= 6;
  3155     0509  3006               	movlw	6
  3156     050A  00F6               	movwf	_timer0ReloadVal	;volatile
  3157     050B                     l1545:
  3158                           
  3159                           ;mcc_generated_files/tmr0.c: 78:     INTCONbits.TMR0IF = 0;
  3160     050B  110B               	bcf	11,2	;volatile
  3161     050C                     l1547:
  3162                           
  3163                           ;mcc_generated_files/tmr0.c: 81:     INTCONbits.TMR0IE = 1;
  3164     050C  168B               	bsf	11,5	;volatile
  3165     050D                     l144:
  3166     050D  0008               	return
  3167     050E                     __end_of_TMR0_Initialize:
  3168                           
  3169                           	psect	text18
  3170     0457                     __ptext18:	
  3171 ;; *************** function _PIN_MANAGER_Initialize *****************
  3172 ;; Defined at:
  3173 ;;		line 55 in file "mcc_generated_files/pin_manager.c"
  3174 ;; Parameters:    Size  Location     Type
  3175 ;;		None
  3176 ;; Auto vars:     Size  Location     Type
  3177 ;;		None
  3178 ;; Return value:  Size  Location     Type
  3179 ;;                  1    wreg      void 
  3180 ;; Registers used:
  3181 ;;		wreg, status,2
  3182 ;; Tracked objects:
  3183 ;;		On entry : 0/0
  3184 ;;		On exit  : 0/0
  3185 ;;		Unchanged: 0/0
  3186 ;; Data sizes:     COMMON   BANK0   BANK1   BANK2   BANK3   BANK4   BANK5   BANK6
  3187 ;;      Params:         0       0       0       0       0       0       0       0
  3188 ;;      Locals:         0       0       0       0       0       0       0       0
  3189 ;;      Temps:          0       0       0       0       0       0       0       0
  3190 ;;      Totals:         0       0       0       0       0       0       0       0
  3191 ;;Total ram usage:        0 bytes
  3192 ;; Hardware stack levels used: 1
  3193 ;; Hardware stack levels required when called: 3
  3194 ;; This function calls:
  3195 ;;		Nothing
  3196 ;; This function is called by:
  3197 ;;		_SYSTEM_Initialize
  3198 ;; This function uses a non-reentrant model
  3199 ;;
  3200                           
  3201     0457                     _PIN_MANAGER_Initialize:	
  3202                           ;psect for function _PIN_MANAGER_Initialize
  3203                           
  3204     0457                     l1491:	
  3205                           ;incstack = 0
  3206                           ; Regs used in _PIN_MANAGER_Initialize: [wreg+status,2]
  3207                           
  3208                           
  3209                           ;mcc_generated_files/pin_manager.c: 60:     LATE = 0x00;
  3210     0457  0022               	movlb	2	; select bank2
  3211     0458  0190               	clrf	16	;volatile
  3212                           
  3213                           ;mcc_generated_files/pin_manager.c: 61:     LATA = 0x00;
  3214     0459  018C               	clrf	12	;volatile
  3215                           
  3216                           ;mcc_generated_files/pin_manager.c: 62:     LATB = 0x00;
  3217     045A  018D               	clrf	13	;volatile
  3218                           
  3219                           ;mcc_generated_files/pin_manager.c: 63:     LATC = 0x00;
  3220     045B  018E               	clrf	14	;volatile
  3221     045C                     l1493:
  3222                           
  3223                           ;mcc_generated_files/pin_manager.c: 68:     TRISE = 0x08;
  3224     045C  3008               	movlw	8
  3225     045D  0021               	movlb	1	; select bank1
  3226     045E  0090               	movwf	16	;volatile
  3227     045F                     l1495:
  3228                           
  3229                           ;mcc_generated_files/pin_manager.c: 69:     TRISA = 0x00;
  3230     045F  018C               	clrf	12	;volatile
  3231                           
  3232                           ;mcc_generated_files/pin_manager.c: 70:     TRISB = 0xFF;
  3233     0460  30FF               	movlw	255
  3234     0461  008D               	movwf	13	;volatile
  3235                           
  3236                           ;mcc_generated_files/pin_manager.c: 71:     TRISC = 0xE0;
  3237     0462  30E0               	movlw	224
  3238     0463  008E               	movwf	14	;volatile
  3239     0464                     l1497:
  3240                           
  3241                           ;mcc_generated_files/pin_manager.c: 76:     ANSELB = 0x00;
  3242     0464  0023               	movlb	3	; select bank3
  3243     0465  018D               	clrf	13	;volatile
  3244     0466                     l1499:
  3245                           
  3246                           ;mcc_generated_files/pin_manager.c: 77:     ANSELA = 0x00;
  3247     0466  018C               	clrf	12	;volatile
  3248     0467                     l1501:
  3249                           
  3250                           ;mcc_generated_files/pin_manager.c: 82:     WPUE = 0x00;
  3251     0467  0024               	movlb	4	; select bank4
  3252     0468  0190               	clrf	16	;volatile
  3253     0469                     l1503:
  3254                           
  3255                           ;mcc_generated_files/pin_manager.c: 83:     WPUB = 0x00;
  3256     0469  018D               	clrf	13	;volatile
  3257     046A                     l1505:
  3258                           
  3259                           ;mcc_generated_files/pin_manager.c: 84:     OPTION_REGbits.nWPUEN = 1;
  3260     046A  0021               	movlb	1	; select bank1
  3261     046B  1795               	bsf	21,7	;volatile
  3262     046C                     l1507:
  3263                           
  3264                           ;mcc_generated_files/pin_manager.c: 90:     APFCON = 0x00;
  3265     046C  0022               	movlb	2	; select bank2
  3266     046D  019D               	clrf	29	;volatile
  3267     046E                     l65:
  3268     046E  0008               	return
  3269     046F                     __end_of_PIN_MANAGER_Initialize:
  3270                           
  3271                           	psect	text19
  3272     0527                     __ptext19:	
  3273 ;; *************** function _OSCILLATOR_Initialize *****************
  3274 ;; Defined at:
  3275 ;;		line 61 in file "mcc_generated_files/mcc.c"
  3276 ;; Parameters:    Size  Location     Type
  3277 ;;		None
  3278 ;; Auto vars:     Size  Location     Type
  3279 ;;		None
  3280 ;; Return value:  Size  Location     Type
  3281 ;;                  1    wreg      void 
  3282 ;; Registers used:
  3283 ;;		wreg, status,2
  3284 ;; Tracked objects:
  3285 ;;		On entry : 0/0
  3286 ;;		On exit  : 0/0
  3287 ;;		Unchanged: 0/0
  3288 ;; Data sizes:     COMMON   BANK0   BANK1   BANK2   BANK3   BANK4   BANK5   BANK6
  3289 ;;      Params:         0       0       0       0       0       0       0       0
  3290 ;;      Locals:         0       0       0       0       0       0       0       0
  3291 ;;      Temps:          0       0       0       0       0       0       0       0
  3292 ;;      Totals:         0       0       0       0       0       0       0       0
  3293 ;;Total ram usage:        0 bytes
  3294 ;; Hardware stack levels used: 1
  3295 ;; Hardware stack levels required when called: 3
  3296 ;; This function calls:
  3297 ;;		Nothing
  3298 ;; This function is called by:
  3299 ;;		_SYSTEM_Initialize
  3300 ;; This function uses a non-reentrant model
  3301 ;;
  3302                           
  3303     0527                     _OSCILLATOR_Initialize:	
  3304                           ;psect for function _OSCILLATOR_Initialize
  3305                           
  3306     0527                     l1509:	
  3307                           ;incstack = 0
  3308                           ; Regs used in _OSCILLATOR_Initialize: [wreg+status,2]
  3309                           
  3310                           
  3311                           ;mcc_generated_files/mcc.c: 64:     OSCCON = 0x70;
  3312     0527  3070               	movlw	112
  3313     0528  0021               	movlb	1	; select bank1
  3314     0529  0099               	movwf	25	;volatile
  3315     052A                     l1511:
  3316                           
  3317                           ;mcc_generated_files/mcc.c: 66:     OSCTUNE = 0x00;
  3318     052A  0198               	clrf	24	;volatile
  3319     052B                     l1513:
  3320                           
  3321                           ;mcc_generated_files/mcc.c: 68:     BORCON = 0x00;
  3322     052B  0022               	movlb	2	; select bank2
  3323     052C  0196               	clrf	22	;volatile
  3324     052D                     l28:	
  3325                           ;mcc_generated_files/mcc.c: 71:     {;mcc_generated_files/mcc.c: 72:     }
  3326                           
  3327                           
  3328                           ;mcc_generated_files/mcc.c: 70:     while(PLLR == 0)
  3329     052D  0021               	movlb	1	; select bank1
  3330     052E  1F1A               	btfss	26,6	;volatile
  3331     052F  2D31               	goto	u351
  3332     0530  2D32               	goto	u350
  3333     0531                     u351:
  3334     0531  2D2D               	goto	l28
  3335     0532                     u350:
  3336     0532                     l31:
  3337     0532  0008               	return
  3338     0533                     __end_of_OSCILLATOR_Initialize:
  3339                           
  3340                           	psect	text20
  3341     050E                     __ptext20:	
  3342 ;; *************** function _EPWM1_Initialize *****************
  3343 ;; Defined at:
  3344 ;;		line 64 in file "mcc_generated_files/epwm1.c"
  3345 ;; Parameters:    Size  Location     Type
  3346 ;;		None
  3347 ;; Auto vars:     Size  Location     Type
  3348 ;;		None
  3349 ;; Return value:  Size  Location     Type
  3350 ;;                  1    wreg      void 
  3351 ;; Registers used:
  3352 ;;		wreg, status,2, status,0
  3353 ;; Tracked objects:
  3354 ;;		On entry : 0/0
  3355 ;;		On exit  : 0/0
  3356 ;;		Unchanged: 0/0
  3357 ;; Data sizes:     COMMON   BANK0   BANK1   BANK2   BANK3   BANK4   BANK5   BANK6
  3358 ;;      Params:         0       0       0       0       0       0       0       0
  3359 ;;      Locals:         0       0       0       0       0       0       0       0
  3360 ;;      Temps:          0       0       0       0       0       0       0       0
  3361 ;;      Totals:         0       0       0       0       0       0       0       0
  3362 ;;Total ram usage:        0 bytes
  3363 ;; Hardware stack levels used: 1
  3364 ;; Hardware stack levels required when called: 3
  3365 ;; This function calls:
  3366 ;;		Nothing
  3367 ;; This function is called by:
  3368 ;;		_SYSTEM_Initialize
  3369 ;; This function uses a non-reentrant model
  3370 ;;
  3371                           
  3372     050E                     _EPWM1_Initialize:	
  3373                           ;psect for function _EPWM1_Initialize
  3374                           
  3375     050E                     l1517:	
  3376                           ;incstack = 0
  3377                           ; Regs used in _EPWM1_Initialize: [wreg+status,2+status,0]
  3378                           
  3379                           
  3380                           ;mcc_generated_files/epwm1.c: 69:  CCP1CON = 0x0C;
  3381     050E  300C               	movlw	12
  3382     050F  0025               	movlb	5	; select bank5
  3383     0510  0093               	movwf	19	;volatile
  3384     0511                     l1519:
  3385                           
  3386                           ;mcc_generated_files/epwm1.c: 72:  ECCP1AS = 0x00;
  3387     0511  0195               	clrf	21	;volatile
  3388     0512                     l1521:
  3389                           
  3390                           ;mcc_generated_files/epwm1.c: 75:  PWM1CON = 0x80;
  3391     0512  3080               	movlw	128
  3392     0513  0094               	movwf	20	;volatile
  3393     0514                     l1523:
  3394                           
  3395                           ;mcc_generated_files/epwm1.c: 78:  PSTR1CON = 0x01;
  3396     0514  3001               	movlw	1
  3397     0515  0096               	movwf	22	;volatile
  3398     0516                     l1525:
  3399                           
  3400                           ;mcc_generated_files/epwm1.c: 81:  CCPR1H = 0x00;
  3401     0516  0192               	clrf	18	;volatile
  3402     0517                     l1527:
  3403                           
  3404                           ;mcc_generated_files/epwm1.c: 84:  CCPR1L = 0x00;
  3405     0517  0191               	clrf	17	;volatile
  3406     0518                     l1529:
  3407                           
  3408                           ;mcc_generated_files/epwm1.c: 87:  CCPTMRS0bits.C1TSEL = 0x0;
  3409     0518  30FC               	movlw	-4
  3410     0519  059E               	andwf	30,f	;volatile
  3411     051A                     l85:
  3412     051A  0008               	return
  3413     051B                     __end_of_EPWM1_Initialize:
  3414                           
  3415                           	psect	text21
  3416     0155                     __ptext21:	
  3417 ;; *************** function _LED_main *****************
  3418 ;; Defined at:
  3419 ;;		line 575 in file "D:/yiming/00work/TY1500_U3_V06.X/LED.c"
  3420 ;; Parameters:    Size  Location     Type
  3421 ;;		None
  3422 ;; Auto vars:     Size  Location     Type
  3423 ;;		None
  3424 ;; Return value:  Size  Location     Type
  3425 ;;                  1    wreg      void 
  3426 ;; Registers used:
  3427 ;;		wreg, fsr0l, fsr0h, status,2, status,0, pclath, cstack
  3428 ;; Tracked objects:
  3429 ;;		On entry : 0/0
  3430 ;;		On exit  : 0/0
  3431 ;;		Unchanged: 0/0
  3432 ;; Data sizes:     COMMON   BANK0   BANK1   BANK2   BANK3   BANK4   BANK5   BANK6
  3433 ;;      Params:         0       0       0       0       0       0       0       0
  3434 ;;      Locals:         0       0       0       0       0       0       0       0
  3435 ;;      Temps:          0       0       0       0       0       0       0       0
  3436 ;;      Totals:         0       0       0       0       0       0       0       0
  3437 ;;Total ram usage:        0 bytes
  3438 ;; Hardware stack levels used: 1
  3439 ;; Hardware stack levels required when called: 7
  3440 ;; This function calls:
  3441 ;;		_DRL_on
  3442 ;;		_POS_on
  3443 ;;		_all_led_off
  3444 ;;		_check_POS_P2
  3445 ;;		_check_test_mode
  3446 ;;		_check_welcome_light
  3447 ;;		_check_welcome_signal
  3448 ;;		_debounce_IO
  3449 ;;		_turn_on_turn_signals
  3450 ;;		_turn_signals_state_update
  3451 ;; This function is called by:
  3452 ;;		_main
  3453 ;; This function uses a non-reentrant model
  3454 ;;
  3455                           
  3456     0155                     _LED_main:	
  3457                           ;psect for function _LED_main
  3458                           
  3459     0155                     l2639:	
  3460                           ;incstack = 0
  3461                           ; Regs used in _LED_main: [wreg-fsr0h+status,2+status,0+pclath+cstack]
  3462                           
  3463                           
  3464                           ;D:/yiming/00work/TY1500_U3_V06.X/LED.c: 577:   if (f1ms) {
  3465     0155  0874               	movf	_f1ms,w
  3466     0156  1903               	btfsc	3,2
  3467     0157  2959               	goto	u1381
  3468     0158  295A               	goto	u1380
  3469     0159                     u1381:
  3470     0159  296A               	goto	l2653
  3471     015A                     u1380:
  3472     015A                     l2641:
  3473                           
  3474                           ;D:/yiming/00work/TY1500_U3_V06.X/LED.c: 578:     f1ms = 0;
  3475     015A  01F4               	clrf	_f1ms
  3476     015B                     l2643:
  3477                           
  3478                           ;D:/yiming/00work/TY1500_U3_V06.X/LED.c: 579:     debounce_IO();
  3479     015B  3181  21AA  3181   	fcall	_debounce_IO
  3480     015E                     l2645:
  3481                           
  3482                           ;D:/yiming/00work/TY1500_U3_V06.X/LED.c: 580:     turn_signals_state_update();
  3483     015E  3181  21EE  3181   	fcall	_turn_signals_state_update
  3484     0161                     l2647:
  3485                           
  3486                           ;D:/yiming/00work/TY1500_U3_V06.X/LED.c: 581:     check_welcome_signal();
  3487     0161  3184  24F2  3181   	fcall	_check_welcome_signal
  3488     0164                     l2649:
  3489                           
  3490                           ;D:/yiming/00work/TY1500_U3_V06.X/LED.c: 582:     check_test_mode();
  3491     0164  3184  24C2  3181   	fcall	_check_test_mode
  3492     0167                     l2651:
  3493                           
  3494                           ;D:/yiming/00work/TY1500_U3_V06.X/LED.c: 583:     check_POS_P2();
  3495     0167  3185  2533  3181   	fcall	_check_POS_P2
  3496     016A                     l2653:
  3497                           
  3498                           ;D:/yiming/00work/TY1500_U3_V06.X/LED.c: 587:   if (!fWelcome_light_disable && !ORB.TURN
      +                          ) {
  3499     016A  0020               	movlb	0	; select bank0
  3500     016B  082E               	movf	_fWelcome_light_disable,w
  3501     016C  1D03               	btfss	3,2
  3502     016D  296F               	goto	u1391
  3503     016E  2970               	goto	u1390
  3504     016F                     u1391:
  3505     016F  297D               	goto	l2661
  3506     0170                     u1390:
  3507     0170                     l2655:
  3508     0170  1875               	btfsc	_ORB,0
  3509     0171  2973               	goto	u1401
  3510     0172  2974               	goto	u1400
  3511     0173                     u1401:
  3512     0173  297D               	goto	l2661
  3513     0174                     u1400:
  3514     0174                     l2657:
  3515                           
  3516                           ;D:/yiming/00work/TY1500_U3_V06.X/LED.c: 588:     if (fWelcome_light) {
  3517     0174  0872               	movf	_fWelcome_light,w
  3518     0175  1903               	btfsc	3,2
  3519     0176  2978               	goto	u1411
  3520     0177  2979               	goto	u1410
  3521     0178                     u1411:
  3522     0178  297F               	goto	l2663
  3523     0179                     u1410:
  3524     0179                     l2659:
  3525                           
  3526                           ;D:/yiming/00work/TY1500_U3_V06.X/LED.c: 589:         check_welcome_light();
  3527     0179  3180  2030  3181   	fcall	_check_welcome_light
  3528     017C  297F               	goto	l2663
  3529     017D                     l2661:
  3530                           
  3531                           ;D:/yiming/00work/TY1500_U3_V06.X/LED.c: 592:     eWelcome_step = WELCOME_STEP_0;
  3532     017D  01F3               	clrf	_eWelcome_step
  3533                           
  3534                           ;D:/yiming/00work/TY1500_U3_V06.X/LED.c: 593:     fWelcome_light=0;
  3535     017E  01F2               	clrf	_fWelcome_light
  3536     017F                     l2663:
  3537                           
  3538                           ;D:/yiming/00work/TY1500_U3_V06.X/LED.c: 597:   if (!fturn_light_disable) {
  3539     017F  0020               	movlb	0	; select bank0
  3540     0180  082C               	movf	_fturn_light_disable,w
  3541     0181  1D03               	btfss	3,2
  3542     0182  2984               	goto	u1421
  3543     0183  2985               	goto	u1420
  3544     0184                     u1421:
  3545     0184  2989               	goto	l2667
  3546     0185                     u1420:
  3547     0185                     l2665:
  3548                           
  3549                           ;D:/yiming/00work/TY1500_U3_V06.X/LED.c: 598:     turn_on_turn_signals();
  3550     0185  3180  20F1  3181   	fcall	_turn_on_turn_signals
  3551                           
  3552                           ;D:/yiming/00work/TY1500_U3_V06.X/LED.c: 599:   } else {
  3553     0188  298A               	goto	l2669
  3554     0189                     l2667:
  3555                           
  3556                           ;D:/yiming/00work/TY1500_U3_V06.X/LED.c: 600:     eTurn_step = TURN_STEP_0;
  3557     0189  01AB               	clrf	_eTurn_step
  3558     018A                     l2669:
  3559                           
  3560                           ;D:/yiming/00work/TY1500_U3_V06.X/LED.c: 604:   if (fturn_off_600ms&&!fWelcome_light) {
  3561     018A  0870               	movf	_fturn_off_600ms,w
  3562     018B  1903               	btfsc	3,2
  3563     018C  298E               	goto	u1431
  3564     018D  298F               	goto	u1430
  3565     018E                     u1431:
  3566     018E  29A9               	goto	l533
  3567     018F                     u1430:
  3568     018F                     l2671:
  3569     018F  0872               	movf	_fWelcome_light,w
  3570     0190  1D03               	btfss	3,2
  3571     0191  2993               	goto	u1441
  3572     0192  2994               	goto	u1440
  3573     0193                     u1441:
  3574     0193  29A9               	goto	l533
  3575     0194                     u1440:
  3576     0194                     l2673:
  3577                           
  3578                           ;D:/yiming/00work/TY1500_U3_V06.X/LED.c: 605:     if (ORB.DRL) {
  3579     0194  1CF5               	btfss	_ORB,1
  3580     0195  2997               	goto	u1451
  3581     0196  2998               	goto	u1450
  3582     0197                     u1451:
  3583     0197  299C               	goto	l529
  3584     0198                     u1450:
  3585     0198                     l2675:
  3586                           
  3587                           ;D:/yiming/00work/TY1500_U3_V06.X/LED.c: 606:       DRL_on();
  3588     0198  3184  243D  3181   	fcall	_DRL_on
  3589                           
  3590                           ;D:/yiming/00work/TY1500_U3_V06.X/LED.c: 607:     } else if (ORB.POS) {
  3591     019B  29A9               	goto	l533
  3592     019C                     l529:
  3593     019C  1D75               	btfss	_ORB,2
  3594     019D  299F               	goto	u1461
  3595     019E  29A0               	goto	u1460
  3596     019F                     u1461:
  3597     019F  29A4               	goto	l2679
  3598     01A0                     u1460:
  3599     01A0                     l2677:
  3600                           
  3601                           ;D:/yiming/00work/TY1500_U3_V06.X/LED.c: 608:       POS_on();
  3602     01A0  3184  2423  3181   	fcall	_POS_on
  3603                           
  3604                           ;D:/yiming/00work/TY1500_U3_V06.X/LED.c: 609:     } else {
  3605     01A3  29A9               	goto	l533
  3606     01A4                     l2679:
  3607                           
  3608                           ;D:/yiming/00work/TY1500_U3_V06.X/LED.c: 610:       all_led_off();
  3609     01A4  3185  253F  3181   	fcall	_all_led_off
  3610     01A7                     l2681:
  3611                           
  3612                           ;D:/yiming/00work/TY1500_U3_V06.X/LED.c: 611:       fWelcome_light_disable = 0;
  3613     01A7  0020               	movlb	0	; select bank0
  3614     01A8  01AE               	clrf	_fWelcome_light_disable
  3615     01A9                     l533:
  3616     01A9  0008               	return
  3617     01AA                     __end_of_LED_main:
  3618                           
  3619                           	psect	text22
  3620     01EE                     __ptext22:	
  3621 ;; *************** function _turn_signals_state_update *****************
  3622 ;; Defined at:
  3623 ;;		line 86 in file "D:/yiming/00work/TY1500_U3_V06.X/LED.c"
  3624 ;; Parameters:    Size  Location     Type
  3625 ;;		None
  3626 ;; Auto vars:     Size  Location     Type
  3627 ;;		None
  3628 ;; Return value:  Size  Location     Type
  3629 ;;                  1    wreg      void 
  3630 ;; Registers used:
  3631 ;;		wreg, status,2, status,0, pclath, cstack
  3632 ;; Tracked objects:
  3633 ;;		On entry : 0/0
  3634 ;;		On exit  : 0/0
  3635 ;;		Unchanged: 0/0
  3636 ;; Data sizes:     COMMON   BANK0   BANK1   BANK2   BANK3   BANK4   BANK5   BANK6
  3637 ;;      Params:         0       0       0       0       0       0       0       0
  3638 ;;      Locals:         0       0       0       0       0       0       0       0
  3639 ;;      Temps:          1       0       0       0       0       0       0       0
  3640 ;;      Totals:         1       0       0       0       0       0       0       0
  3641 ;;Total ram usage:        1 bytes
  3642 ;; Hardware stack levels used: 1
  3643 ;; Hardware stack levels required when called: 6
  3644 ;; This function calls:
  3645 ;;		_all_led_off
  3646 ;; This function is called by:
  3647 ;;		_LED_main
  3648 ;; This function uses a non-reentrant model
  3649 ;;
  3650                           
  3651     01EE                     _turn_signals_state_update:	
  3652                           ;psect for function _turn_signals_state_update
  3653                           
  3654     01EE                     l2379:	
  3655                           ;incstack = 0
  3656                           ; Regs used in _turn_signals_state_update: [wreg+status,2+status,0+pclath+cstack]
  3657                           
  3658                           
  3659                           ;D:/yiming/00work/TY1500_U3_V06.X/LED.c: 87:   if (ORB.TURN) {
  3660     01EE  1C75               	btfss	_ORB,0
  3661     01EF  29F1               	goto	u1171
  3662     01F0  29F2               	goto	u1170
  3663     01F1                     u1171:
  3664     01F1  29F8               	goto	l2385
  3665     01F2                     u1170:
  3666     01F2                     l2381:
  3667                           
  3668                           ;D:/yiming/00work/TY1500_U3_V06.X/LED.c: 88:     fturn_state = 1;
  3669     01F2  0020               	movlb	0	; select bank0
  3670     01F3  01AD               	clrf	_fturn_state
  3671     01F4  0AAD               	incf	_fturn_state,f
  3672     01F5                     l2383:
  3673                           
  3674                           ;D:/yiming/00work/TY1500_U3_V06.X/LED.c: 89:     fturn_off_600ms = 0;
  3675     01F5  01F0               	clrf	_fturn_off_600ms
  3676                           
  3677                           ;D:/yiming/00work/TY1500_U3_V06.X/LED.c: 90:     fturn_light_disable = 0;
  3678     01F6  01AC               	clrf	_fturn_light_disable
  3679                           
  3680                           ;D:/yiming/00work/TY1500_U3_V06.X/LED.c: 91:   } else {
  3681     01F7  2A22               	goto	l299
  3682     01F8                     l2385:
  3683                           
  3684                           ;D:/yiming/00work/TY1500_U3_V06.X/LED.c: 93:     if (fturn_state) {
  3685     01F8  0020               	movlb	0	; select bank0
  3686     01F9  082D               	movf	_fturn_state,w
  3687     01FA  1903               	btfsc	3,2
  3688     01FB  29FD               	goto	u1181
  3689     01FC  29FE               	goto	u1180
  3690     01FD                     u1181:
  3691     01FD  2A0F               	goto	l2395
  3692     01FE                     u1180:
  3693     01FE                     l2387:
  3694                           
  3695                           ;D:/yiming/00work/TY1500_U3_V06.X/LED.c: 94:       all_led_off();
  3696     01FE  3185  253F  3181   	fcall	_all_led_off
  3697     0201                     l2389:
  3698                           
  3699                           ;D:/yiming/00work/TY1500_U3_V06.X/LED.c: 95:       turn_off_cnt = 0;
  3700     0201  0020               	movlb	0	; select bank0
  3701     0202  01A4               	clrf	_turn_off_cnt
  3702     0203  01A5               	clrf	_turn_off_cnt+1
  3703     0204                     l2391:
  3704                           
  3705                           ;D:/yiming/00work/TY1500_U3_V06.X/LED.c: 96:       if (turn_fall_edge_cnt < 250) {
  3706     0204  30FA               	movlw	250
  3707     0205  0271               	subwf	_turn_fall_edge_cnt,w
  3708     0206  1803               	skipnc
  3709     0207  2A09               	goto	u1191
  3710     0208  2A0A               	goto	u1190
  3711     0209                     u1191:
  3712     0209  2A1F               	goto	l2399
  3713     020A                     u1190:
  3714     020A                     l2393:
  3715                           
  3716                           ;D:/yiming/00work/TY1500_U3_V06.X/LED.c: 97:         turn_fall_edge_cnt++;
  3717     020A  3001               	movlw	1
  3718     020B  00FB               	movwf	??_turn_signals_state_update
  3719     020C  087B               	movf	??_turn_signals_state_update,w
  3720     020D  07F1               	addwf	_turn_fall_edge_cnt,f
  3721     020E  2A1F               	goto	l2399
  3722     020F                     l2395:
  3723                           
  3724                           ;D:/yiming/00work/TY1500_U3_V06.X/LED.c: 100:       if (turn_off_cnt < 600) {
  3725     020F  3002               	movlw	2
  3726     0210  0225               	subwf	_turn_off_cnt+1,w
  3727     0211  3058               	movlw	88
  3728     0212  1903               	skipnz
  3729     0213  0224               	subwf	_turn_off_cnt,w
  3730     0214  1803               	skipnc
  3731     0215  2A17               	goto	u1201
  3732     0216  2A18               	goto	u1200
  3733     0217                     u1201:
  3734     0217  2A1D               	goto	l297
  3735     0218                     u1200:
  3736     0218                     l2397:
  3737                           
  3738                           ;D:/yiming/00work/TY1500_U3_V06.X/LED.c: 101:         turn_off_cnt++;
  3739     0218  3001               	movlw	1
  3740     0219  07A4               	addwf	_turn_off_cnt,f
  3741     021A  3000               	movlw	0
  3742     021B  3DA5               	addwfc	_turn_off_cnt+1,f
  3743                           
  3744                           ;D:/yiming/00work/TY1500_U3_V06.X/LED.c: 102:       } else {
  3745     021C  2A1F               	goto	l2399
  3746     021D                     l297:
  3747                           
  3748                           ;D:/yiming/00work/TY1500_U3_V06.X/LED.c: 103:         fturn_off_600ms = 1;
  3749     021D  01F0               	clrf	_fturn_off_600ms
  3750     021E  0AF0               	incf	_fturn_off_600ms,f
  3751     021F                     l2399:
  3752                           
  3753                           ;D:/yiming/00work/TY1500_U3_V06.X/LED.c: 106:     fturn_state = 0;
  3754     021F  01AD               	clrf	_fturn_state
  3755     0220                     l2401:
  3756                           
  3757                           ;D:/yiming/00work/TY1500_U3_V06.X/LED.c: 107:     fturn_light_disable = 1;
  3758     0220  01AC               	clrf	_fturn_light_disable
  3759     0221  0AAC               	incf	_fturn_light_disable,f
  3760     0222                     l299:
  3761     0222  0008               	return
  3762     0223                     __end_of_turn_signals_state_update:
  3763                           
  3764                           	psect	text23
  3765     00F1                     __ptext23:	
  3766 ;; *************** function _turn_on_turn_signals *****************
  3767 ;; Defined at:
  3768 ;;		line 413 in file "D:/yiming/00work/TY1500_U3_V06.X/LED.c"
  3769 ;; Parameters:    Size  Location     Type
  3770 ;;		None
  3771 ;; Auto vars:     Size  Location     Type
  3772 ;;		None
  3773 ;; Return value:  Size  Location     Type
  3774 ;;                  1    wreg      void 
  3775 ;; Registers used:
  3776 ;;		wreg, fsr0l, fsr0h, status,2, status,0, pclath, cstack
  3777 ;; Tracked objects:
  3778 ;;		On entry : 0/0
  3779 ;;		On exit  : 0/0
  3780 ;;		Unchanged: 0/0
  3781 ;; Data sizes:     COMMON   BANK0   BANK1   BANK2   BANK3   BANK4   BANK5   BANK6
  3782 ;;      Params:         0       0       0       0       0       0       0       0
  3783 ;;      Locals:         0       0       0       0       0       0       0       0
  3784 ;;      Temps:          2       0       0       0       0       0       0       0
  3785 ;;      Totals:         2       0       0       0       0       0       0       0
  3786 ;;Total ram usage:        2 bytes
  3787 ;; Hardware stack levels used: 1
  3788 ;; Hardware stack levels required when called: 6
  3789 ;; This function calls:
  3790 ;;		_all_led_off
  3791 ;; This function is called by:
  3792 ;;		_LED_main
  3793 ;; This function uses a non-reentrant model
  3794 ;;
  3795                           
  3796     00F1                     _turn_on_turn_signals:	
  3797                           ;psect for function _turn_on_turn_signals
  3798                           
  3799     00F1                     l2455:	
  3800                           ;incstack = 0
  3801                           ; Regs used in _turn_on_turn_signals: [wreg-fsr0h+status,2+status,0+pclath+cstack]
  3802                           
  3803                           
  3804                           ;D:/yiming/00work/TY1500_U3_V06.X/LED.c: 415:   switch (eTurn_step) {
  3805     00F1  293A               	goto	l2497
  3806     00F2                     l483:	
  3807                           ;D:/yiming/00work/TY1500_U3_V06.X/LED.c: 417:   case TURN_STEP_0:
  3808                           
  3809                           
  3810                           ;D:/yiming/00work/TY1500_U3_V06.X/LED.c: 418:     if (ORB.TURN) {
  3811     00F2  1C75               	btfss	_ORB,0
  3812     00F3  28F5               	goto	u1291
  3813     00F4  28F6               	goto	u1290
  3814     00F5                     u1291:
  3815     00F5  2954               	goto	l494
  3816     00F6                     u1290:
  3817     00F6                     l2457:
  3818                           
  3819                           ;D:/yiming/00work/TY1500_U3_V06.X/LED.c: 419:       all_led_off();
  3820     00F6  3185  253F  3180   	fcall	_all_led_off
  3821     00F9                     l2459:
  3822                           
  3823                           ;D:/yiming/00work/TY1500_U3_V06.X/LED.c: 420:       eTurn_step++;
  3824     00F9  3001               	movlw	1
  3825     00FA  00FB               	movwf	??_turn_on_turn_signals
  3826     00FB  087B               	movf	??_turn_on_turn_signals,w
  3827     00FC  0020               	movlb	0	; select bank0
  3828     00FD  07AB               	addwf	_eTurn_step,f
  3829     00FE                     l2461:
  3830                           
  3831                           ;D:/yiming/00work/TY1500_U3_V06.X/LED.c: 421:       LATAbits.LATA0 = 1;
  3832     00FE  0022               	movlb	2	; select bank2
  3833     00FF  140C               	bsf	12,0	;volatile
  3834     0100                     l2463:
  3835                           
  3836                           ;D:/yiming/00work/TY1500_U3_V06.X/LED.c: 422:       LATAbits.LATA1 = 1;
  3837     0100  148C               	bsf	12,1	;volatile
  3838     0101                     l2465:
  3839                           
  3840                           ;D:/yiming/00work/TY1500_U3_V06.X/LED.c: 423:       LATAbits.LATA5 = 1;
  3841     0101  168C               	bsf	12,5	;volatile
  3842     0102                     l2467:
  3843                           
  3844                           ;D:/yiming/00work/TY1500_U3_V06.X/LED.c: 424:       turn_1ms_cnt = 0;
  3845     0102  0020               	movlb	0	; select bank0
  3846     0103  01A6               	clrf	_turn_1ms_cnt
  3847     0104  01A7               	clrf	_turn_1ms_cnt+1
  3848     0105  2954               	goto	l494
  3849     0106                     l2469:
  3850                           
  3851                           ;D:/yiming/00work/TY1500_U3_V06.X/LED.c: 429:     if (turn_1ms_cnt >= tDelay_ms) {
  3852     0106  0830               	movf	_tDelay_ms+1,w
  3853     0107  0227               	subwf	_turn_1ms_cnt+1,w
  3854     0108  1D03               	skipz
  3855     0109  290C               	goto	u1305
  3856     010A  082F               	movf	_tDelay_ms,w
  3857     010B  0226               	subwf	_turn_1ms_cnt,w
  3858     010C                     u1305:
  3859     010C  1C03               	skipc
  3860     010D  290F               	goto	u1301
  3861     010E  2910               	goto	u1300
  3862     010F                     u1301:
  3863     010F  2954               	goto	l494
  3864     0110                     u1300:
  3865     0110                     l2471:
  3866                           
  3867                           ;D:/yiming/00work/TY1500_U3_V06.X/LED.c: 430:       LATAbits.LATA2 = 1;
  3868     0110  0022               	movlb	2	; select bank2
  3869     0111  150C               	bsf	12,2	;volatile
  3870                           
  3871                           ;D:/yiming/00work/TY1500_U3_V06.X/LED.c: 431:       LATAbits.LATA3 = 1;
  3872     0112  158C               	bsf	12,3	;volatile
  3873                           
  3874                           ;D:/yiming/00work/TY1500_U3_V06.X/LED.c: 432:       LATAbits.LATA7 = 1;
  3875     0113  178C               	bsf	12,7	;volatile
  3876     0114                     l2473:
  3877                           
  3878                           ;D:/yiming/00work/TY1500_U3_V06.X/LED.c: 433:       eTurn_step++;
  3879     0114  3001               	movlw	1
  3880     0115  00FB               	movwf	??_turn_on_turn_signals
  3881     0116  087B               	movf	??_turn_on_turn_signals,w
  3882     0117  0020               	movlb	0	; select bank0
  3883     0118  07AB               	addwf	_eTurn_step,f
  3884     0119  2902               	goto	l2467
  3885     011A                     l2477:
  3886                           
  3887                           ;D:/yiming/00work/TY1500_U3_V06.X/LED.c: 439:     if (turn_1ms_cnt >= tDelay_ms) {
  3888     011A  0830               	movf	_tDelay_ms+1,w
  3889     011B  0227               	subwf	_turn_1ms_cnt+1,w
  3890     011C  1D03               	skipz
  3891     011D  2920               	goto	u1315
  3892     011E  082F               	movf	_tDelay_ms,w
  3893     011F  0226               	subwf	_turn_1ms_cnt,w
  3894     0120                     u1315:
  3895     0120  1C03               	skipc
  3896     0121  2923               	goto	u1311
  3897     0122  2924               	goto	u1310
  3898     0123                     u1311:
  3899     0123  2954               	goto	l494
  3900     0124                     u1310:
  3901     0124                     l2479:
  3902                           
  3903                           ;D:/yiming/00work/TY1500_U3_V06.X/LED.c: 440:       LATAbits.LATA4 = 1;
  3904     0124  0022               	movlb	2	; select bank2
  3905     0125  160C               	bsf	12,4	;volatile
  3906                           
  3907                           ;D:/yiming/00work/TY1500_U3_V06.X/LED.c: 441:       LATCbits.LATC0 = 1;
  3908     0126  140E               	bsf	14,0	;volatile
  3909                           
  3910                           ;D:/yiming/00work/TY1500_U3_V06.X/LED.c: 442:       LATAbits.LATA6 = 1;
  3911     0127  170C               	bsf	12,6	;volatile
  3912     0128  2914               	goto	l2473
  3913     0129                     l2485:
  3914                           
  3915                           ;D:/yiming/00work/TY1500_U3_V06.X/LED.c: 449:     if (turn_1ms_cnt >= tDelay_ms) {
  3916     0129  0830               	movf	_tDelay_ms+1,w
  3917     012A  0227               	subwf	_turn_1ms_cnt+1,w
  3918     012B  1D03               	skipz
  3919     012C  292F               	goto	u1325
  3920     012D  082F               	movf	_tDelay_ms,w
  3921     012E  0226               	subwf	_turn_1ms_cnt,w
  3922     012F                     u1325:
  3923     012F  1C03               	skipc
  3924     0130  2932               	goto	u1321
  3925     0131  2933               	goto	u1320
  3926     0132                     u1321:
  3927     0132  2954               	goto	l494
  3928     0133                     u1320:
  3929     0133                     l2487:
  3930                           
  3931                           ;D:/yiming/00work/TY1500_U3_V06.X/LED.c: 450:       LATCbits.LATC1 = 1;
  3932     0133  0022               	movlb	2	; select bank2
  3933     0134  148E               	bsf	14,1	;volatile
  3934     0135  2914               	goto	l2473
  3935     0136                     l2493:
  3936                           
  3937                           ;D:/yiming/00work/TY1500_U3_V06.X/LED.c: 461:     eTurn_step = TURN_STEP_0;
  3938     0136  01AB               	clrf	_eTurn_step
  3939                           
  3940                           ;D:/yiming/00work/TY1500_U3_V06.X/LED.c: 462:     turn_1ms_cnt = 0;
  3941     0137  01A6               	clrf	_turn_1ms_cnt
  3942     0138  01A7               	clrf	_turn_1ms_cnt+1
  3943                           
  3944                           ;D:/yiming/00work/TY1500_U3_V06.X/LED.c: 463:     break;
  3945     0139  2954               	goto	l494
  3946     013A                     l2497:
  3947     013A  0020               	movlb	0	; select bank0
  3948     013B  082B               	movf	_eTurn_step,w
  3949     013C  00FB               	movwf	??_turn_on_turn_signals
  3950     013D  01FC               	clrf	??_turn_on_turn_signals+1
  3951                           
  3952                           ; Switch on 2 bytes has been partitioned into a top level switch of size 1, and 1 sub-sw
      +                          itches
  3953                           ; Switch size 1, requested type "simple"
  3954                           ; Number of cases is 1, Range of values is 0 to 0
  3955                           ; switch strategies available:
  3956                           ; Name         Instructions Cycles
  3957                           ; simple_byte            4     3 (average)
  3958                           ; direct_byte            8     6 (fixed)
  3959                           ; jumptable            260     6 (fixed)
  3960                           ;	Chosen strategy is simple_byte
  3961     013E  087C               	movf	??_turn_on_turn_signals+1,w
  3962     013F  3A00               	xorlw	0	; case 0
  3963     0140  1903               	skipnz
  3964     0141  2943               	goto	l2751
  3965     0142  2936               	goto	l2493
  3966     0143                     l2751:
  3967                           
  3968                           ; Switch size 1, requested type "simple"
  3969                           ; Number of cases is 5, Range of values is 0 to 4
  3970                           ; switch strategies available:
  3971                           ; Name         Instructions Cycles
  3972                           ; direct_byte           16     6 (fixed)
  3973                           ; simple_byte           16     9 (average)
  3974                           ; jumptable            260     6 (fixed)
  3975                           ;	Chosen strategy is simple_byte
  3976     0143  087B               	movf	??_turn_on_turn_signals,w
  3977     0144  3A00               	xorlw	0	; case 0
  3978     0145  1903               	skipnz
  3979     0146  28F2               	goto	l483
  3980     0147  3A01               	xorlw	1	; case 1
  3981     0148  1903               	skipnz
  3982     0149  2906               	goto	l2469
  3983     014A  3A03               	xorlw	3	; case 2
  3984     014B  1903               	skipnz
  3985     014C  291A               	goto	l2477
  3986     014D  3A01               	xorlw	1	; case 3
  3987     014E  1903               	skipnz
  3988     014F  2929               	goto	l2485
  3989     0150  3A07               	xorlw	7	; case 4
  3990     0151  1903               	skipnz
  3991     0152  2954               	goto	l494
  3992     0153  2936               	goto	l2493
  3993     0154                     l494:
  3994     0154  0008               	return
  3995     0155                     __end_of_turn_on_turn_signals:
  3996                           
  3997                           	psect	text24
  3998     01AA                     __ptext24:	
  3999 ;; *************** function _debounce_IO *****************
  4000 ;; Defined at:
  4001 ;;		line 57 in file "D:/yiming/00work/TY1500_U3_V06.X/LED.c"
  4002 ;; Parameters:    Size  Location     Type
  4003 ;;		None
  4004 ;; Auto vars:     Size  Location     Type
  4005 ;;  temp            1    0[COMMON] unsigned char 
  4006 ;; Return value:  Size  Location     Type
  4007 ;;                  1    wreg      void 
  4008 ;; Registers used:
  4009 ;;		wreg, status,2, status,0, pclath, cstack
  4010 ;; Tracked objects:
  4011 ;;		On entry : 0/0
  4012 ;;		On exit  : 0/0
  4013 ;;		Unchanged: 0/0
  4014 ;; Data sizes:     COMMON   BANK0   BANK1   BANK2   BANK3   BANK4   BANK5   BANK6
  4015 ;;      Params:         0       0       0       0       0       0       0       0
  4016 ;;      Locals:         1       0       0       0       0       0       0       0
  4017 ;;      Temps:          0       0       0       0       0       0       0       0
  4018 ;;      Totals:         1       0       0       0       0       0       0       0
  4019 ;;Total ram usage:        1 bytes
  4020 ;; Hardware stack levels used: 1
  4021 ;; Hardware stack levels required when called: 4
  4022 ;; This function calls:
  4023 ;;		_is_DRL
  4024 ;;		_is_POS
  4025 ;;		_is_WELCOME
  4026 ;;		_is_test
  4027 ;;		_is_turn_signals
  4028 ;;		_is_white
  4029 ;; This function is called by:
  4030 ;;		_LED_main
  4031 ;; This function uses a non-reentrant model
  4032 ;;
  4033                           
  4034     01AA                     _debounce_IO:	
  4035                           ;psect for function _debounce_IO
  4036                           
  4037     01AA                     l2347:	
  4038                           ;incstack = 0
  4039                           ; Regs used in _debounce_IO: [wreg+status,2+status,0+pclath+cstack]
  4040                           
  4041                           
  4042                           ;D:/yiming/00work/TY1500_U3_V06.X/LED.c: 58:   static sflag TRB = {0};;D:/yiming/00work/
      +                          TY1500_U3_V06.X/LED.c: 59:   uint8_t temp = 0;
  4043     01AA  01F7               	clrf	debounce_IO@temp
  4044     01AB                     l2349:
  4045                           
  4046                           ;D:/yiming/00work/TY1500_U3_V06.X/LED.c: 60:   if (is_turn_signals()) {
  4047     01AB  3185  25B1  3181   	fcall	_is_turn_signals
  4048     01AE  3A00               	xorlw	0
  4049     01AF  1903               	skipnz
  4050     01B0  29B2               	goto	u1101
  4051     01B1  29B3               	goto	u1100
  4052     01B2                     u1101:
  4053     01B2  29B4               	goto	l2353
  4054     01B3                     u1100:
  4055     01B3                     l2351:
  4056                           
  4057                           ;D:/yiming/00work/TY1500_U3_V06.X/LED.c: 61:     temp |= 0x01;;
  4058     01B3  1477               	bsf	debounce_IO@temp,0
  4059     01B4                     l2353:
  4060                           
  4061                           ;D:/yiming/00work/TY1500_U3_V06.X/LED.c: 63:   if (is_DRL()) {
  4062     01B4  3185  25B9  3181   	fcall	_is_DRL
  4063     01B7  3A00               	xorlw	0
  4064     01B8  1903               	skipnz
  4065     01B9  29BB               	goto	u1111
  4066     01BA  29BC               	goto	u1110
  4067     01BB                     u1111:
  4068     01BB  29BD               	goto	l2357
  4069     01BC                     u1110:
  4070     01BC                     l2355:
  4071                           
  4072                           ;D:/yiming/00work/TY1500_U3_V06.X/LED.c: 64:     temp |= (0x01<<1);
  4073     01BC  14F7               	bsf	debounce_IO@temp,1
  4074     01BD                     l2357:
  4075                           
  4076                           ;D:/yiming/00work/TY1500_U3_V06.X/LED.c: 66:   if (is_POS()) {
  4077     01BD  3185  25A4  3181   	fcall	_is_POS
  4078     01C0  3A00               	xorlw	0
  4079     01C1  1903               	skipnz
  4080     01C2  29C4               	goto	u1121
  4081     01C3  29C5               	goto	u1120
  4082     01C4                     u1121:
  4083     01C4  29C6               	goto	l2361
  4084     01C5                     u1120:
  4085     01C5                     l2359:
  4086                           
  4087                           ;D:/yiming/00work/TY1500_U3_V06.X/LED.c: 67:     temp |= (0x01<<2);
  4088     01C5  1577               	bsf	debounce_IO@temp,2
  4089     01C6                     l2361:
  4090                           
  4091                           ;D:/yiming/00work/TY1500_U3_V06.X/LED.c: 69:   if (is_white()) {
  4092     01C6  3185  259A  3181   	fcall	_is_white
  4093     01C9  3A00               	xorlw	0
  4094     01CA  1903               	skipnz
  4095     01CB  29CD               	goto	u1131
  4096     01CC  29CE               	goto	u1130
  4097     01CD                     u1131:
  4098     01CD  29CF               	goto	l2365
  4099     01CE                     u1130:
  4100     01CE                     l2363:
  4101                           
  4102                           ;D:/yiming/00work/TY1500_U3_V06.X/LED.c: 70:     temp |= (0x01<<3);
  4103     01CE  15F7               	bsf	debounce_IO@temp,3
  4104     01CF                     l2365:
  4105                           
  4106                           ;D:/yiming/00work/TY1500_U3_V06.X/LED.c: 72:   if (is_test()) {
  4107     01CF  3185  25B5  3181   	fcall	_is_test
  4108     01D2  3A00               	xorlw	0
  4109     01D3  1903               	skipnz
  4110     01D4  29D6               	goto	u1141
  4111     01D5  29D7               	goto	u1140
  4112     01D6                     u1141:
  4113     01D6  29D8               	goto	l2369
  4114     01D7                     u1140:
  4115     01D7                     l2367:
  4116                           
  4117                           ;D:/yiming/00work/TY1500_U3_V06.X/LED.c: 73:     temp |= (0x01<<4);
  4118     01D7  1677               	bsf	debounce_IO@temp,4
  4119     01D8                     l2369:
  4120                           
  4121                           ;D:/yiming/00work/TY1500_U3_V06.X/LED.c: 75:   if (is_WELCOME()) {
  4122     01D8  3185  259F  3181   	fcall	_is_WELCOME
  4123     01DB  3A00               	xorlw	0
  4124     01DC  1903               	skipnz
  4125     01DD  29DF               	goto	u1151
  4126     01DE  29E0               	goto	u1150
  4127     01DF                     u1151:
  4128     01DF  29E1               	goto	l2373
  4129     01E0                     u1150:
  4130     01E0                     l2371:
  4131                           
  4132                           ;D:/yiming/00work/TY1500_U3_V06.X/LED.c: 76:     temp |= (0x01<<5);
  4133     01E0  16F7               	bsf	debounce_IO@temp,5
  4134     01E1                     l2373:
  4135                           
  4136                           ;D:/yiming/00work/TY1500_U3_V06.X/LED.c: 78:   if (temp ^ TRB.Byte) {
  4137     01E1  0020               	movlb	0	; select bank0
  4138     01E2  082A               	movf	debounce_IO@TRB,w
  4139     01E3  0677               	xorwf	debounce_IO@temp,w
  4140     01E4  1903               	btfsc	3,2
  4141     01E5  29E7               	goto	u1161
  4142     01E6  29E8               	goto	u1160
  4143     01E7                     u1161:
  4144     01E7  29EB               	goto	l2377
  4145     01E8                     u1160:
  4146     01E8                     l2375:
  4147                           
  4148                           ;D:/yiming/00work/TY1500_U3_V06.X/LED.c: 79:     TRB.Byte = temp;
  4149     01E8  0877               	movf	debounce_IO@temp,w
  4150     01E9  00AA               	movwf	debounce_IO@TRB
  4151                           
  4152                           ;D:/yiming/00work/TY1500_U3_V06.X/LED.c: 80:   } else {
  4153     01EA  29ED               	goto	l289
  4154     01EB                     l2377:
  4155                           
  4156                           ;D:/yiming/00work/TY1500_U3_V06.X/LED.c: 81:     ORB.Byte = temp;
  4157     01EB  0877               	movf	debounce_IO@temp,w
  4158     01EC  00F5               	movwf	_ORB
  4159     01ED                     l289:
  4160     01ED  0008               	return
  4161     01EE                     __end_of_debounce_IO:
  4162                           
  4163                           	psect	text25
  4164     059A                     __ptext25:	
  4165 ;; *************** function _is_white *****************
  4166 ;; Defined at:
  4167 ;;		line 185 in file "D:/yiming/00work/TY1500_U3_V06.X/LED.c"
  4168 ;; Parameters:    Size  Location     Type
  4169 ;;		None
  4170 ;; Auto vars:     Size  Location     Type
  4171 ;;		None
  4172 ;; Return value:  Size  Location     Type
  4173 ;;                  1    wreg      _Bool 
  4174 ;; Registers used:
  4175 ;;		wreg, status,2, status,0
  4176 ;; Tracked objects:
  4177 ;;		On entry : 0/0
  4178 ;;		On exit  : 0/0
  4179 ;;		Unchanged: 0/0
  4180 ;; Data sizes:     COMMON   BANK0   BANK1   BANK2   BANK3   BANK4   BANK5   BANK6
  4181 ;;      Params:         0       0       0       0       0       0       0       0
  4182 ;;      Locals:         0       0       0       0       0       0       0       0
  4183 ;;      Temps:          0       0       0       0       0       0       0       0
  4184 ;;      Totals:         0       0       0       0       0       0       0       0
  4185 ;;Total ram usage:        0 bytes
  4186 ;; Hardware stack levels used: 1
  4187 ;; Hardware stack levels required when called: 3
  4188 ;; This function calls:
  4189 ;;		Nothing
  4190 ;; This function is called by:
  4191 ;;		_debounce_IO
  4192 ;; This function uses a non-reentrant model
  4193 ;;
  4194                           
  4195     059A                     _is_white:	
  4196                           ;psect for function _is_white
  4197                           
  4198     059A                     l2029:	
  4199                           ;incstack = 0
  4200                           ; Regs used in _is_white: [wreg+status,2+status,0]
  4201                           
  4202     059A  0020               	movlb	0	; select bank0
  4203     059B  0E0E               	swapf	14,w	;volatile
  4204     059C  0C89               	rrf	9,f
  4205     059D  3901               	andlw	1
  4206     059E                     l358:
  4207     059E  0008               	return
  4208     059F                     __end_of_is_white:
  4209                           
  4210                           	psect	text26
  4211     05B1                     __ptext26:	
  4212 ;; *************** function _is_turn_signals *****************
  4213 ;; Defined at:
  4214 ;;		line 186 in file "D:/yiming/00work/TY1500_U3_V06.X/LED.c"
  4215 ;; Parameters:    Size  Location     Type
  4216 ;;		None
  4217 ;; Auto vars:     Size  Location     Type
  4218 ;;		None
  4219 ;; Return value:  Size  Location     Type
  4220 ;;                  1    wreg      _Bool 
  4221 ;; Registers used:
  4222 ;;		wreg, status,2, status,0
  4223 ;; Tracked objects:
  4224 ;;		On entry : 0/0
  4225 ;;		On exit  : 0/0
  4226 ;;		Unchanged: 0/0
  4227 ;; Data sizes:     COMMON   BANK0   BANK1   BANK2   BANK3   BANK4   BANK5   BANK6
  4228 ;;      Params:         0       0       0       0       0       0       0       0
  4229 ;;      Locals:         0       0       0       0       0       0       0       0
  4230 ;;      Temps:          0       0       0       0       0       0       0       0
  4231 ;;      Totals:         0       0       0       0       0       0       0       0
  4232 ;;Total ram usage:        0 bytes
  4233 ;; Hardware stack levels used: 1
  4234 ;; Hardware stack levels required when called: 3
  4235 ;; This function calls:
  4236 ;;		Nothing
  4237 ;; This function is called by:
  4238 ;;		_debounce_IO
  4239 ;; This function uses a non-reentrant model
  4240 ;;
  4241                           
  4242     05B1                     _is_turn_signals:	
  4243                           ;psect for function _is_turn_signals
  4244                           
  4245     05B1                     l2017:	
  4246                           ;incstack = 0
  4247                           ; Regs used in _is_turn_signals: [wreg+status,2+status,0]
  4248                           
  4249     05B1  0020               	movlb	0	; select bank0
  4250     05B2  0C0D               	rrf	13,w	;volatile
  4251     05B3  3901               	andlw	1
  4252     05B4                     l361:
  4253     05B4  0008               	return
  4254     05B5                     __end_of_is_turn_signals:
  4255                           
  4256                           	psect	text27
  4257     05B5                     __ptext27:	
  4258 ;; *************** function _is_test *****************
  4259 ;; Defined at:
  4260 ;;		line 187 in file "D:/yiming/00work/TY1500_U3_V06.X/LED.c"
  4261 ;; Parameters:    Size  Location     Type
  4262 ;;		None
  4263 ;; Auto vars:     Size  Location     Type
  4264 ;;		None
  4265 ;; Return value:  Size  Location     Type
  4266 ;;                  1    wreg      _Bool 
  4267 ;; Registers used:
  4268 ;;		wreg, status,2, status,0
  4269 ;; Tracked objects:
  4270 ;;		On entry : 0/0
  4271 ;;		On exit  : 0/0
  4272 ;;		Unchanged: 0/0
  4273 ;; Data sizes:     COMMON   BANK0   BANK1   BANK2   BANK3   BANK4   BANK5   BANK6
  4274 ;;      Params:         0       0       0       0       0       0       0       0
  4275 ;;      Locals:         0       0       0       0       0       0       0       0
  4276 ;;      Temps:          0       0       0       0       0       0       0       0
  4277 ;;      Totals:         0       0       0       0       0       0       0       0
  4278 ;;Total ram usage:        0 bytes
  4279 ;; Hardware stack levels used: 1
  4280 ;; Hardware stack levels required when called: 3
  4281 ;; This function calls:
  4282 ;;		Nothing
  4283 ;; This function is called by:
  4284 ;;		_debounce_IO
  4285 ;; This function uses a non-reentrant model
  4286 ;;
  4287                           
  4288     05B5                     _is_test:	
  4289                           ;psect for function _is_test
  4290                           
  4291     05B5                     l2033:	
  4292                           ;incstack = 0
  4293                           ; Regs used in _is_test: [wreg+status,2+status,0]
  4294                           
  4295     05B5  0020               	movlb	0	; select bank0
  4296     05B6  080D               	movf	13,w	;volatile
  4297     05B7  3901               	andlw	1
  4298     05B8                     l364:
  4299     05B8  0008               	return
  4300     05B9                     __end_of_is_test:
  4301                           
  4302                           	psect	text28
  4303     059F                     __ptext28:	
  4304 ;; *************** function _is_WELCOME *****************
  4305 ;; Defined at:
  4306 ;;		line 190 in file "D:/yiming/00work/TY1500_U3_V06.X/LED.c"
  4307 ;; Parameters:    Size  Location     Type
  4308 ;;		None
  4309 ;; Auto vars:     Size  Location     Type
  4310 ;;		None
  4311 ;; Return value:  Size  Location     Type
  4312 ;;                  1    wreg      _Bool 
  4313 ;; Registers used:
  4314 ;;		wreg, status,2, status,0
  4315 ;; Tracked objects:
  4316 ;;		On entry : 0/0
  4317 ;;		On exit  : 0/0
  4318 ;;		Unchanged: 0/0
  4319 ;; Data sizes:     COMMON   BANK0   BANK1   BANK2   BANK3   BANK4   BANK5   BANK6
  4320 ;;      Params:         0       0       0       0       0       0       0       0
  4321 ;;      Locals:         0       0       0       0       0       0       0       0
  4322 ;;      Temps:          0       0       0       0       0       0       0       0
  4323 ;;      Totals:         0       0       0       0       0       0       0       0
  4324 ;;Total ram usage:        0 bytes
  4325 ;; Hardware stack levels used: 1
  4326 ;; Hardware stack levels required when called: 3
  4327 ;; This function calls:
  4328 ;;		Nothing
  4329 ;; This function is called by:
  4330 ;;		_debounce_IO
  4331 ;; This function uses a non-reentrant model
  4332 ;;
  4333                           
  4334     059F                     _is_WELCOME:	
  4335                           ;psect for function _is_WELCOME
  4336                           
  4337     059F                     l2037:	
  4338                           ;incstack = 0
  4339                           ; Regs used in _is_WELCOME: [wreg+status,2+status,0]
  4340                           
  4341     059F  0020               	movlb	0	; select bank0
  4342     05A0  0C0D               	rrf	13,w	;volatile
  4343     05A1  0C89               	rrf	9,f
  4344     05A2  3901               	andlw	1
  4345     05A3                     l373:
  4346     05A3  0008               	return
  4347     05A4                     __end_of_is_WELCOME:
  4348                           
  4349                           	psect	text29
  4350     05A4                     __ptext29:	
  4351 ;; *************** function _is_POS *****************
  4352 ;; Defined at:
  4353 ;;		line 189 in file "D:/yiming/00work/TY1500_U3_V06.X/LED.c"
  4354 ;; Parameters:    Size  Location     Type
  4355 ;;		None
  4356 ;; Auto vars:     Size  Location     Type
  4357 ;;		None
  4358 ;; Return value:  Size  Location     Type
  4359 ;;                  1    wreg      _Bool 
  4360 ;; Registers used:
  4361 ;;		wreg, status,2, status,0
  4362 ;; Tracked objects:
  4363 ;;		On entry : 0/0
  4364 ;;		On exit  : 0/0
  4365 ;;		Unchanged: 0/0
  4366 ;; Data sizes:     COMMON   BANK0   BANK1   BANK2   BANK3   BANK4   BANK5   BANK6
  4367 ;;      Params:         0       0       0       0       0       0       0       0
  4368 ;;      Locals:         0       0       0       0       0       0       0       0
  4369 ;;      Temps:          0       0       0       0       0       0       0       0
  4370 ;;      Totals:         0       0       0       0       0       0       0       0
  4371 ;;Total ram usage:        0 bytes
  4372 ;; Hardware stack levels used: 1
  4373 ;; Hardware stack levels required when called: 3
  4374 ;; This function calls:
  4375 ;;		Nothing
  4376 ;; This function is called by:
  4377 ;;		_debounce_IO
  4378 ;; This function uses a non-reentrant model
  4379 ;;
  4380                           
  4381     05A4                     _is_POS:	
  4382                           ;psect for function _is_POS
  4383                           
  4384     05A4                     l2025:	
  4385                           ;incstack = 0
  4386                           ; Regs used in _is_POS: [wreg+status,2+status,0]
  4387                           
  4388     05A4  0020               	movlb	0	; select bank0
  4389     05A5  0E0D               	swapf	13,w	;volatile
  4390     05A6  0C89               	rrf	9,f
  4391     05A7  3901               	andlw	1
  4392     05A8                     l370:
  4393     05A8  0008               	return
  4394     05A9                     __end_of_is_POS:
  4395                           
  4396                           	psect	text30
  4397     05B9                     __ptext30:	
  4398 ;; *************** function _is_DRL *****************
  4399 ;; Defined at:
  4400 ;;		line 188 in file "D:/yiming/00work/TY1500_U3_V06.X/LED.c"
  4401 ;; Parameters:    Size  Location     Type
  4402 ;;		None
  4403 ;; Auto vars:     Size  Location     Type
  4404 ;;		None
  4405 ;; Return value:  Size  Location     Type
  4406 ;;                  1    wreg      _Bool 
  4407 ;; Registers used:
  4408 ;;		wreg, status,2, status,0
  4409 ;; Tracked objects:
  4410 ;;		On entry : 0/0
  4411 ;;		On exit  : 0/0
  4412 ;;		Unchanged: 0/0
  4413 ;; Data sizes:     COMMON   BANK0   BANK1   BANK2   BANK3   BANK4   BANK5   BANK6
  4414 ;;      Params:         0       0       0       0       0       0       0       0
  4415 ;;      Locals:         0       0       0       0       0       0       0       0
  4416 ;;      Temps:          0       0       0       0       0       0       0       0
  4417 ;;      Totals:         0       0       0       0       0       0       0       0
  4418 ;;Total ram usage:        0 bytes
  4419 ;; Hardware stack levels used: 1
  4420 ;; Hardware stack levels required when called: 3
  4421 ;; This function calls:
  4422 ;;		Nothing
  4423 ;; This function is called by:
  4424 ;;		_debounce_IO
  4425 ;; This function uses a non-reentrant model
  4426 ;;
  4427                           
  4428     05B9                     _is_DRL:	
  4429                           ;psect for function _is_DRL
  4430                           
  4431     05B9                     l2021:	
  4432                           ;incstack = 0
  4433                           ; Regs used in _is_DRL: [wreg+status,2+status,0]
  4434                           
  4435     05B9  0020               	movlb	0	; select bank0
  4436     05BA  0E0D               	swapf	13,w	;volatile
  4437     05BB  3901               	andlw	1
  4438     05BC                     l367:
  4439     05BC  0008               	return
  4440     05BD                     __end_of_is_DRL:
  4441                           
  4442                           	psect	text31
  4443     04F2                     __ptext31:	
  4444 ;; *************** function _check_welcome_signal *****************
  4445 ;; Defined at:
  4446 ;;		line 111 in file "D:/yiming/00work/TY1500_U3_V06.X/LED.c"
  4447 ;; Parameters:    Size  Location     Type
  4448 ;;		None
  4449 ;; Auto vars:     Size  Location     Type
  4450 ;;		None
  4451 ;; Return value:  Size  Location     Type
  4452 ;;                  1    wreg      void 
  4453 ;; Registers used:
  4454 ;;		wreg, status,2, status,0
  4455 ;; Tracked objects:
  4456 ;;		On entry : 0/0
  4457 ;;		On exit  : 0/0
  4458 ;;		Unchanged: 0/0
  4459 ;; Data sizes:     COMMON   BANK0   BANK1   BANK2   BANK3   BANK4   BANK5   BANK6
  4460 ;;      Params:         0       0       0       0       0       0       0       0
  4461 ;;      Locals:         0       0       0       0       0       0       0       0
  4462 ;;      Temps:          0       0       0       0       0       0       0       0
  4463 ;;      Totals:         0       0       0       0       0       0       0       0
  4464 ;;Total ram usage:        0 bytes
  4465 ;; Hardware stack levels used: 1
  4466 ;; Hardware stack levels required when called: 3
  4467 ;; This function calls:
  4468 ;;		Nothing
  4469 ;; This function is called by:
  4470 ;;		_LED_main
  4471 ;; This function uses a non-reentrant model
  4472 ;;
  4473                           
  4474     04F2                     _check_welcome_signal:	
  4475                           ;psect for function _check_welcome_signal
  4476                           
  4477     04F2                     l2403:	
  4478                           ;incstack = 0
  4479                           ; Regs used in _check_welcome_signal: [wreg+status,2+status,0]
  4480                           
  4481                           
  4482                           ;D:/yiming/00work/TY1500_U3_V06.X/LED.c: 113:   if (fturn_off_600ms) {
  4483     04F2  0870               	movf	_fturn_off_600ms,w
  4484     04F3  1903               	btfsc	3,2
  4485     04F4  2CF6               	goto	u1211
  4486     04F5  2CF7               	goto	u1210
  4487     04F6                     u1211:
  4488     04F6  2D00               	goto	l304
  4489     04F7                     u1210:
  4490     04F7                     l2405:
  4491                           
  4492                           ;D:/yiming/00work/TY1500_U3_V06.X/LED.c: 114:     if (turn_fall_edge_cnt == 2 ) {
  4493     04F7  3002               	movlw	2
  4494     04F8  0671               	xorwf	_turn_fall_edge_cnt,w
  4495     04F9  1D03               	btfss	3,2
  4496     04FA  2CFC               	goto	u1221
  4497     04FB  2CFD               	goto	u1220
  4498     04FC                     u1221:
  4499     04FC  2CFF               	goto	l2409
  4500     04FD                     u1220:
  4501     04FD                     l2407:
  4502                           
  4503                           ;D:/yiming/00work/TY1500_U3_V06.X/LED.c: 115:       fWelcome_light = 1;
  4504     04FD  01F2               	clrf	_fWelcome_light
  4505     04FE  0AF2               	incf	_fWelcome_light,f
  4506     04FF                     l2409:
  4507                           
  4508                           ;D:/yiming/00work/TY1500_U3_V06.X/LED.c: 117:     turn_fall_edge_cnt = 0;
  4509     04FF  01F1               	clrf	_turn_fall_edge_cnt
  4510     0500                     l304:
  4511     0500  0008               	return
  4512     0501                     __end_of_check_welcome_signal:
  4513                           
  4514                           	psect	text32
  4515     0030                     __ptext32:	
  4516 ;; *************** function _check_welcome_light *****************
  4517 ;; Defined at:
  4518 ;;		line 468 in file "D:/yiming/00work/TY1500_U3_V06.X/LED.c"
  4519 ;; Parameters:    Size  Location     Type
  4520 ;;		None
  4521 ;; Auto vars:     Size  Location     Type
  4522 ;;		None
  4523 ;; Return value:  Size  Location     Type
  4524 ;;                  1    wreg      void 
  4525 ;; Registers used:
  4526 ;;		wreg, fsr0l, fsr0h, status,2, status,0, pclath, cstack
  4527 ;; Tracked objects:
  4528 ;;		On entry : 0/0
  4529 ;;		On exit  : 0/0
  4530 ;;		Unchanged: 0/0
  4531 ;; Data sizes:     COMMON   BANK0   BANK1   BANK2   BANK3   BANK4   BANK5   BANK6
  4532 ;;      Params:         0       0       0       0       0       0       0       0
  4533 ;;      Locals:         0       0       0       0       0       0       0       0
  4534 ;;      Temps:          2       0       0       0       0       0       0       0
  4535 ;;      Totals:         2       0       0       0       0       0       0       0
  4536 ;;Total ram usage:        2 bytes
  4537 ;; Hardware stack levels used: 1
  4538 ;; Hardware stack levels required when called: 6
  4539 ;; This function calls:
  4540 ;;		_all_led_off
  4541 ;;		_delay_ms
  4542 ;;		_tellow_seg1_backward
  4543 ;;		_white_fad_out
  4544 ;;		_yellow_seg1_forward
  4545 ;;		_yellow_seg2_backward
  4546 ;;		_yellow_seg2_forward
  4547 ;;		_yellow_seg3_backward
  4548 ;;		_yellow_seg3_forward
  4549 ;;		_yellow_seg4_backward
  4550 ;;		_yellow_seg4_forward
  4551 ;;		_yellow_to_white
  4552 ;; This function is called by:
  4553 ;;		_LED_main
  4554 ;; This function uses a non-reentrant model
  4555 ;;
  4556                           
  4557     0030                     _check_welcome_light:	
  4558                           ;psect for function _check_welcome_light
  4559                           
  4560     0030                     l2505:	
  4561                           ;incstack = 0
  4562                           ; Regs used in _check_welcome_light: [wreg-fsr0h+status,2+status,0+pclath+cstack]
  4563                           
  4564                           
  4565                           ;D:/yiming/00work/TY1500_U3_V06.X/LED.c: 470:   switch (eWelcome_step) {
  4566     0030  28B9               	goto	l2589
  4567     0031                     l2507:
  4568                           
  4569                           ;D:/yiming/00work/TY1500_U3_V06.X/LED.c: 472:     all_led_off();
  4570     0031  3185  253F  3180   	fcall	_all_led_off
  4571     0034                     l2509:
  4572                           
  4573                           ;D:/yiming/00work/TY1500_U3_V06.X/LED.c: 473:     eWelcome_step++;
  4574     0034  3001               	movlw	1
  4575     0035  00FC               	movwf	??_check_welcome_light
  4576     0036  087C               	movf	??_check_welcome_light,w
  4577     0037  07F3               	addwf	_eWelcome_step,f
  4578     0038                     l2511:
  4579                           
  4580                           ;D:/yiming/00work/TY1500_U3_V06.X/LED.c: 474:     welcome_1ms_cnt = 0;
  4581     0038  3000               	movlw	0
  4582     0039  0020               	movlb	0	; select bank0
  4583     003A  00A3               	movwf	_welcome_1ms_cnt+3
  4584     003B  3000               	movlw	0
  4585     003C  00A2               	movwf	_welcome_1ms_cnt+2
  4586     003D  3000               	movlw	0
  4587     003E  00A1               	movwf	_welcome_1ms_cnt+1
  4588     003F  3000               	movlw	0
  4589     0040  00A0               	movwf	_welcome_1ms_cnt
  4590                           
  4591                           ;D:/yiming/00work/TY1500_U3_V06.X/LED.c: 475:     break;
  4592     0041  28F0               	goto	l519
  4593     0042                     l2513:
  4594                           
  4595                           ;D:/yiming/00work/TY1500_U3_V06.X/LED.c: 479:     yellow_seg1_forward();
  4596     0042  3182  22F0  3180   	fcall	_yellow_seg1_forward
  4597     0045                     l2515:
  4598                           
  4599                           ;D:/yiming/00work/TY1500_U3_V06.X/LED.c: 480:     eWelcome_step++;
  4600     0045  3001               	movlw	1
  4601     0046  00FC               	movwf	??_check_welcome_light
  4602     0047  087C               	movf	??_check_welcome_light,w
  4603     0048  07F3               	addwf	_eWelcome_step,f
  4604                           
  4605                           ;D:/yiming/00work/TY1500_U3_V06.X/LED.c: 481:     break;
  4606     0049  28F0               	goto	l519
  4607     004A                     l2517:
  4608                           
  4609                           ;D:/yiming/00work/TY1500_U3_V06.X/LED.c: 484:     yellow_seg2_forward();
  4610     004A  3182  22BF  3180   	fcall	_yellow_seg2_forward
  4611     004D  2845               	goto	l2515
  4612     004E                     l2521:
  4613                           
  4614                           ;D:/yiming/00work/TY1500_U3_V06.X/LED.c: 489:     yellow_seg3_forward();
  4615     004E  3182  228B  3180   	fcall	_yellow_seg3_forward
  4616     0051  2845               	goto	l2515
  4617     0052                     l2525:
  4618                           
  4619                           ;D:/yiming/00work/TY1500_U3_V06.X/LED.c: 494:     yellow_seg4_forward();
  4620     0052  3182  2257  3180   	fcall	_yellow_seg4_forward
  4621                           
  4622                           ;D:/yiming/00work/TY1500_U3_V06.X/LED.c: 495:     delay_ms(7);
  4623     0055  3007               	movlw	7
  4624     0056  00F7               	movwf	delay_ms@ms
  4625     0057  3000               	movlw	0
  4626     0058  00F8               	movwf	delay_ms@ms+1
  4627     0059  3184  2408  3180   	fcall	_delay_ms
  4628     005C  2845               	goto	l2515
  4629     005D                     l2529:
  4630                           
  4631                           ;D:/yiming/00work/TY1500_U3_V06.X/LED.c: 501:     tellow_seg1_backward();
  4632     005D  3183  2351  3180   	fcall	_tellow_seg1_backward
  4633     0060  2845               	goto	l2515
  4634     0061                     l2533:
  4635                           
  4636                           ;D:/yiming/00work/TY1500_U3_V06.X/LED.c: 506:     yellow_seg2_backward();
  4637     0061  3183  2321  3180   	fcall	_yellow_seg2_backward
  4638     0064  2845               	goto	l2515
  4639     0065                     l2537:
  4640                           
  4641                           ;D:/yiming/00work/TY1500_U3_V06.X/LED.c: 511:     yellow_seg3_backward();
  4642     0065  3183  23AF  3180   	fcall	_yellow_seg3_backward
  4643     0068  2845               	goto	l2515
  4644     0069                     l2541:
  4645                           
  4646                           ;D:/yiming/00work/TY1500_U3_V06.X/LED.c: 516:     yellow_seg4_backward();
  4647     0069  3183  2381  3180   	fcall	_yellow_seg4_backward
  4648                           
  4649                           ;D:/yiming/00work/TY1500_U3_V06.X/LED.c: 517:     delay_ms(7);
  4650     006C  3007               	movlw	7
  4651     006D  00F7               	movwf	delay_ms@ms
  4652     006E  3000               	movlw	0
  4653     006F  00F8               	movwf	delay_ms@ms+1
  4654     0070  3184  2408  3180   	fcall	_delay_ms
  4655                           
  4656                           ;D:/yiming/00work/TY1500_U3_V06.X/LED.c: 518:     delay_ms(250);
  4657     0073  30FA               	movlw	250
  4658     0074  00F7               	movwf	delay_ms@ms
  4659     0075  3000               	movlw	0
  4660     0076  00F8               	movwf	delay_ms@ms+1
  4661     0077  3184  2408  3180   	fcall	_delay_ms
  4662     007A  2845               	goto	l2515
  4663     007B                     l2561:
  4664                           
  4665                           ;D:/yiming/00work/TY1500_U3_V06.X/LED.c: 546:     yellow_to_white();
  4666     007B  3182  2223  3180   	fcall	_yellow_to_white
  4667     007E                     l2563:
  4668                           
  4669                           ;D:/yiming/00work/TY1500_U3_V06.X/LED.c: 547:     _delay((unsigned long)((7)*(32000000/4
      +                          000.0)));
  4670     007E  3049               	movlw	73
  4671     007F  00FC               	movwf	??_check_welcome_light
  4672     0080  30B9               	movlw	185
  4673     0081                     u1497:
  4674     0081  0B89               	decfsz	9,f
  4675     0082  2881               	goto	u1497
  4676     0083  0BFC               	decfsz	??_check_welcome_light,f
  4677     0084  2881               	goto	u1497
  4678     0085  0000               	nop
  4679     0086                     l2565:
  4680                           
  4681                           ;D:/yiming/00work/TY1500_U3_V06.X/LED.c: 548:     _delay((unsigned long)((7)*(32000000/4
      +                          000.0)));
  4682     0086  3049               	movlw	73
  4683     0087  00FC               	movwf	??_check_welcome_light
  4684     0088  30B9               	movlw	185
  4685     0089                     u1507:
  4686     0089  0B89               	decfsz	9,f
  4687     008A  2889               	goto	u1507
  4688     008B  0BFC               	decfsz	??_check_welcome_light,f
  4689     008C  2889               	goto	u1507
  4690     008D  0000               	nop
  4691     008E  2845               	goto	l2515
  4692     008F                     l513:	
  4693                           ;D:/yiming/00work/TY1500_U3_V06.X/LED.c: 553:   case WELCOME_STEP_14:
  4694                           
  4695                           
  4696                           ;D:/yiming/00work/TY1500_U3_V06.X/LED.c: 555:      if(ORB.TURN||ORB.DRL||ORB.POS){
  4697     008F  1875               	btfsc	_ORB,0
  4698     0090  2892               	goto	u1331
  4699     0091  2893               	goto	u1330
  4700     0092                     u1331:
  4701     0092  289B               	goto	l2573
  4702     0093                     u1330:
  4703     0093                     l2569:
  4704     0093  18F5               	btfsc	_ORB,1
  4705     0094  2896               	goto	u1341
  4706     0095  2897               	goto	u1340
  4707     0096                     u1341:
  4708     0096  289B               	goto	l2573
  4709     0097                     u1340:
  4710     0097                     l2571:
  4711     0097  1D75               	btfss	_ORB,2
  4712     0098  289A               	goto	u1351
  4713     0099  289B               	goto	u1350
  4714     009A                     u1351:
  4715     009A  28A2               	goto	l2579
  4716     009B                     u1350:
  4717     009B                     l2573:
  4718                           
  4719                           ;D:/yiming/00work/TY1500_U3_V06.X/LED.c: 556:       fWelcome_light = 0;
  4720     009B  01F2               	clrf	_fWelcome_light
  4721     009C                     l2575:
  4722                           
  4723                           ;D:/yiming/00work/TY1500_U3_V06.X/LED.c: 557:       fWelcome_light_disable = 1;
  4724     009C  0020               	movlb	0	; select bank0
  4725     009D  01AE               	clrf	_fWelcome_light_disable
  4726     009E  0AAE               	incf	_fWelcome_light_disable,f
  4727     009F                     l2577:
  4728                           
  4729                           ;D:/yiming/00work/TY1500_U3_V06.X/LED.c: 558:       all_led_off();
  4730     009F  3185  253F  3180   	fcall	_all_led_off
  4731     00A2                     l2579:
  4732                           
  4733                           ;D:/yiming/00work/TY1500_U3_V06.X/LED.c: 561:     if (welcome_1ms_cnt >= 15000) {
  4734     00A2  0020               	movlb	0	; select bank0
  4735     00A3  0823               	movf	_welcome_1ms_cnt+3,w
  4736     00A4  1D03               	btfss	3,2
  4737     00A5  28B1               	goto	u1360
  4738     00A6  0822               	movf	_welcome_1ms_cnt+2,w
  4739     00A7  1D03               	btfss	3,2
  4740     00A8  28B1               	goto	u1360
  4741     00A9  3098               	movlw	152
  4742     00AA  0220               	subwf	_welcome_1ms_cnt,w
  4743     00AB  303A               	movlw	58
  4744     00AC  3B21               	subwfb	_welcome_1ms_cnt+1,w
  4745     00AD  1C03               	btfss	3,0
  4746     00AE  28B0               	goto	u1361
  4747     00AF  28B1               	goto	u1360
  4748     00B0                     u1361:
  4749     00B0  28F0               	goto	l519
  4750     00B1                     u1360:
  4751     00B1                     l2581:
  4752                           
  4753                           ;D:/yiming/00work/TY1500_U3_V06.X/LED.c: 563:       fWelcome_light = 0;
  4754     00B1  01F2               	clrf	_fWelcome_light
  4755     00B2                     l2583:
  4756                           
  4757                           ;D:/yiming/00work/TY1500_U3_V06.X/LED.c: 564:       fWelcome_light_disable = 1;
  4758     00B2  0020               	movlb	0	; select bank0
  4759     00B3  01AE               	clrf	_fWelcome_light_disable
  4760     00B4  0AAE               	incf	_fWelcome_light_disable,f
  4761     00B5                     l2585:
  4762                           
  4763                           ;D:/yiming/00work/TY1500_U3_V06.X/LED.c: 565:       white_fad_out();
  4764     00B5  3183  23DD  3180   	fcall	_white_fad_out
  4765     00B8  28F0               	goto	l519
  4766     00B9                     l2589:
  4767     00B9  0873               	movf	_eWelcome_step,w
  4768     00BA  00FC               	movwf	??_check_welcome_light
  4769     00BB  01FD               	clrf	??_check_welcome_light+1
  4770                           
  4771                           ; Switch on 2 bytes has been partitioned into a top level switch of size 1, and 1 sub-sw
      +                          itches
  4772                           ; Switch size 1, requested type "simple"
  4773                           ; Number of cases is 1, Range of values is 0 to 0
  4774                           ; switch strategies available:
  4775                           ; Name         Instructions Cycles
  4776                           ; simple_byte            4     3 (average)
  4777                           ; direct_byte            8     6 (fixed)
  4778                           ; jumptable            260     6 (fixed)
  4779                           ;	Chosen strategy is simple_byte
  4780     00BC  087D               	movf	??_check_welcome_light+1,w
  4781     00BD  3A00               	xorlw	0	; case 0
  4782     00BE  1903               	skipnz
  4783     00BF  28C1               	goto	l2753
  4784     00C0  28F0               	goto	l519
  4785     00C1                     l2753:
  4786                           
  4787                           ; Switch size 1, requested type "simple"
  4788                           ; Number of cases is 15, Range of values is 0 to 14
  4789                           ; switch strategies available:
  4790                           ; Name         Instructions Cycles
  4791                           ; direct_byte           36     6 (fixed)
  4792                           ; simple_byte           46    24 (average)
  4793                           ; jumptable            260     6 (fixed)
  4794                           ;	Chosen strategy is simple_byte
  4795     00C1  087C               	movf	??_check_welcome_light,w
  4796     00C2  3A00               	xorlw	0	; case 0
  4797     00C3  1903               	skipnz
  4798     00C4  2831               	goto	l2507
  4799     00C5  3A01               	xorlw	1	; case 1
  4800     00C6  1903               	skipnz
  4801     00C7  2842               	goto	l2513
  4802     00C8  3A03               	xorlw	3	; case 2
  4803     00C9  1903               	skipnz
  4804     00CA  284A               	goto	l2517
  4805     00CB  3A01               	xorlw	1	; case 3
  4806     00CC  1903               	skipnz
  4807     00CD  284E               	goto	l2521
  4808     00CE  3A07               	xorlw	7	; case 4
  4809     00CF  1903               	skipnz
  4810     00D0  2852               	goto	l2525
  4811     00D1  3A01               	xorlw	1	; case 5
  4812     00D2  1903               	skipnz
  4813     00D3  285D               	goto	l2529
  4814     00D4  3A03               	xorlw	3	; case 6
  4815     00D5  1903               	skipnz
  4816     00D6  2861               	goto	l2533
  4817     00D7  3A01               	xorlw	1	; case 7
  4818     00D8  1903               	skipnz
  4819     00D9  2865               	goto	l2537
  4820     00DA  3A0F               	xorlw	15	; case 8
  4821     00DB  1903               	skipnz
  4822     00DC  2869               	goto	l2541
  4823     00DD  3A01               	xorlw	1	; case 9
  4824     00DE  1903               	skipnz
  4825     00DF  2842               	goto	l2513
  4826     00E0  3A03               	xorlw	3	; case 10
  4827     00E1  1903               	skipnz
  4828     00E2  284A               	goto	l2517
  4829     00E3  3A01               	xorlw	1	; case 11
  4830     00E4  1903               	skipnz
  4831     00E5  284E               	goto	l2521
  4832     00E6  3A07               	xorlw	7	; case 12
  4833     00E7  1903               	skipnz
  4834     00E8  2852               	goto	l2525
  4835     00E9  3A01               	xorlw	1	; case 13
  4836     00EA  1903               	skipnz
  4837     00EB  287B               	goto	l2561
  4838     00EC  3A03               	xorlw	3	; case 14
  4839     00ED  1903               	skipnz
  4840     00EE  288F               	goto	l513
  4841     00EF  28F0               	goto	l519
  4842     00F0                     l519:
  4843     00F0  0008               	return
  4844     00F1                     __end_of_check_welcome_light:
  4845                           
  4846                           	psect	text33
  4847     0223                     __ptext33:	
  4848 ;; *************** function _yellow_to_white *****************
  4849 ;; Defined at:
  4850 ;;		line 216 in file "D:/yiming/00work/TY1500_U3_V06.X/LED.c"
  4851 ;; Parameters:    Size  Location     Type
  4852 ;;		None
  4853 ;; Auto vars:     Size  Location     Type
  4854 ;;  ii              1    3[COMMON] unsigned char 
  4855 ;;  pwm_idx         1    4[COMMON] char 
  4856 ;; Return value:  Size  Location     Type
  4857 ;;                  1    wreg      void 
  4858 ;; Registers used:
  4859 ;;		wreg, status,2, status,0, pclath, cstack
  4860 ;; Tracked objects:
  4861 ;;		On entry : 0/0
  4862 ;;		On exit  : 0/0
  4863 ;;		Unchanged: 0/0
  4864 ;; Data sizes:     COMMON   BANK0   BANK1   BANK2   BANK3   BANK4   BANK5   BANK6
  4865 ;;      Params:         0       0       0       0       0       0       0       0
  4866 ;;      Locals:         2       0       0       0       0       0       0       0
  4867 ;;      Temps:          1       0       0       0       0       0       0       0
  4868 ;;      Totals:         3       0       0       0       0       0       0       0
  4869 ;;Total ram usage:        3 bytes
  4870 ;; Hardware stack levels used: 1
  4871 ;; Hardware stack levels required when called: 4
  4872 ;; This function calls:
  4873 ;;		_all_white_led_turn_off
  4874 ;;		_all_white_led_turn_on
  4875 ;;		_all_yellow_led_turn_off
  4876 ;;		_all_yellow_led_turn_on
  4877 ;;		_delay_us
  4878 ;; This function is called by:
  4879 ;;		_check_welcome_light
  4880 ;; This function uses a non-reentrant model
  4881 ;;
  4882                           
  4883     0223                     _yellow_to_white:	
  4884                           ;psect for function _yellow_to_white
  4885                           
  4886     0223                     l2059:	
  4887                           ;incstack = 0
  4888                           ; Regs used in _yellow_to_white: [wreg+status,2+status,0+pclath+cstack]
  4889                           
  4890                           
  4891                           ;D:/yiming/00work/TY1500_U3_V06.X/LED.c: 217:   for (int8_t pwm_idx = 10; pwm_idx >= 0; 
      +                          pwm_idx--) {
  4892     0223  300A               	movlw	10
  4893     0224  00FB               	movwf	yellow_to_white@pwm_idx
  4894     0225                     l392:
  4895                           
  4896                           ;D:/yiming/00work/TY1500_U3_V06.X/LED.c: 218:     if (PORTBbits.RB1)
  4897     0225  0020               	movlb	0	; select bank0
  4898     0226  1C8D               	btfss	13,1	;volatile
  4899     0227  2A29               	goto	u801
  4900     0228  2A2A               	goto	u800
  4901     0229                     u801:
  4902     0229  2A2B               	goto	l2067
  4903     022A                     u800:
  4904     022A  2A53               	goto	l2091
  4905     022B                     l2067:
  4906                           
  4907                           ;D:/yiming/00work/TY1500_U3_V06.X/LED.c: 220:     for (uint8_t ii = 0; ii < 50; ii++) {
  4908     022B  01FA               	clrf	yellow_to_white@ii
  4909     022C                     l2073:
  4910                           
  4911                           ;D:/yiming/00work/TY1500_U3_V06.X/LED.c: 221:       all_yellow_led_turn_on();
  4912     022C  3185  2561  3182   	fcall	_all_yellow_led_turn_on
  4913     022F                     l2075:
  4914                           
  4915                           ;D:/yiming/00work/TY1500_U3_V06.X/LED.c: 222:       all_white_led_turn_off();
  4916     022F  3185  25D2  3182   	fcall	_all_white_led_turn_off
  4917     0232                     l2077:
  4918                           
  4919                           ;D:/yiming/00work/TY1500_U3_V06.X/LED.c: 223:       delay_us(pwm_idx);
  4920     0232  087B               	movf	yellow_to_white@pwm_idx,w
  4921     0233  3184  24B0  3182   	fcall	_delay_us
  4922     0236                     l2079:
  4923                           
  4924                           ;D:/yiming/00work/TY1500_U3_V06.X/LED.c: 224:       all_yellow_led_turn_off();
  4925     0236  3185  2578  3182   	fcall	_all_yellow_led_turn_off
  4926     0239                     l2081:
  4927                           
  4928                           ;D:/yiming/00work/TY1500_U3_V06.X/LED.c: 225:       all_white_led_turn_on();
  4929     0239  3185  25CF  3182   	fcall	_all_white_led_turn_on
  4930                           
  4931                           ;D:/yiming/00work/TY1500_U3_V06.X/LED.c: 226:       delay_us(10 - pwm_idx);
  4932     023C  087B               	movf	yellow_to_white@pwm_idx,w
  4933     023D  3C0A               	sublw	10
  4934     023E  3184  24B0  3182   	fcall	_delay_us
  4935     0241                     l2083:
  4936                           
  4937                           ;D:/yiming/00work/TY1500_U3_V06.X/LED.c: 227:     }
  4938     0241  3001               	movlw	1
  4939     0242  00F9               	movwf	??_yellow_to_white
  4940     0243  0879               	movf	??_yellow_to_white,w
  4941     0244  07FA               	addwf	yellow_to_white@ii,f
  4942     0245                     l2085:
  4943     0245  3032               	movlw	50
  4944     0246  027A               	subwf	yellow_to_white@ii,w
  4945     0247  1C03               	skipc
  4946     0248  2A4A               	goto	u811
  4947     0249  2A4B               	goto	u810
  4948     024A                     u811:
  4949     024A  2A2C               	goto	l2073
  4950     024B                     u810:
  4951     024B                     l2087:
  4952                           
  4953                           ;D:/yiming/00work/TY1500_U3_V06.X/LED.c: 228:   }
  4954     024B  30FF               	movlw	255
  4955     024C  00F9               	movwf	??_yellow_to_white
  4956     024D  0879               	movf	??_yellow_to_white,w
  4957     024E  07FB               	addwf	yellow_to_white@pwm_idx,f
  4958     024F                     l2089:
  4959     024F  1FFB               	btfss	yellow_to_white@pwm_idx,7
  4960     0250  2A52               	goto	u821
  4961     0251  2A53               	goto	u820
  4962     0252                     u821:
  4963     0252  2A25               	goto	l392
  4964     0253                     u820:
  4965     0253                     l2091:
  4966                           
  4967                           ;D:/yiming/00work/TY1500_U3_V06.X/LED.c: 229:   all_white_led_turn_on();
  4968     0253  3185  25CF  3182   	fcall	_all_white_led_turn_on
  4969     0256                     l397:
  4970     0256  0008               	return
  4971     0257                     __end_of_yellow_to_white:
  4972                           
  4973                           	psect	text34
  4974     0257                     __ptext34:	
  4975 ;; *************** function _yellow_seg4_forward *****************
  4976 ;; Defined at:
  4977 ;;		line 306 in file "D:/yiming/00work/TY1500_U3_V06.X/LED.c"
  4978 ;; Parameters:    Size  Location     Type
  4979 ;;		None
  4980 ;; Auto vars:     Size  Location     Type
  4981 ;;  ii              1    3[COMMON] unsigned char 
  4982 ;;  pwm_idx         1    4[COMMON] char 
  4983 ;; Return value:  Size  Location     Type
  4984 ;;                  1    wreg      void 
  4985 ;; Registers used:
  4986 ;;		wreg, status,2, status,0, pclath, cstack
  4987 ;; Tracked objects:
  4988 ;;		On entry : 0/0
  4989 ;;		On exit  : 0/0
  4990 ;;		Unchanged: 0/0
  4991 ;; Data sizes:     COMMON   BANK0   BANK1   BANK2   BANK3   BANK4   BANK5   BANK6
  4992 ;;      Params:         0       0       0       0       0       0       0       0
  4993 ;;      Locals:         2       0       0       0       0       0       0       0
  4994 ;;      Temps:          1       0       0       0       0       0       0       0
  4995 ;;      Totals:         3       0       0       0       0       0       0       0
  4996 ;;Total ram usage:        3 bytes
  4997 ;; Hardware stack levels used: 1
  4998 ;; Hardware stack levels required when called: 4
  4999 ;; This function calls:
  5000 ;;		_delay_us
  5001 ;; This function is called by:
  5002 ;;		_check_welcome_light
  5003 ;; This function uses a non-reentrant model
  5004 ;;
  5005                           
  5006     0257                     _yellow_seg4_forward:	
  5007                           ;psect for function _yellow_seg4_forward
  5008                           
  5009     0257                     l2207:	
  5010                           ;incstack = 0
  5011                           ; Regs used in _yellow_seg4_forward: [wreg+status,2+status,0+pclath+cstack]
  5012                           
  5013                           
  5014                           ;D:/yiming/00work/TY1500_U3_V06.X/LED.c: 307:   for (int8_t pwm_idx = 1; pwm_idx <= 10; 
      +                          pwm_idx++) {
  5015     0257  01FB               	clrf	yellow_seg4_forward@pwm_idx
  5016     0258  0AFB               	incf	yellow_seg4_forward@pwm_idx,f
  5017     0259                     l432:
  5018                           
  5019                           ;D:/yiming/00work/TY1500_U3_V06.X/LED.c: 308:     if (PORTBbits.RB1)
  5020     0259  0020               	movlb	0	; select bank0
  5021     025A  1C8D               	btfss	13,1	;volatile
  5022     025B  2A5D               	goto	u951
  5023     025C  2A5E               	goto	u950
  5024     025D                     u951:
  5025     025D  2A5F               	goto	l2215
  5026     025E                     u950:
  5027     025E  2A86               	goto	l433
  5028     025F                     l2215:
  5029                           
  5030                           ;D:/yiming/00work/TY1500_U3_V06.X/LED.c: 310:     for (uint8_t ii = 0; ii < 7; ii++) {
  5031     025F  01FA               	clrf	yellow_seg4_forward@ii
  5032     0260                     l435:
  5033                           
  5034                           ;D:/yiming/00work/TY1500_U3_V06.X/LED.c: 311:       LATAbits.LATA5 = 1;
  5035     0260  0022               	movlb	2	; select bank2
  5036     0261  168C               	bsf	12,5	;volatile
  5037                           
  5038                           ;D:/yiming/00work/TY1500_U3_V06.X/LED.c: 312:       LATAbits.LATA0 = 1;
  5039     0262  140C               	bsf	12,0	;volatile
  5040                           
  5041                           ;D:/yiming/00work/TY1500_U3_V06.X/LED.c: 313:       LATAbits.LATA1 = 1;
  5042     0263  148C               	bsf	12,1	;volatile
  5043     0264                     l2221:
  5044                           
  5045                           ;D:/yiming/00work/TY1500_U3_V06.X/LED.c: 314:       delay_us(pwm_idx);
  5046     0264  087B               	movf	yellow_seg4_forward@pwm_idx,w
  5047     0265  3184  24B0  3182   	fcall	_delay_us
  5048     0268                     l2223:
  5049                           
  5050                           ;D:/yiming/00work/TY1500_U3_V06.X/LED.c: 315:       LATAbits.LATA5 = 0;
  5051     0268  0022               	movlb	2	; select bank2
  5052     0269  128C               	bcf	12,5	;volatile
  5053     026A                     l2225:
  5054                           
  5055                           ;D:/yiming/00work/TY1500_U3_V06.X/LED.c: 316:       LATAbits.LATA0 = 0;
  5056     026A  100C               	bcf	12,0	;volatile
  5057     026B                     l2227:
  5058                           
  5059                           ;D:/yiming/00work/TY1500_U3_V06.X/LED.c: 317:       LATAbits.LATA1 = 0;
  5060     026B  108C               	bcf	12,1	;volatile
  5061                           
  5062                           ;D:/yiming/00work/TY1500_U3_V06.X/LED.c: 318:       delay_us(10 - pwm_idx);
  5063     026C  087B               	movf	yellow_seg4_forward@pwm_idx,w
  5064     026D  3C0A               	sublw	10
  5065     026E  3184  24B0  3182   	fcall	_delay_us
  5066     0271                     l2229:
  5067                           
  5068                           ;D:/yiming/00work/TY1500_U3_V06.X/LED.c: 319:     }
  5069     0271  3001               	movlw	1
  5070     0272  00F9               	movwf	??_yellow_seg4_forward
  5071     0273  0879               	movf	??_yellow_seg4_forward,w
  5072     0274  07FA               	addwf	yellow_seg4_forward@ii,f
  5073     0275                     l2231:
  5074     0275  3007               	movlw	7
  5075     0276  027A               	subwf	yellow_seg4_forward@ii,w
  5076     0277  1C03               	skipc
  5077     0278  2A7A               	goto	u961
  5078     0279  2A7B               	goto	u960
  5079     027A                     u961:
  5080     027A  2A60               	goto	l435
  5081     027B                     u960:
  5082     027B                     l2233:
  5083                           
  5084                           ;D:/yiming/00work/TY1500_U3_V06.X/LED.c: 320:   }
  5085     027B  3001               	movlw	1
  5086     027C  00F9               	movwf	??_yellow_seg4_forward
  5087     027D  0879               	movf	??_yellow_seg4_forward,w
  5088     027E  07FB               	addwf	yellow_seg4_forward@pwm_idx,f
  5089     027F                     l2235:
  5090     027F  087B               	movf	yellow_seg4_forward@pwm_idx,w
  5091     0280  3A80               	xorlw	128
  5092     0281  3E75               	addlw	-139
  5093     0282  1C03               	skipc
  5094     0283  2A85               	goto	u971
  5095     0284  2A86               	goto	u970
  5096     0285                     u971:
  5097     0285  2A59               	goto	l432
  5098     0286                     u970:
  5099     0286                     l433:
  5100                           
  5101                           ;D:/yiming/00work/TY1500_U3_V06.X/LED.c: 321:   LATAbits.LATA5 = 1;
  5102     0286  0022               	movlb	2	; select bank2
  5103     0287  168C               	bsf	12,5	;volatile
  5104                           
  5105                           ;D:/yiming/00work/TY1500_U3_V06.X/LED.c: 322:   LATAbits.LATA0 = 1;
  5106     0288  140C               	bsf	12,0	;volatile
  5107                           
  5108                           ;D:/yiming/00work/TY1500_U3_V06.X/LED.c: 323:   LATAbits.LATA1 = 1;
  5109     0289  148C               	bsf	12,1	;volatile
  5110     028A                     l437:
  5111     028A  0008               	return
  5112     028B                     __end_of_yellow_seg4_forward:
  5113                           
  5114                           	psect	text35
  5115     0381                     __ptext35:	
  5116 ;; *************** function _yellow_seg4_backward *****************
  5117 ;; Defined at:
  5118 ;;		line 379 in file "D:/yiming/00work/TY1500_U3_V06.X/LED.c"
  5119 ;; Parameters:    Size  Location     Type
  5120 ;;		None
  5121 ;; Auto vars:     Size  Location     Type
  5122 ;;  ii              1    3[COMMON] unsigned char 
  5123 ;;  pwm_idx         1    4[COMMON] char 
  5124 ;; Return value:  Size  Location     Type
  5125 ;;                  1    wreg      void 
  5126 ;; Registers used:
  5127 ;;		wreg, status,2, status,0, pclath, cstack
  5128 ;; Tracked objects:
  5129 ;;		On entry : 0/0
  5130 ;;		On exit  : 0/0
  5131 ;;		Unchanged: 0/0
  5132 ;; Data sizes:     COMMON   BANK0   BANK1   BANK2   BANK3   BANK4   BANK5   BANK6
  5133 ;;      Params:         0       0       0       0       0       0       0       0
  5134 ;;      Locals:         2       0       0       0       0       0       0       0
  5135 ;;      Temps:          1       0       0       0       0       0       0       0
  5136 ;;      Totals:         3       0       0       0       0       0       0       0
  5137 ;;Total ram usage:        3 bytes
  5138 ;; Hardware stack levels used: 1
  5139 ;; Hardware stack levels required when called: 4
  5140 ;; This function calls:
  5141 ;;		_delay_us
  5142 ;; This function is called by:
  5143 ;;		_check_welcome_light
  5144 ;; This function uses a non-reentrant model
  5145 ;;
  5146                           
  5147     0381                     _yellow_seg4_backward:	
  5148                           ;psect for function _yellow_seg4_backward
  5149                           
  5150     0381                     l2319:	
  5151                           ;incstack = 0
  5152                           ; Regs used in _yellow_seg4_backward: [wreg+status,2+status,0+pclath+cstack]
  5153                           
  5154                           
  5155                           ;D:/yiming/00work/TY1500_U3_V06.X/LED.c: 380:   for (int8_t pwm_idx = 10; pwm_idx > 0; p
      +                          wm_idx--) {
  5156     0381  300A               	movlw	10
  5157     0382  00FB               	movwf	yellow_seg4_backward@pwm_idx
  5158     0383                     l464:
  5159                           
  5160                           ;D:/yiming/00work/TY1500_U3_V06.X/LED.c: 381:     if (PORTBbits.RB1)
  5161     0383  0020               	movlb	0	; select bank0
  5162     0384  1C8D               	btfss	13,1	;volatile
  5163     0385  2B87               	goto	u1071
  5164     0386  2B88               	goto	u1070
  5165     0387                     u1071:
  5166     0387  2B89               	goto	l2325
  5167     0388                     u1070:
  5168     0388  2BAE               	goto	l469
  5169     0389                     l2325:
  5170                           
  5171                           ;D:/yiming/00work/TY1500_U3_V06.X/LED.c: 383:     for (uint8_t ii = 0; ii < 7; ii++) {
  5172     0389  01FA               	clrf	yellow_seg4_backward@ii
  5173     038A                     l467:
  5174                           
  5175                           ;D:/yiming/00work/TY1500_U3_V06.X/LED.c: 384:       LATCbits.LATC0 = 1;
  5176     038A  0022               	movlb	2	; select bank2
  5177     038B  140E               	bsf	14,0	;volatile
  5178                           
  5179                           ;D:/yiming/00work/TY1500_U3_V06.X/LED.c: 385:       LATCbits.LATC1 = 1;
  5180     038C  148E               	bsf	14,1	;volatile
  5181     038D                     l2331:
  5182                           
  5183                           ;D:/yiming/00work/TY1500_U3_V06.X/LED.c: 386:       delay_us(pwm_idx);
  5184     038D  087B               	movf	yellow_seg4_backward@pwm_idx,w
  5185     038E  3184  24B0  3183   	fcall	_delay_us
  5186     0391                     l2333:
  5187                           
  5188                           ;D:/yiming/00work/TY1500_U3_V06.X/LED.c: 387:       LATCbits.LATC0 = 0;
  5189     0391  0022               	movlb	2	; select bank2
  5190     0392  100E               	bcf	14,0	;volatile
  5191     0393                     l2335:
  5192                           
  5193                           ;D:/yiming/00work/TY1500_U3_V06.X/LED.c: 388:       LATCbits.LATC1 = 0;
  5194     0393  108E               	bcf	14,1	;volatile
  5195                           
  5196                           ;D:/yiming/00work/TY1500_U3_V06.X/LED.c: 389:       delay_us(10 - pwm_idx);
  5197     0394  087B               	movf	yellow_seg4_backward@pwm_idx,w
  5198     0395  3C0A               	sublw	10
  5199     0396  3184  24B0  3183   	fcall	_delay_us
  5200     0399                     l2337:
  5201                           
  5202                           ;D:/yiming/00work/TY1500_U3_V06.X/LED.c: 390:     }
  5203     0399  3001               	movlw	1
  5204     039A  00F9               	movwf	??_yellow_seg4_backward
  5205     039B  0879               	movf	??_yellow_seg4_backward,w
  5206     039C  07FA               	addwf	yellow_seg4_backward@ii,f
  5207     039D                     l2339:
  5208     039D  3007               	movlw	7
  5209     039E  027A               	subwf	yellow_seg4_backward@ii,w
  5210     039F  1C03               	skipc
  5211     03A0  2BA2               	goto	u1081
  5212     03A1  2BA3               	goto	u1080
  5213     03A2                     u1081:
  5214     03A2  2B8A               	goto	l467
  5215     03A3                     u1080:
  5216     03A3                     l2341:
  5217                           
  5218                           ;D:/yiming/00work/TY1500_U3_V06.X/LED.c: 391:   }
  5219     03A3  30FF               	movlw	255
  5220     03A4  00F9               	movwf	??_yellow_seg4_backward
  5221     03A5  0879               	movf	??_yellow_seg4_backward,w
  5222     03A6  07FB               	addwf	yellow_seg4_backward@pwm_idx,f
  5223     03A7                     l2343:
  5224     03A7  087B               	movf	yellow_seg4_backward@pwm_idx,w
  5225     03A8  3A80               	xorlw	128
  5226     03A9  3E7F               	addlw	-129
  5227     03AA  1803               	skipnc
  5228     03AB  2BAD               	goto	u1091
  5229     03AC  2BAE               	goto	u1090
  5230     03AD                     u1091:
  5231     03AD  2B83               	goto	l464
  5232     03AE                     u1090:
  5233     03AE                     l469:
  5234     03AE  0008               	return
  5235     03AF                     __end_of_yellow_seg4_backward:
  5236                           
  5237                           	psect	text36
  5238     028B                     __ptext36:	
  5239 ;; *************** function _yellow_seg3_forward *****************
  5240 ;; Defined at:
  5241 ;;		line 285 in file "D:/yiming/00work/TY1500_U3_V06.X/LED.c"
  5242 ;; Parameters:    Size  Location     Type
  5243 ;;		None
  5244 ;; Auto vars:     Size  Location     Type
  5245 ;;  ii              1    3[COMMON] unsigned char 
  5246 ;;  pwm_idx         1    4[COMMON] char 
  5247 ;; Return value:  Size  Location     Type
  5248 ;;                  1    wreg      void 
  5249 ;; Registers used:
  5250 ;;		wreg, status,2, status,0, pclath, cstack
  5251 ;; Tracked objects:
  5252 ;;		On entry : 0/0
  5253 ;;		On exit  : 0/0
  5254 ;;		Unchanged: 0/0
  5255 ;; Data sizes:     COMMON   BANK0   BANK1   BANK2   BANK3   BANK4   BANK5   BANK6
  5256 ;;      Params:         0       0       0       0       0       0       0       0
  5257 ;;      Locals:         2       0       0       0       0       0       0       0
  5258 ;;      Temps:          1       0       0       0       0       0       0       0
  5259 ;;      Totals:         3       0       0       0       0       0       0       0
  5260 ;;Total ram usage:        3 bytes
  5261 ;; Hardware stack levels used: 1
  5262 ;; Hardware stack levels required when called: 4
  5263 ;; This function calls:
  5264 ;;		_delay_us
  5265 ;; This function is called by:
  5266 ;;		_check_welcome_light
  5267 ;; This function uses a non-reentrant model
  5268 ;;
  5269                           
  5270     028B                     _yellow_seg3_forward:	
  5271                           ;psect for function _yellow_seg3_forward
  5272                           
  5273     028B                     l2177:	
  5274                           ;incstack = 0
  5275                           ; Regs used in _yellow_seg3_forward: [wreg+status,2+status,0+pclath+cstack]
  5276                           
  5277                           
  5278                           ;D:/yiming/00work/TY1500_U3_V06.X/LED.c: 286:   for (int8_t pwm_idx = 1; pwm_idx <= 10; 
      +                          pwm_idx++) {
  5279     028B  01FB               	clrf	yellow_seg3_forward@pwm_idx
  5280     028C  0AFB               	incf	yellow_seg3_forward@pwm_idx,f
  5281     028D                     l424:
  5282                           
  5283                           ;D:/yiming/00work/TY1500_U3_V06.X/LED.c: 287:     if (PORTBbits.RB1)
  5284     028D  0020               	movlb	0	; select bank0
  5285     028E  1C8D               	btfss	13,1	;volatile
  5286     028F  2A91               	goto	u921
  5287     0290  2A92               	goto	u920
  5288     0291                     u921:
  5289     0291  2A93               	goto	l2185
  5290     0292                     u920:
  5291     0292  2ABA               	goto	l425
  5292     0293                     l2185:
  5293                           
  5294                           ;D:/yiming/00work/TY1500_U3_V06.X/LED.c: 289:     for (uint8_t ii = 0; ii < 7; ii++) {
  5295     0293  01FA               	clrf	yellow_seg3_forward@ii
  5296     0294                     l427:
  5297                           
  5298                           ;D:/yiming/00work/TY1500_U3_V06.X/LED.c: 290:       LATAbits.LATA7 = 1;
  5299     0294  0022               	movlb	2	; select bank2
  5300     0295  178C               	bsf	12,7	;volatile
  5301                           
  5302                           ;D:/yiming/00work/TY1500_U3_V06.X/LED.c: 291:       LATAbits.LATA2 = 1;
  5303     0296  150C               	bsf	12,2	;volatile
  5304                           
  5305                           ;D:/yiming/00work/TY1500_U3_V06.X/LED.c: 292:       LATAbits.LATA3 = 1;
  5306     0297  158C               	bsf	12,3	;volatile
  5307     0298                     l2191:
  5308                           
  5309                           ;D:/yiming/00work/TY1500_U3_V06.X/LED.c: 293:       delay_us(pwm_idx);
  5310     0298  087B               	movf	yellow_seg3_forward@pwm_idx,w
  5311     0299  3184  24B0  3182   	fcall	_delay_us
  5312     029C                     l2193:
  5313                           
  5314                           ;D:/yiming/00work/TY1500_U3_V06.X/LED.c: 294:       LATAbits.LATA7 = 0;
  5315     029C  0022               	movlb	2	; select bank2
  5316     029D  138C               	bcf	12,7	;volatile
  5317     029E                     l2195:
  5318                           
  5319                           ;D:/yiming/00work/TY1500_U3_V06.X/LED.c: 295:       LATAbits.LATA2 = 0;
  5320     029E  110C               	bcf	12,2	;volatile
  5321     029F                     l2197:
  5322                           
  5323                           ;D:/yiming/00work/TY1500_U3_V06.X/LED.c: 296:       LATAbits.LATA3 = 0;
  5324     029F  118C               	bcf	12,3	;volatile
  5325                           
  5326                           ;D:/yiming/00work/TY1500_U3_V06.X/LED.c: 297:       delay_us(10 - pwm_idx);
  5327     02A0  087B               	movf	yellow_seg3_forward@pwm_idx,w
  5328     02A1  3C0A               	sublw	10
  5329     02A2  3184  24B0  3182   	fcall	_delay_us
  5330     02A5                     l2199:
  5331                           
  5332                           ;D:/yiming/00work/TY1500_U3_V06.X/LED.c: 298:     }
  5333     02A5  3001               	movlw	1
  5334     02A6  00F9               	movwf	??_yellow_seg3_forward
  5335     02A7  0879               	movf	??_yellow_seg3_forward,w
  5336     02A8  07FA               	addwf	yellow_seg3_forward@ii,f
  5337     02A9                     l2201:
  5338     02A9  3007               	movlw	7
  5339     02AA  027A               	subwf	yellow_seg3_forward@ii,w
  5340     02AB  1C03               	skipc
  5341     02AC  2AAE               	goto	u931
  5342     02AD  2AAF               	goto	u930
  5343     02AE                     u931:
  5344     02AE  2A94               	goto	l427
  5345     02AF                     u930:
  5346     02AF                     l2203:
  5347                           
  5348                           ;D:/yiming/00work/TY1500_U3_V06.X/LED.c: 299:   }
  5349     02AF  3001               	movlw	1
  5350     02B0  00F9               	movwf	??_yellow_seg3_forward
  5351     02B1  0879               	movf	??_yellow_seg3_forward,w
  5352     02B2  07FB               	addwf	yellow_seg3_forward@pwm_idx,f
  5353     02B3                     l2205:
  5354     02B3  087B               	movf	yellow_seg3_forward@pwm_idx,w
  5355     02B4  3A80               	xorlw	128
  5356     02B5  3E75               	addlw	-139
  5357     02B6  1C03               	skipc
  5358     02B7  2AB9               	goto	u941
  5359     02B8  2ABA               	goto	u940
  5360     02B9                     u941:
  5361     02B9  2A8D               	goto	l424
  5362     02BA                     u940:
  5363     02BA                     l425:
  5364                           
  5365                           ;D:/yiming/00work/TY1500_U3_V06.X/LED.c: 300:   LATAbits.LATA7 = 1;
  5366     02BA  0022               	movlb	2	; select bank2
  5367     02BB  178C               	bsf	12,7	;volatile
  5368                           
  5369                           ;D:/yiming/00work/TY1500_U3_V06.X/LED.c: 301:   LATAbits.LATA2 = 1;
  5370     02BC  150C               	bsf	12,2	;volatile
  5371                           
  5372                           ;D:/yiming/00work/TY1500_U3_V06.X/LED.c: 302:   LATAbits.LATA3 = 1;
  5373     02BD  158C               	bsf	12,3	;volatile
  5374     02BE                     l429:
  5375     02BE  0008               	return
  5376     02BF                     __end_of_yellow_seg3_forward:
  5377                           
  5378                           	psect	text37
  5379     03AF                     __ptext37:	
  5380 ;; *************** function _yellow_seg3_backward *****************
  5381 ;; Defined at:
  5382 ;;		line 363 in file "D:/yiming/00work/TY1500_U3_V06.X/LED.c"
  5383 ;; Parameters:    Size  Location     Type
  5384 ;;		None
  5385 ;; Auto vars:     Size  Location     Type
  5386 ;;  ii              1    3[COMMON] unsigned char 
  5387 ;;  pwm_idx         1    4[COMMON] char 
  5388 ;; Return value:  Size  Location     Type
  5389 ;;                  1    wreg      void 
  5390 ;; Registers used:
  5391 ;;		wreg, status,2, status,0, pclath, cstack
  5392 ;; Tracked objects:
  5393 ;;		On entry : 0/0
  5394 ;;		On exit  : 0/0
  5395 ;;		Unchanged: 0/0
  5396 ;; Data sizes:     COMMON   BANK0   BANK1   BANK2   BANK3   BANK4   BANK5   BANK6
  5397 ;;      Params:         0       0       0       0       0       0       0       0
  5398 ;;      Locals:         2       0       0       0       0       0       0       0
  5399 ;;      Temps:          1       0       0       0       0       0       0       0
  5400 ;;      Totals:         3       0       0       0       0       0       0       0
  5401 ;;Total ram usage:        3 bytes
  5402 ;; Hardware stack levels used: 1
  5403 ;; Hardware stack levels required when called: 4
  5404 ;; This function calls:
  5405 ;;		_delay_us
  5406 ;; This function is called by:
  5407 ;;		_check_welcome_light
  5408 ;; This function uses a non-reentrant model
  5409 ;;
  5410                           
  5411     03AF                     _yellow_seg3_backward:	
  5412                           ;psect for function _yellow_seg3_backward
  5413                           
  5414     03AF                     l2293:	
  5415                           ;incstack = 0
  5416                           ; Regs used in _yellow_seg3_backward: [wreg+status,2+status,0+pclath+cstack]
  5417                           
  5418                           
  5419                           ;D:/yiming/00work/TY1500_U3_V06.X/LED.c: 364:   for (int8_t pwm_idx = 10; pwm_idx > 0; p
      +                          wm_idx--) {
  5420     03AF  300A               	movlw	10
  5421     03B0  00FB               	movwf	yellow_seg3_backward@pwm_idx
  5422     03B1                     l456:
  5423                           
  5424                           ;D:/yiming/00work/TY1500_U3_V06.X/LED.c: 365:     if (PORTBbits.RB1)
  5425     03B1  0020               	movlb	0	; select bank0
  5426     03B2  1C8D               	btfss	13,1	;volatile
  5427     03B3  2BB5               	goto	u1041
  5428     03B4  2BB6               	goto	u1040
  5429     03B5                     u1041:
  5430     03B5  2BB7               	goto	l2299
  5431     03B6                     u1040:
  5432     03B6  2BDC               	goto	l461
  5433     03B7                     l2299:
  5434                           
  5435                           ;D:/yiming/00work/TY1500_U3_V06.X/LED.c: 367:     for (uint8_t ii = 0; ii < 7; ii++) {
  5436     03B7  01FA               	clrf	yellow_seg3_backward@ii
  5437     03B8                     l459:
  5438                           
  5439                           ;D:/yiming/00work/TY1500_U3_V06.X/LED.c: 368:       LATAbits.LATA6 = 1;
  5440     03B8  0022               	movlb	2	; select bank2
  5441     03B9  170C               	bsf	12,6	;volatile
  5442                           
  5443                           ;D:/yiming/00work/TY1500_U3_V06.X/LED.c: 369:       LATAbits.LATA4 = 1;
  5444     03BA  160C               	bsf	12,4	;volatile
  5445     03BB                     l2305:
  5446                           
  5447                           ;D:/yiming/00work/TY1500_U3_V06.X/LED.c: 370:       delay_us(pwm_idx);
  5448     03BB  087B               	movf	yellow_seg3_backward@pwm_idx,w
  5449     03BC  3184  24B0  3183   	fcall	_delay_us
  5450     03BF                     l2307:
  5451                           
  5452                           ;D:/yiming/00work/TY1500_U3_V06.X/LED.c: 371:       LATAbits.LATA6 = 0;
  5453     03BF  0022               	movlb	2	; select bank2
  5454     03C0  130C               	bcf	12,6	;volatile
  5455     03C1                     l2309:
  5456                           
  5457                           ;D:/yiming/00work/TY1500_U3_V06.X/LED.c: 372:       LATAbits.LATA4 = 0;
  5458     03C1  120C               	bcf	12,4	;volatile
  5459                           
  5460                           ;D:/yiming/00work/TY1500_U3_V06.X/LED.c: 373:       delay_us(10 - pwm_idx);
  5461     03C2  087B               	movf	yellow_seg3_backward@pwm_idx,w
  5462     03C3  3C0A               	sublw	10
  5463     03C4  3184  24B0  3183   	fcall	_delay_us
  5464     03C7                     l2311:
  5465                           
  5466                           ;D:/yiming/00work/TY1500_U3_V06.X/LED.c: 374:     }
  5467     03C7  3001               	movlw	1
  5468     03C8  00F9               	movwf	??_yellow_seg3_backward
  5469     03C9  0879               	movf	??_yellow_seg3_backward,w
  5470     03CA  07FA               	addwf	yellow_seg3_backward@ii,f
  5471     03CB                     l2313:
  5472     03CB  3007               	movlw	7
  5473     03CC  027A               	subwf	yellow_seg3_backward@ii,w
  5474     03CD  1C03               	skipc
  5475     03CE  2BD0               	goto	u1051
  5476     03CF  2BD1               	goto	u1050
  5477     03D0                     u1051:
  5478     03D0  2BB8               	goto	l459
  5479     03D1                     u1050:
  5480     03D1                     l2315:
  5481                           
  5482                           ;D:/yiming/00work/TY1500_U3_V06.X/LED.c: 375:   }
  5483     03D1  30FF               	movlw	255
  5484     03D2  00F9               	movwf	??_yellow_seg3_backward
  5485     03D3  0879               	movf	??_yellow_seg3_backward,w
  5486     03D4  07FB               	addwf	yellow_seg3_backward@pwm_idx,f
  5487     03D5                     l2317:
  5488     03D5  087B               	movf	yellow_seg3_backward@pwm_idx,w
  5489     03D6  3A80               	xorlw	128
  5490     03D7  3E7F               	addlw	-129
  5491     03D8  1803               	skipnc
  5492     03D9  2BDB               	goto	u1061
  5493     03DA  2BDC               	goto	u1060
  5494     03DB                     u1061:
  5495     03DB  2BB1               	goto	l456
  5496     03DC                     u1060:
  5497     03DC                     l461:
  5498     03DC  0008               	return
  5499     03DD                     __end_of_yellow_seg3_backward:
  5500                           
  5501                           	psect	text38
  5502     02BF                     __ptext38:	
  5503 ;; *************** function _yellow_seg2_forward *****************
  5504 ;; Defined at:
  5505 ;;		line 266 in file "D:/yiming/00work/TY1500_U3_V06.X/LED.c"
  5506 ;; Parameters:    Size  Location     Type
  5507 ;;		None
  5508 ;; Auto vars:     Size  Location     Type
  5509 ;;  ii              1    3[COMMON] unsigned char 
  5510 ;;  pwm_idx         1    4[COMMON] char 
  5511 ;; Return value:  Size  Location     Type
  5512 ;;                  1    wreg      void 
  5513 ;; Registers used:
  5514 ;;		wreg, status,2, status,0, pclath, cstack
  5515 ;; Tracked objects:
  5516 ;;		On entry : 0/0
  5517 ;;		On exit  : 0/0
  5518 ;;		Unchanged: 0/0
  5519 ;; Data sizes:     COMMON   BANK0   BANK1   BANK2   BANK3   BANK4   BANK5   BANK6
  5520 ;;      Params:         0       0       0       0       0       0       0       0
  5521 ;;      Locals:         2       0       0       0       0       0       0       0
  5522 ;;      Temps:          1       0       0       0       0       0       0       0
  5523 ;;      Totals:         3       0       0       0       0       0       0       0
  5524 ;;Total ram usage:        3 bytes
  5525 ;; Hardware stack levels used: 1
  5526 ;; Hardware stack levels required when called: 4
  5527 ;; This function calls:
  5528 ;;		_delay_us
  5529 ;; This function is called by:
  5530 ;;		_check_welcome_light
  5531 ;; This function uses a non-reentrant model
  5532 ;;
  5533                           
  5534     02BF                     _yellow_seg2_forward:	
  5535                           ;psect for function _yellow_seg2_forward
  5536                           
  5537     02BF                     l2149:	
  5538                           ;incstack = 0
  5539                           ; Regs used in _yellow_seg2_forward: [wreg+status,2+status,0+pclath+cstack]
  5540                           
  5541                           
  5542                           ;D:/yiming/00work/TY1500_U3_V06.X/LED.c: 267:   for (int8_t pwm_idx = 1; pwm_idx <= 10; 
      +                          pwm_idx++) {
  5543     02BF  01FB               	clrf	yellow_seg2_forward@pwm_idx
  5544     02C0  0AFB               	incf	yellow_seg2_forward@pwm_idx,f
  5545     02C1                     l416:
  5546                           
  5547                           ;D:/yiming/00work/TY1500_U3_V06.X/LED.c: 268:     if (PORTBbits.RB1) {
  5548     02C1  0020               	movlb	0	; select bank0
  5549     02C2  1C8D               	btfss	13,1	;volatile
  5550     02C3  2AC5               	goto	u891
  5551     02C4  2AC6               	goto	u890
  5552     02C5                     u891:
  5553     02C5  2AC7               	goto	l2157
  5554     02C6                     u890:
  5555     02C6  2AEC               	goto	l417
  5556     02C7                     l2157:
  5557                           
  5558                           ;D:/yiming/00work/TY1500_U3_V06.X/LED.c: 271:     for (uint8_t ii = 0; ii < 7; ii++) {
  5559     02C7  01FA               	clrf	yellow_seg2_forward@ii
  5560     02C8                     l419:
  5561                           
  5562                           ;D:/yiming/00work/TY1500_U3_V06.X/LED.c: 272:       LATAbits.LATA6 = 1;
  5563     02C8  0022               	movlb	2	; select bank2
  5564     02C9  170C               	bsf	12,6	;volatile
  5565                           
  5566                           ;D:/yiming/00work/TY1500_U3_V06.X/LED.c: 273:       LATAbits.LATA4 = 1;
  5567     02CA  160C               	bsf	12,4	;volatile
  5568     02CB                     l2163:
  5569                           
  5570                           ;D:/yiming/00work/TY1500_U3_V06.X/LED.c: 274:       delay_us(pwm_idx);
  5571     02CB  087B               	movf	yellow_seg2_forward@pwm_idx,w
  5572     02CC  3184  24B0  3182   	fcall	_delay_us
  5573     02CF                     l2165:
  5574                           
  5575                           ;D:/yiming/00work/TY1500_U3_V06.X/LED.c: 275:       LATAbits.LATA6 = 0;
  5576     02CF  0022               	movlb	2	; select bank2
  5577     02D0  130C               	bcf	12,6	;volatile
  5578     02D1                     l2167:
  5579                           
  5580                           ;D:/yiming/00work/TY1500_U3_V06.X/LED.c: 276:       LATAbits.LATA4 = 0;
  5581     02D1  120C               	bcf	12,4	;volatile
  5582                           
  5583                           ;D:/yiming/00work/TY1500_U3_V06.X/LED.c: 277:       delay_us(10 - pwm_idx);
  5584     02D2  087B               	movf	yellow_seg2_forward@pwm_idx,w
  5585     02D3  3C0A               	sublw	10
  5586     02D4  3184  24B0  3182   	fcall	_delay_us
  5587     02D7                     l2169:
  5588                           
  5589                           ;D:/yiming/00work/TY1500_U3_V06.X/LED.c: 278:     }
  5590     02D7  3001               	movlw	1
  5591     02D8  00F9               	movwf	??_yellow_seg2_forward
  5592     02D9  0879               	movf	??_yellow_seg2_forward,w
  5593     02DA  07FA               	addwf	yellow_seg2_forward@ii,f
  5594     02DB                     l2171:
  5595     02DB  3007               	movlw	7
  5596     02DC  027A               	subwf	yellow_seg2_forward@ii,w
  5597     02DD  1C03               	skipc
  5598     02DE  2AE0               	goto	u901
  5599     02DF  2AE1               	goto	u900
  5600     02E0                     u901:
  5601     02E0  2AC8               	goto	l419
  5602     02E1                     u900:
  5603     02E1                     l2173:
  5604                           
  5605                           ;D:/yiming/00work/TY1500_U3_V06.X/LED.c: 279:   }
  5606     02E1  3001               	movlw	1
  5607     02E2  00F9               	movwf	??_yellow_seg2_forward
  5608     02E3  0879               	movf	??_yellow_seg2_forward,w
  5609     02E4  07FB               	addwf	yellow_seg2_forward@pwm_idx,f
  5610     02E5                     l2175:
  5611     02E5  087B               	movf	yellow_seg2_forward@pwm_idx,w
  5612     02E6  3A80               	xorlw	128
  5613     02E7  3E75               	addlw	-139
  5614     02E8  1C03               	skipc
  5615     02E9  2AEB               	goto	u911
  5616     02EA  2AEC               	goto	u910
  5617     02EB                     u911:
  5618     02EB  2AC1               	goto	l416
  5619     02EC                     u910:
  5620     02EC                     l417:
  5621                           
  5622                           ;D:/yiming/00work/TY1500_U3_V06.X/LED.c: 280:   LATAbits.LATA6 = 1;
  5623     02EC  0022               	movlb	2	; select bank2
  5624     02ED  170C               	bsf	12,6	;volatile
  5625                           
  5626                           ;D:/yiming/00work/TY1500_U3_V06.X/LED.c: 281:   LATAbits.LATA4 = 1;
  5627     02EE  160C               	bsf	12,4	;volatile
  5628     02EF                     l421:
  5629     02EF  0008               	return
  5630     02F0                     __end_of_yellow_seg2_forward:
  5631                           
  5632                           	psect	text39
  5633     0321                     __ptext39:	
  5634 ;; *************** function _yellow_seg2_backward *****************
  5635 ;; Defined at:
  5636 ;;		line 345 in file "D:/yiming/00work/TY1500_U3_V06.X/LED.c"
  5637 ;; Parameters:    Size  Location     Type
  5638 ;;		None
  5639 ;; Auto vars:     Size  Location     Type
  5640 ;;  ii              1    3[COMMON] unsigned char 
  5641 ;;  pwm_idx         1    4[COMMON] char 
  5642 ;; Return value:  Size  Location     Type
  5643 ;;                  1    wreg      void 
  5644 ;; Registers used:
  5645 ;;		wreg, status,2, status,0, pclath, cstack
  5646 ;; Tracked objects:
  5647 ;;		On entry : 0/0
  5648 ;;		On exit  : 0/0
  5649 ;;		Unchanged: 0/0
  5650 ;; Data sizes:     COMMON   BANK0   BANK1   BANK2   BANK3   BANK4   BANK5   BANK6
  5651 ;;      Params:         0       0       0       0       0       0       0       0
  5652 ;;      Locals:         2       0       0       0       0       0       0       0
  5653 ;;      Temps:          1       0       0       0       0       0       0       0
  5654 ;;      Totals:         3       0       0       0       0       0       0       0
  5655 ;;Total ram usage:        3 bytes
  5656 ;; Hardware stack levels used: 1
  5657 ;; Hardware stack levels required when called: 4
  5658 ;; This function calls:
  5659 ;;		_delay_us
  5660 ;; This function is called by:
  5661 ;;		_check_welcome_light
  5662 ;; This function uses a non-reentrant model
  5663 ;;
  5664                           
  5665     0321                     _yellow_seg2_backward:	
  5666                           ;psect for function _yellow_seg2_backward
  5667                           
  5668     0321                     l2265:	
  5669                           ;incstack = 0
  5670                           ; Regs used in _yellow_seg2_backward: [wreg+status,2+status,0+pclath+cstack]
  5671                           
  5672                           
  5673                           ;D:/yiming/00work/TY1500_U3_V06.X/LED.c: 346:   for (int8_t pwm_idx = 10; pwm_idx > 0; p
      +                          wm_idx--) {
  5674     0321  300A               	movlw	10
  5675     0322  00FB               	movwf	yellow_seg2_backward@pwm_idx
  5676     0323                     l448:
  5677                           
  5678                           ;D:/yiming/00work/TY1500_U3_V06.X/LED.c: 347:     if (PORTBbits.RB1)
  5679     0323  0020               	movlb	0	; select bank0
  5680     0324  1C8D               	btfss	13,1	;volatile
  5681     0325  2B27               	goto	u1011
  5682     0326  2B28               	goto	u1010
  5683     0327                     u1011:
  5684     0327  2B29               	goto	l2271
  5685     0328                     u1010:
  5686     0328  2B50               	goto	l453
  5687     0329                     l2271:
  5688                           
  5689                           ;D:/yiming/00work/TY1500_U3_V06.X/LED.c: 349:     for (uint8_t ii = 0; ii < 7; ii++) {
  5690     0329  01FA               	clrf	yellow_seg2_backward@ii
  5691     032A                     l451:
  5692                           
  5693                           ;D:/yiming/00work/TY1500_U3_V06.X/LED.c: 350:       LATAbits.LATA7 = 1;
  5694     032A  0022               	movlb	2	; select bank2
  5695     032B  178C               	bsf	12,7	;volatile
  5696                           
  5697                           ;D:/yiming/00work/TY1500_U3_V06.X/LED.c: 351:       LATAbits.LATA2 = 1;
  5698     032C  150C               	bsf	12,2	;volatile
  5699                           
  5700                           ;D:/yiming/00work/TY1500_U3_V06.X/LED.c: 352:       LATAbits.LATA3 = 1;
  5701     032D  158C               	bsf	12,3	;volatile
  5702     032E                     l2277:
  5703                           
  5704                           ;D:/yiming/00work/TY1500_U3_V06.X/LED.c: 353:       delay_us(pwm_idx);
  5705     032E  087B               	movf	yellow_seg2_backward@pwm_idx,w
  5706     032F  3184  24B0  3183   	fcall	_delay_us
  5707     0332                     l2279:
  5708                           
  5709                           ;D:/yiming/00work/TY1500_U3_V06.X/LED.c: 354:       LATAbits.LATA7 = 0;
  5710     0332  0022               	movlb	2	; select bank2
  5711     0333  138C               	bcf	12,7	;volatile
  5712     0334                     l2281:
  5713                           
  5714                           ;D:/yiming/00work/TY1500_U3_V06.X/LED.c: 355:       LATAbits.LATA2 = 0;
  5715     0334  110C               	bcf	12,2	;volatile
  5716     0335                     l2283:
  5717                           
  5718                           ;D:/yiming/00work/TY1500_U3_V06.X/LED.c: 356:       LATAbits.LATA3 = 0;
  5719     0335  118C               	bcf	12,3	;volatile
  5720                           
  5721                           ;D:/yiming/00work/TY1500_U3_V06.X/LED.c: 357:       delay_us(10 - pwm_idx);
  5722     0336  087B               	movf	yellow_seg2_backward@pwm_idx,w
  5723     0337  3C0A               	sublw	10
  5724     0338  3184  24B0  3183   	fcall	_delay_us
  5725     033B                     l2285:
  5726                           
  5727                           ;D:/yiming/00work/TY1500_U3_V06.X/LED.c: 358:     }
  5728     033B  3001               	movlw	1
  5729     033C  00F9               	movwf	??_yellow_seg2_backward
  5730     033D  0879               	movf	??_yellow_seg2_backward,w
  5731     033E  07FA               	addwf	yellow_seg2_backward@ii,f
  5732     033F                     l2287:
  5733     033F  3007               	movlw	7
  5734     0340  027A               	subwf	yellow_seg2_backward@ii,w
  5735     0341  1C03               	skipc
  5736     0342  2B44               	goto	u1021
  5737     0343  2B45               	goto	u1020
  5738     0344                     u1021:
  5739     0344  2B2A               	goto	l451
  5740     0345                     u1020:
  5741     0345                     l2289:
  5742                           
  5743                           ;D:/yiming/00work/TY1500_U3_V06.X/LED.c: 359:   }
  5744     0345  30FF               	movlw	255
  5745     0346  00F9               	movwf	??_yellow_seg2_backward
  5746     0347  0879               	movf	??_yellow_seg2_backward,w
  5747     0348  07FB               	addwf	yellow_seg2_backward@pwm_idx,f
  5748     0349                     l2291:
  5749     0349  087B               	movf	yellow_seg2_backward@pwm_idx,w
  5750     034A  3A80               	xorlw	128
  5751     034B  3E7F               	addlw	-129
  5752     034C  1803               	skipnc
  5753     034D  2B4F               	goto	u1031
  5754     034E  2B50               	goto	u1030
  5755     034F                     u1031:
  5756     034F  2B23               	goto	l448
  5757     0350                     u1030:
  5758     0350                     l453:
  5759     0350  0008               	return
  5760     0351                     __end_of_yellow_seg2_backward:
  5761                           
  5762                           	psect	text40
  5763     02F0                     __ptext40:	
  5764 ;; *************** function _yellow_seg1_forward *****************
  5765 ;; Defined at:
  5766 ;;		line 247 in file "D:/yiming/00work/TY1500_U3_V06.X/LED.c"
  5767 ;; Parameters:    Size  Location     Type
  5768 ;;		None
  5769 ;; Auto vars:     Size  Location     Type
  5770 ;;  ii              1    3[COMMON] unsigned char 
  5771 ;;  pwm_idx         1    4[COMMON] char 
  5772 ;; Return value:  Size  Location     Type
  5773 ;;                  1    wreg      void 
  5774 ;; Registers used:
  5775 ;;		wreg, status,2, status,0, pclath, cstack
  5776 ;; Tracked objects:
  5777 ;;		On entry : 0/0
  5778 ;;		On exit  : 0/0
  5779 ;;		Unchanged: 0/0
  5780 ;; Data sizes:     COMMON   BANK0   BANK1   BANK2   BANK3   BANK4   BANK5   BANK6
  5781 ;;      Params:         0       0       0       0       0       0       0       0
  5782 ;;      Locals:         2       0       0       0       0       0       0       0
  5783 ;;      Temps:          1       0       0       0       0       0       0       0
  5784 ;;      Totals:         3       0       0       0       0       0       0       0
  5785 ;;Total ram usage:        3 bytes
  5786 ;; Hardware stack levels used: 1
  5787 ;; Hardware stack levels required when called: 4
  5788 ;; This function calls:
  5789 ;;		_delay_us
  5790 ;; This function is called by:
  5791 ;;		_check_welcome_light
  5792 ;; This function uses a non-reentrant model
  5793 ;;
  5794                           
  5795     02F0                     _yellow_seg1_forward:	
  5796                           ;psect for function _yellow_seg1_forward
  5797                           
  5798     02F0                     l2121:	
  5799                           ;incstack = 0
  5800                           ; Regs used in _yellow_seg1_forward: [wreg+status,2+status,0+pclath+cstack]
  5801                           
  5802                           
  5803                           ;D:/yiming/00work/TY1500_U3_V06.X/LED.c: 248:   for (int8_t pwm_idx = 1; pwm_idx <= 10; 
      +                          pwm_idx++) {
  5804     02F0  01FB               	clrf	yellow_seg1_forward@pwm_idx
  5805     02F1  0AFB               	incf	yellow_seg1_forward@pwm_idx,f
  5806     02F2                     l408:
  5807                           
  5808                           ;D:/yiming/00work/TY1500_U3_V06.X/LED.c: 249:     if (PORTBbits.RB1) {
  5809     02F2  0020               	movlb	0	; select bank0
  5810     02F3  1C8D               	btfss	13,1	;volatile
  5811     02F4  2AF6               	goto	u861
  5812     02F5  2AF7               	goto	u860
  5813     02F6                     u861:
  5814     02F6  2AF8               	goto	l2129
  5815     02F7                     u860:
  5816     02F7  2B1D               	goto	l409
  5817     02F8                     l2129:
  5818                           
  5819                           ;D:/yiming/00work/TY1500_U3_V06.X/LED.c: 252:     for (uint8_t ii = 0; ii < 7; ii++) {
  5820     02F8  01FA               	clrf	yellow_seg1_forward@ii
  5821     02F9                     l411:
  5822                           
  5823                           ;D:/yiming/00work/TY1500_U3_V06.X/LED.c: 253:       LATCbits.LATC1 = 1;
  5824     02F9  0022               	movlb	2	; select bank2
  5825     02FA  148E               	bsf	14,1	;volatile
  5826                           
  5827                           ;D:/yiming/00work/TY1500_U3_V06.X/LED.c: 254:       LATCbits.LATC0 = 1;
  5828     02FB  140E               	bsf	14,0	;volatile
  5829     02FC                     l2135:
  5830                           
  5831                           ;D:/yiming/00work/TY1500_U3_V06.X/LED.c: 255:       delay_us(pwm_idx);
  5832     02FC  087B               	movf	yellow_seg1_forward@pwm_idx,w
  5833     02FD  3184  24B0  3182   	fcall	_delay_us
  5834     0300                     l2137:
  5835                           
  5836                           ;D:/yiming/00work/TY1500_U3_V06.X/LED.c: 256:       LATCbits.LATC1 = 0;
  5837     0300  0022               	movlb	2	; select bank2
  5838     0301  108E               	bcf	14,1	;volatile
  5839     0302                     l2139:
  5840                           
  5841                           ;D:/yiming/00work/TY1500_U3_V06.X/LED.c: 257:       LATCbits.LATC0 = 0;
  5842     0302  100E               	bcf	14,0	;volatile
  5843                           
  5844                           ;D:/yiming/00work/TY1500_U3_V06.X/LED.c: 258:       delay_us(10 - pwm_idx);
  5845     0303  087B               	movf	yellow_seg1_forward@pwm_idx,w
  5846     0304  3C0A               	sublw	10
  5847     0305  3184  24B0  3182   	fcall	_delay_us
  5848     0308                     l2141:
  5849                           
  5850                           ;D:/yiming/00work/TY1500_U3_V06.X/LED.c: 259:     }
  5851     0308  3001               	movlw	1
  5852     0309  00F9               	movwf	??_yellow_seg1_forward
  5853     030A  0879               	movf	??_yellow_seg1_forward,w
  5854     030B  07FA               	addwf	yellow_seg1_forward@ii,f
  5855     030C                     l2143:
  5856     030C  3007               	movlw	7
  5857     030D  027A               	subwf	yellow_seg1_forward@ii,w
  5858     030E  1C03               	skipc
  5859     030F  2B11               	goto	u871
  5860     0310  2B12               	goto	u870
  5861     0311                     u871:
  5862     0311  2AF9               	goto	l411
  5863     0312                     u870:
  5864     0312                     l2145:
  5865                           
  5866                           ;D:/yiming/00work/TY1500_U3_V06.X/LED.c: 260:   }
  5867     0312  3001               	movlw	1
  5868     0313  00F9               	movwf	??_yellow_seg1_forward
  5869     0314  0879               	movf	??_yellow_seg1_forward,w
  5870     0315  07FB               	addwf	yellow_seg1_forward@pwm_idx,f
  5871     0316                     l2147:
  5872     0316  087B               	movf	yellow_seg1_forward@pwm_idx,w
  5873     0317  3A80               	xorlw	128
  5874     0318  3E75               	addlw	-139
  5875     0319  1C03               	skipc
  5876     031A  2B1C               	goto	u881
  5877     031B  2B1D               	goto	u880
  5878     031C                     u881:
  5879     031C  2AF2               	goto	l408
  5880     031D                     u880:
  5881     031D                     l409:
  5882                           
  5883                           ;D:/yiming/00work/TY1500_U3_V06.X/LED.c: 261:   LATCbits.LATC1 = 1;
  5884     031D  0022               	movlb	2	; select bank2
  5885     031E  148E               	bsf	14,1	;volatile
  5886                           
  5887                           ;D:/yiming/00work/TY1500_U3_V06.X/LED.c: 262:   LATCbits.LATC0 = 1;
  5888     031F  140E               	bsf	14,0	;volatile
  5889     0320                     l413:
  5890     0320  0008               	return
  5891     0321                     __end_of_yellow_seg1_forward:
  5892                           
  5893                           	psect	text41
  5894     03DD                     __ptext41:	
  5895 ;; *************** function _white_fad_out *****************
  5896 ;; Defined at:
  5897 ;;		line 233 in file "D:/yiming/00work/TY1500_U3_V06.X/LED.c"
  5898 ;; Parameters:    Size  Location     Type
  5899 ;;		None
  5900 ;; Auto vars:     Size  Location     Type
  5901 ;;  ii              1    3[COMMON] unsigned char 
  5902 ;;  pwm_idx         1    4[COMMON] char 
  5903 ;; Return value:  Size  Location     Type
  5904 ;;                  1    wreg      void 
  5905 ;; Registers used:
  5906 ;;		wreg, status,2, status,0, pclath, cstack
  5907 ;; Tracked objects:
  5908 ;;		On entry : 0/0
  5909 ;;		On exit  : 0/0
  5910 ;;		Unchanged: 0/0
  5911 ;; Data sizes:     COMMON   BANK0   BANK1   BANK2   BANK3   BANK4   BANK5   BANK6
  5912 ;;      Params:         0       0       0       0       0       0       0       0
  5913 ;;      Locals:         2       0       0       0       0       0       0       0
  5914 ;;      Temps:          1       0       0       0       0       0       0       0
  5915 ;;      Totals:         3       0       0       0       0       0       0       0
  5916 ;;Total ram usage:        3 bytes
  5917 ;; Hardware stack levels used: 1
  5918 ;; Hardware stack levels required when called: 4
  5919 ;; This function calls:
  5920 ;;		_all_white_led_turn_off
  5921 ;;		_all_white_led_turn_on
  5922 ;;		_delay_us
  5923 ;; This function is called by:
  5924 ;;		_check_welcome_light
  5925 ;; This function uses a non-reentrant model
  5926 ;;
  5927                           
  5928     03DD                     _white_fad_out:	
  5929                           ;psect for function _white_fad_out
  5930                           
  5931     03DD                     l2093:	
  5932                           ;incstack = 0
  5933                           ; Regs used in _white_fad_out: [wreg+status,2+status,0+pclath+cstack]
  5934                           
  5935                           
  5936                           ;D:/yiming/00work/TY1500_U3_V06.X/LED.c: 234:   for (int8_t pwm_idx = 10; pwm_idx >= 0; 
      +                          pwm_idx--) {
  5937     03DD  300A               	movlw	10
  5938     03DE  00FB               	movwf	white_fad_out@pwm_idx
  5939     03DF                     l400:
  5940                           
  5941                           ;D:/yiming/00work/TY1500_U3_V06.X/LED.c: 235:     if (PORTBbits.RB1)
  5942     03DF  0020               	movlb	0	; select bank0
  5943     03E0  1C8D               	btfss	13,1	;volatile
  5944     03E1  2BE3               	goto	u831
  5945     03E2  2BE4               	goto	u830
  5946     03E3                     u831:
  5947     03E3  2BE5               	goto	l2101
  5948     03E4                     u830:
  5949     03E4  2C07               	goto	l405
  5950     03E5                     l2101:
  5951                           
  5952                           ;D:/yiming/00work/TY1500_U3_V06.X/LED.c: 237:     for (uint8_t ii = 0; ii < 25; ii++) {
  5953     03E5  01FA               	clrf	white_fad_out@ii
  5954     03E6                     l2107:
  5955                           
  5956                           ;D:/yiming/00work/TY1500_U3_V06.X/LED.c: 238:       all_white_led_turn_on();
  5957     03E6  3185  25CF  3183   	fcall	_all_white_led_turn_on
  5958     03E9                     l2109:
  5959                           
  5960                           ;D:/yiming/00work/TY1500_U3_V06.X/LED.c: 239:       delay_us(pwm_idx);
  5961     03E9  087B               	movf	white_fad_out@pwm_idx,w
  5962     03EA  3184  24B0  3183   	fcall	_delay_us
  5963     03ED                     l2111:
  5964                           
  5965                           ;D:/yiming/00work/TY1500_U3_V06.X/LED.c: 240:       all_white_led_turn_off();
  5966     03ED  3185  25D2  3183   	fcall	_all_white_led_turn_off
  5967                           
  5968                           ;D:/yiming/00work/TY1500_U3_V06.X/LED.c: 241:       delay_us(10 - pwm_idx);
  5969     03F0  087B               	movf	white_fad_out@pwm_idx,w
  5970     03F1  3C0A               	sublw	10
  5971     03F2  3184  24B0  3183   	fcall	_delay_us
  5972     03F5                     l2113:
  5973                           
  5974                           ;D:/yiming/00work/TY1500_U3_V06.X/LED.c: 242:     }
  5975     03F5  3001               	movlw	1
  5976     03F6  00F9               	movwf	??_white_fad_out
  5977     03F7  0879               	movf	??_white_fad_out,w
  5978     03F8  07FA               	addwf	white_fad_out@ii,f
  5979     03F9                     l2115:
  5980     03F9  3019               	movlw	25
  5981     03FA  027A               	subwf	white_fad_out@ii,w
  5982     03FB  1C03               	skipc
  5983     03FC  2BFE               	goto	u841
  5984     03FD  2BFF               	goto	u840
  5985     03FE                     u841:
  5986     03FE  2BE6               	goto	l2107
  5987     03FF                     u840:
  5988     03FF                     l2117:
  5989                           
  5990                           ;D:/yiming/00work/TY1500_U3_V06.X/LED.c: 243:   }
  5991     03FF  30FF               	movlw	255
  5992     0400  00F9               	movwf	??_white_fad_out
  5993     0401  0879               	movf	??_white_fad_out,w
  5994     0402  07FB               	addwf	white_fad_out@pwm_idx,f
  5995     0403                     l2119:
  5996     0403  1FFB               	btfss	white_fad_out@pwm_idx,7
  5997     0404  2C06               	goto	u851
  5998     0405  2C07               	goto	u850
  5999     0406                     u851:
  6000     0406  2BDF               	goto	l400
  6001     0407                     u850:
  6002     0407                     l405:
  6003     0407  0008               	return
  6004     0408                     __end_of_white_fad_out:
  6005                           
  6006                           	psect	text42
  6007     0351                     __ptext42:	
  6008 ;; *************** function _tellow_seg1_backward *****************
  6009 ;; Defined at:
  6010 ;;		line 327 in file "D:/yiming/00work/TY1500_U3_V06.X/LED.c"
  6011 ;; Parameters:    Size  Location     Type
  6012 ;;		None
  6013 ;; Auto vars:     Size  Location     Type
  6014 ;;  ii              1    3[COMMON] unsigned char 
  6015 ;;  pwm_idx         1    4[COMMON] char 
  6016 ;; Return value:  Size  Location     Type
  6017 ;;                  1    wreg      void 
  6018 ;; Registers used:
  6019 ;;		wreg, status,2, status,0, pclath, cstack
  6020 ;; Tracked objects:
  6021 ;;		On entry : 0/0
  6022 ;;		On exit  : 0/0
  6023 ;;		Unchanged: 0/0
  6024 ;; Data sizes:     COMMON   BANK0   BANK1   BANK2   BANK3   BANK4   BANK5   BANK6
  6025 ;;      Params:         0       0       0       0       0       0       0       0
  6026 ;;      Locals:         2       0       0       0       0       0       0       0
  6027 ;;      Temps:          1       0       0       0       0       0       0       0
  6028 ;;      Totals:         3       0       0       0       0       0       0       0
  6029 ;;Total ram usage:        3 bytes
  6030 ;; Hardware stack levels used: 1
  6031 ;; Hardware stack levels required when called: 4
  6032 ;; This function calls:
  6033 ;;		_delay_us
  6034 ;; This function is called by:
  6035 ;;		_check_welcome_light
  6036 ;; This function uses a non-reentrant model
  6037 ;;
  6038                           
  6039     0351                     _tellow_seg1_backward:	
  6040                           ;psect for function _tellow_seg1_backward
  6041                           
  6042     0351                     l2237:	
  6043                           ;incstack = 0
  6044                           ; Regs used in _tellow_seg1_backward: [wreg+status,2+status,0+pclath+cstack]
  6045                           
  6046                           
  6047                           ;D:/yiming/00work/TY1500_U3_V06.X/LED.c: 328:   for (int8_t pwm_idx = 10; pwm_idx > 0; p
      +                          wm_idx--) {
  6048     0351  300A               	movlw	10
  6049     0352  00FB               	movwf	tellow_seg1_backward@pwm_idx
  6050     0353                     l440:
  6051                           
  6052                           ;D:/yiming/00work/TY1500_U3_V06.X/LED.c: 329:     if (PORTBbits.RB1)
  6053     0353  0020               	movlb	0	; select bank0
  6054     0354  1C8D               	btfss	13,1	;volatile
  6055     0355  2B57               	goto	u981
  6056     0356  2B58               	goto	u980
  6057     0357                     u981:
  6058     0357  2B59               	goto	l2243
  6059     0358                     u980:
  6060     0358  2B80               	goto	l445
  6061     0359                     l2243:
  6062                           
  6063                           ;D:/yiming/00work/TY1500_U3_V06.X/LED.c: 331:     for (uint8_t ii = 0; ii < 7; ii++) {
  6064     0359  01FA               	clrf	tellow_seg1_backward@ii
  6065     035A                     l443:
  6066                           
  6067                           ;D:/yiming/00work/TY1500_U3_V06.X/LED.c: 332:       LATAbits.LATA5 = 1;
  6068     035A  0022               	movlb	2	; select bank2
  6069     035B  168C               	bsf	12,5	;volatile
  6070                           
  6071                           ;D:/yiming/00work/TY1500_U3_V06.X/LED.c: 333:       LATAbits.LATA0 = 1;
  6072     035C  140C               	bsf	12,0	;volatile
  6073                           
  6074                           ;D:/yiming/00work/TY1500_U3_V06.X/LED.c: 334:       LATAbits.LATA1 = 1;
  6075     035D  148C               	bsf	12,1	;volatile
  6076     035E                     l2249:
  6077                           
  6078                           ;D:/yiming/00work/TY1500_U3_V06.X/LED.c: 335:       delay_us(pwm_idx);
  6079     035E  087B               	movf	tellow_seg1_backward@pwm_idx,w
  6080     035F  3184  24B0  3183   	fcall	_delay_us
  6081     0362                     l2251:
  6082                           
  6083                           ;D:/yiming/00work/TY1500_U3_V06.X/LED.c: 336:       LATAbits.LATA5 = 0;
  6084     0362  0022               	movlb	2	; select bank2
  6085     0363  128C               	bcf	12,5	;volatile
  6086     0364                     l2253:
  6087                           
  6088                           ;D:/yiming/00work/TY1500_U3_V06.X/LED.c: 337:       LATAbits.LATA0 = 0;
  6089     0364  100C               	bcf	12,0	;volatile
  6090     0365                     l2255:
  6091                           
  6092                           ;D:/yiming/00work/TY1500_U3_V06.X/LED.c: 338:       LATAbits.LATA1 = 0;
  6093     0365  108C               	bcf	12,1	;volatile
  6094                           
  6095                           ;D:/yiming/00work/TY1500_U3_V06.X/LED.c: 339:       delay_us(10 - pwm_idx);
  6096     0366  087B               	movf	tellow_seg1_backward@pwm_idx,w
  6097     0367  3C0A               	sublw	10
  6098     0368  3184  24B0  3183   	fcall	_delay_us
  6099     036B                     l2257:
  6100                           
  6101                           ;D:/yiming/00work/TY1500_U3_V06.X/LED.c: 340:     }
  6102     036B  3001               	movlw	1
  6103     036C  00F9               	movwf	??_tellow_seg1_backward
  6104     036D  0879               	movf	??_tellow_seg1_backward,w
  6105     036E  07FA               	addwf	tellow_seg1_backward@ii,f
  6106     036F                     l2259:
  6107     036F  3007               	movlw	7
  6108     0370  027A               	subwf	tellow_seg1_backward@ii,w
  6109     0371  1C03               	skipc
  6110     0372  2B74               	goto	u991
  6111     0373  2B75               	goto	u990
  6112     0374                     u991:
  6113     0374  2B5A               	goto	l443
  6114     0375                     u990:
  6115     0375                     l2261:
  6116                           
  6117                           ;D:/yiming/00work/TY1500_U3_V06.X/LED.c: 341:   }
  6118     0375  30FF               	movlw	255
  6119     0376  00F9               	movwf	??_tellow_seg1_backward
  6120     0377  0879               	movf	??_tellow_seg1_backward,w
  6121     0378  07FB               	addwf	tellow_seg1_backward@pwm_idx,f
  6122     0379                     l2263:
  6123     0379  087B               	movf	tellow_seg1_backward@pwm_idx,w
  6124     037A  3A80               	xorlw	128
  6125     037B  3E7F               	addlw	-129
  6126     037C  1803               	skipnc
  6127     037D  2B7F               	goto	u1001
  6128     037E  2B80               	goto	u1000
  6129     037F                     u1001:
  6130     037F  2B53               	goto	l440
  6131     0380                     u1000:
  6132     0380                     l445:
  6133     0380  0008               	return
  6134     0381                     __end_of_tellow_seg1_backward:
  6135                           
  6136                           	psect	text43
  6137     04B0                     __ptext43:	
  6138 ;; *************** function _delay_us *****************
  6139 ;; Defined at:
  6140 ;;		line 200 in file "D:/yiming/00work/TY1500_U3_V06.X/LED.c"
  6141 ;; Parameters:    Size  Location     Type
  6142 ;;  us              1    wreg     char 
  6143 ;; Auto vars:     Size  Location     Type
  6144 ;;  us              1    1[COMMON] char 
  6145 ;; Return value:  Size  Location     Type
  6146 ;;                  1    wreg      void 
  6147 ;; Registers used:
  6148 ;;		wreg, status,2, status,0
  6149 ;; Tracked objects:
  6150 ;;		On entry : 0/0
  6151 ;;		On exit  : 0/0
  6152 ;;		Unchanged: 0/0
  6153 ;; Data sizes:     COMMON   BANK0   BANK1   BANK2   BANK3   BANK4   BANK5   BANK6
  6154 ;;      Params:         0       0       0       0       0       0       0       0
  6155 ;;      Locals:         1       0       0       0       0       0       0       0
  6156 ;;      Temps:          1       0       0       0       0       0       0       0
  6157 ;;      Totals:         2       0       0       0       0       0       0       0
  6158 ;;Total ram usage:        2 bytes
  6159 ;; Hardware stack levels used: 1
  6160 ;; Hardware stack levels required when called: 3
  6161 ;; This function calls:
  6162 ;;		Nothing
  6163 ;; This function is called by:
  6164 ;;		_yellow_to_white
  6165 ;;		_white_fad_out
  6166 ;;		_yellow_seg1_forward
  6167 ;;		_yellow_seg2_forward
  6168 ;;		_yellow_seg3_forward
  6169 ;;		_yellow_seg4_forward
  6170 ;;		_tellow_seg1_backward
  6171 ;;		_yellow_seg2_backward
  6172 ;;		_yellow_seg3_backward
  6173 ;;		_yellow_seg4_backward
  6174 ;; This function uses a non-reentrant model
  6175 ;;
  6176                           
  6177     04B0                     _delay_us:	
  6178                           ;psect for function _delay_us
  6179                           
  6180                           
  6181                           ;incstack = 0
  6182                           ; Regs used in _delay_us: [wreg+status,2+status,0]
  6183                           ;delay_us@us stored from wreg
  6184     04B0  00F8               	movwf	delay_us@us
  6185     04B1                     l2011:
  6186                           
  6187                           ;D:/yiming/00work/TY1500_U3_V06.X/LED.c: 201:   while (us--)
  6188     04B1  2CB8               	goto	l2015
  6189     04B2                     l2013:
  6190                           
  6191                           ;D:/yiming/00work/TY1500_U3_V06.X/LED.c: 202:     _delay((unsigned long)((148)*(32000000
      +                          /4000000.0)));
  6192     04B2  30EC               	movlw	236
  6193     04B3                     u1517:
  6194     04B3  3200               	nop2
  6195     04B4  0B89               	decfsz	9,f
  6196     04B5  2CB3               	goto	u1517
  6197     04B6  3200               	nop2
  6198     04B7  3200               	nop2
  6199     04B8                     l2015:
  6200                           
  6201                           ;D:/yiming/00work/TY1500_U3_V06.X/LED.c: 201:   while (us--)
  6202     04B8  30FF               	movlw	255
  6203     04B9  00F7               	movwf	??_delay_us
  6204     04BA  0877               	movf	??_delay_us,w
  6205     04BB  07F8               	addwf	delay_us@us,f
  6206     04BC  0A78               	incf	delay_us@us,w
  6207     04BD  1D03               	btfss	3,2
  6208     04BE  2CC0               	goto	u771
  6209     04BF  2CC1               	goto	u770
  6210     04C0                     u771:
  6211     04C0  2CB2               	goto	l2013
  6212     04C1                     u770:
  6213     04C1                     l382:
  6214     04C1  0008               	return
  6215     04C2                     __end_of_delay_us:
  6216                           
  6217                           	psect	text44
  6218     0408                     __ptext44:	
  6219 ;; *************** function _delay_ms *****************
  6220 ;; Defined at:
  6221 ;;		line 206 in file "D:/yiming/00work/TY1500_U3_V06.X/LED.c"
  6222 ;; Parameters:    Size  Location     Type
  6223 ;;  ms              2    0[COMMON] unsigned short 
  6224 ;; Auto vars:     Size  Location     Type
  6225 ;;		None
  6226 ;; Return value:  Size  Location     Type
  6227 ;;                  1    wreg      void 
  6228 ;; Registers used:
  6229 ;;		wreg, status,2, status,0
  6230 ;; Tracked objects:
  6231 ;;		On entry : 0/0
  6232 ;;		On exit  : 0/0
  6233 ;;		Unchanged: 0/0
  6234 ;; Data sizes:     COMMON   BANK0   BANK1   BANK2   BANK3   BANK4   BANK5   BANK6
  6235 ;;      Params:         2       0       0       0       0       0       0       0
  6236 ;;      Locals:         0       0       0       0       0       0       0       0
  6237 ;;      Temps:          1       0       0       0       0       0       0       0
  6238 ;;      Totals:         3       0       0       0       0       0       0       0
  6239 ;;Total ram usage:        3 bytes
  6240 ;; Hardware stack levels used: 1
  6241 ;; Hardware stack levels required when called: 3
  6242 ;; This function calls:
  6243 ;;		Nothing
  6244 ;; This function is called by:
  6245 ;;		_check_welcome_light
  6246 ;; This function uses a non-reentrant model
  6247 ;;
  6248                           
  6249     0408                     _delay_ms:	
  6250                           ;psect for function _delay_ms
  6251                           
  6252     0408                     l2051:	
  6253                           ;incstack = 0
  6254                           ; Regs used in _delay_ms: [wreg+status,2+status,0]
  6255                           
  6256                           
  6257                           ;D:/yiming/00work/TY1500_U3_V06.X/LED.c: 207:   while (ms--) {
  6258     0408  2C16               	goto	l2057
  6259     0409                     l386:
  6260                           
  6261                           ;D:/yiming/00work/TY1500_U3_V06.X/LED.c: 208:     if (PORTBbits.RB1) {
  6262     0409  0020               	movlb	0	; select bank0
  6263     040A  1C8D               	btfss	13,1	;volatile
  6264     040B  2C0D               	goto	u781
  6265     040C  2C0E               	goto	u780
  6266     040D                     u781:
  6267     040D  2C0F               	goto	l2055
  6268     040E                     u780:
  6269     040E  2C22               	goto	l389
  6270     040F                     l2055:
  6271                           
  6272                           ;D:/yiming/00work/TY1500_U3_V06.X/LED.c: 211:     _delay((unsigned long)((990)*(32000000
      +                          /4000000.0)));
  6273     040F  300B               	movlw	11
  6274     0410  00F9               	movwf	??_delay_ms
  6275     0411  3048               	movlw	72
  6276     0412                     u1527:
  6277     0412  0B89               	decfsz	9,f
  6278     0413  2C12               	goto	u1527
  6279     0414  0BF9               	decfsz	??_delay_ms,f
  6280     0415  2C12               	goto	u1527
  6281     0416                     l2057:
  6282                           
  6283                           ;D:/yiming/00work/TY1500_U3_V06.X/LED.c: 207:   while (ms--) {
  6284     0416  3001               	movlw	1
  6285     0417  02F7               	subwf	delay_ms@ms,f
  6286     0418  3000               	movlw	0
  6287     0419  3BF8               	subwfb	delay_ms@ms+1,f
  6288     041A  0A77               	incf	delay_ms@ms,w
  6289     041B  1D03               	skipz
  6290     041C  2C21               	goto	u791
  6291     041D  0A78               	incf	delay_ms@ms+1,w
  6292     041E  1D03               	btfss	3,2
  6293     041F  2C21               	goto	u791
  6294     0420  2C22               	goto	u790
  6295     0421                     u791:
  6296     0421  2C09               	goto	l386
  6297     0422                     u790:
  6298     0422                     l389:
  6299     0422  0008               	return
  6300     0423                     __end_of_delay_ms:
  6301                           
  6302                           	psect	text45
  6303     053F                     __ptext45:	
  6304 ;; *************** function _all_led_off *****************
  6305 ;; Defined at:
  6306 ;;		line 178 in file "D:/yiming/00work/TY1500_U3_V06.X/LED.c"
  6307 ;; Parameters:    Size  Location     Type
  6308 ;;		None
  6309 ;; Auto vars:     Size  Location     Type
  6310 ;;		None
  6311 ;; Return value:  Size  Location     Type
  6312 ;;                  1    wreg      void 
  6313 ;; Registers used:
  6314 ;;		wreg, status,2, status,0, pclath, cstack
  6315 ;; Tracked objects:
  6316 ;;		On entry : 0/0
  6317 ;;		On exit  : 0/0
  6318 ;;		Unchanged: 0/0
  6319 ;; Data sizes:     COMMON   BANK0   BANK1   BANK2   BANK3   BANK4   BANK5   BANK6
  6320 ;;      Params:         0       0       0       0       0       0       0       0
  6321 ;;      Locals:         0       0       0       0       0       0       0       0
  6322 ;;      Temps:          0       0       0       0       0       0       0       0
  6323 ;;      Totals:         0       0       0       0       0       0       0       0
  6324 ;;Total ram usage:        0 bytes
  6325 ;; Hardware stack levels used: 1
  6326 ;; Hardware stack levels required when called: 5
  6327 ;; This function calls:
  6328 ;;		_PWM_turn_signals
  6329 ;;		_all_white_led_turn_off
  6330 ;;		_all_yellow_led_turn_off
  6331 ;; This function is called by:
  6332 ;;		_turn_signals_state_update
  6333 ;;		_turn_on_turn_signals
  6334 ;;		_check_welcome_light
  6335 ;;		_LED_main
  6336 ;; This function uses a non-reentrant model
  6337 ;;
  6338                           
  6339     053F                     _all_led_off:	
  6340                           ;psect for function _all_led_off
  6341                           
  6342     053F                     l2041:	
  6343                           ;incstack = 0
  6344                           ; Regs used in _all_led_off: [wreg+status,2+status,0+pclath+cstack]
  6345                           
  6346                           
  6347                           ;D:/yiming/00work/TY1500_U3_V06.X/LED.c: 179:   all_yellow_led_turn_off();
  6348     053F  3185  2578  3185   	fcall	_all_yellow_led_turn_off
  6349     0542                     l2043:
  6350                           
  6351                           ;D:/yiming/00work/TY1500_U3_V06.X/LED.c: 180:   all_white_led_turn_off();
  6352     0542  3185  25D2  3185   	fcall	_all_white_led_turn_off
  6353     0545                     l2045:
  6354                           
  6355                           ;D:/yiming/00work/TY1500_U3_V06.X/LED.c: 181:   PWM_turn_signals();
  6356     0545  3185  2551  3185   	fcall	_PWM_turn_signals
  6357     0548                     l355:
  6358     0548  0008               	return
  6359     0549                     __end_of_all_led_off:
  6360                           
  6361                           	psect	text46
  6362     0551                     __ptext46:	
  6363 ;; *************** function _PWM_turn_signals *****************
  6364 ;; Defined at:
  6365 ;;		line 144 in file "D:/yiming/00work/TY1500_U3_V06.X/LED.c"
  6366 ;; Parameters:    Size  Location     Type
  6367 ;;		None
  6368 ;; Auto vars:     Size  Location     Type
  6369 ;;		None
  6370 ;; Return value:  Size  Location     Type
  6371 ;;                  1    wreg      void 
  6372 ;; Registers used:
  6373 ;;		wreg, status,2, status,0, pclath, cstack
  6374 ;; Tracked objects:
  6375 ;;		On entry : 0/0
  6376 ;;		On exit  : 0/0
  6377 ;;		Unchanged: 0/0
  6378 ;; Data sizes:     COMMON   BANK0   BANK1   BANK2   BANK3   BANK4   BANK5   BANK6
  6379 ;;      Params:         0       0       0       0       0       0       0       0
  6380 ;;      Locals:         0       0       0       0       0       0       0       0
  6381 ;;      Temps:          0       0       0       0       0       0       0       0
  6382 ;;      Totals:         0       0       0       0       0       0       0       0
  6383 ;;Total ram usage:        0 bytes
  6384 ;; Hardware stack levels used: 1
  6385 ;; Hardware stack levels required when called: 4
  6386 ;; This function calls:
  6387 ;;		_EPWM1_LoadDutyValue
  6388 ;; This function is called by:
  6389 ;;		_all_led_off
  6390 ;; This function uses a non-reentrant model
  6391 ;;
  6392                           
  6393     0551                     _PWM_turn_signals:	
  6394                           ;psect for function _PWM_turn_signals
  6395                           
  6396     0551                     l2009:	
  6397                           ;incstack = 0
  6398                           ; Regs used in _PWM_turn_signals: [wreg+status,2+status,0+pclath+cstack]
  6399                           
  6400     0551  3020               	movlw	32
  6401     0552  00F7               	movwf	EPWM1_LoadDutyValue@dutyValue
  6402     0553  3003               	movlw	3
  6403     0554  00F8               	movwf	EPWM1_LoadDutyValue@dutyValue+1
  6404     0555  3184  2486  3185   	fcall	_EPWM1_LoadDutyValue
  6405     0558                     l335:
  6406     0558  0008               	return
  6407     0559                     __end_of_PWM_turn_signals:
  6408                           
  6409                           	psect	text47
  6410     04C2                     __ptext47:	
  6411 ;; *************** function _check_test_mode *****************
  6412 ;; Defined at:
  6413 ;;		line 395 in file "D:/yiming/00work/TY1500_U3_V06.X/LED.c"
  6414 ;; Parameters:    Size  Location     Type
  6415 ;;		None
  6416 ;; Auto vars:     Size  Location     Type
  6417 ;;		None
  6418 ;; Return value:  Size  Location     Type
  6419 ;;                  1    wreg      void 
  6420 ;; Registers used:
  6421 ;;		wreg
  6422 ;; Tracked objects:
  6423 ;;		On entry : 0/0
  6424 ;;		On exit  : 0/0
  6425 ;;		Unchanged: 0/0
  6426 ;; Data sizes:     COMMON   BANK0   BANK1   BANK2   BANK3   BANK4   BANK5   BANK6
  6427 ;;      Params:         0       0       0       0       0       0       0       0
  6428 ;;      Locals:         0       0       0       0       0       0       0       0
  6429 ;;      Temps:          0       0       0       0       0       0       0       0
  6430 ;;      Totals:         0       0       0       0       0       0       0       0
  6431 ;;Total ram usage:        0 bytes
  6432 ;; Hardware stack levels used: 1
  6433 ;; Hardware stack levels required when called: 3
  6434 ;; This function calls:
  6435 ;;		Nothing
  6436 ;; This function is called by:
  6437 ;;		_LED_main
  6438 ;; This function uses a non-reentrant model
  6439 ;;
  6440                           
  6441     04C2                     _check_test_mode:	
  6442                           ;psect for function _check_test_mode
  6443                           
  6444     04C2                     l2443:	
  6445                           ;incstack = 0
  6446                           ; Regs used in _check_test_mode: [wreg]
  6447                           
  6448                           
  6449                           ;D:/yiming/00work/TY1500_U3_V06.X/LED.c: 396:   if (ORB.TEST) {
  6450     04C2  1E75               	btfss	_ORB,4
  6451     04C3  2CC5               	goto	u1271
  6452     04C4  2CC6               	goto	u1270
  6453     04C5                     u1271:
  6454     04C5  2CCC               	goto	l2447
  6455     04C6                     u1270:
  6456     04C6                     l2445:
  6457                           
  6458                           ;D:/yiming/00work/TY1500_U3_V06.X/LED.c: 397:     tDelay_ms = 250;
  6459     04C6  30FA               	movlw	250
  6460     04C7  0020               	movlb	0	; select bank0
  6461     04C8  00AF               	movwf	_tDelay_ms
  6462     04C9  3000               	movlw	0
  6463     04CA  00B0               	movwf	_tDelay_ms+1
  6464                           
  6465                           ;D:/yiming/00work/TY1500_U3_V06.X/LED.c: 398:   } else {
  6466     04CB  2CD1               	goto	l474
  6467     04CC                     l2447:
  6468                           
  6469                           ;D:/yiming/00work/TY1500_U3_V06.X/LED.c: 399:     tDelay_ms = 57;
  6470     04CC  3039               	movlw	57
  6471     04CD  0020               	movlb	0	; select bank0
  6472     04CE  00AF               	movwf	_tDelay_ms
  6473     04CF  3000               	movlw	0
  6474     04D0  00B0               	movwf	_tDelay_ms+1
  6475     04D1                     l474:
  6476     04D1  0008               	return
  6477     04D2                     __end_of_check_test_mode:
  6478                           
  6479                           	psect	text48
  6480     0533                     __ptext48:	
  6481 ;; *************** function _check_POS_P2 *****************
  6482 ;; Defined at:
  6483 ;;		line 404 in file "D:/yiming/00work/TY1500_U3_V06.X/LED.c"
  6484 ;; Parameters:    Size  Location     Type
  6485 ;;		None
  6486 ;; Auto vars:     Size  Location     Type
  6487 ;;		None
  6488 ;; Return value:  Size  Location     Type
  6489 ;;                  1    wreg      void 
  6490 ;; Registers used:
  6491 ;;		status,2, status,0, pclath, cstack
  6492 ;; Tracked objects:
  6493 ;;		On entry : 0/0
  6494 ;;		On exit  : 0/0
  6495 ;;		Unchanged: 0/0
  6496 ;; Data sizes:     COMMON   BANK0   BANK1   BANK2   BANK3   BANK4   BANK5   BANK6
  6497 ;;      Params:         0       0       0       0       0       0       0       0
  6498 ;;      Locals:         0       0       0       0       0       0       0       0
  6499 ;;      Temps:          0       0       0       0       0       0       0       0
  6500 ;;      Totals:         0       0       0       0       0       0       0       0
  6501 ;;Total ram usage:        0 bytes
  6502 ;; Hardware stack levels used: 1
  6503 ;; Hardware stack levels required when called: 4
  6504 ;; This function calls:
  6505 ;;		_P2_off
  6506 ;;		_P2_on
  6507 ;; This function is called by:
  6508 ;;		_LED_main
  6509 ;; This function uses a non-reentrant model
  6510 ;;
  6511                           
  6512     0533                     _check_POS_P2:	
  6513                           ;psect for function _check_POS_P2
  6514                           
  6515     0533                     l2449:	
  6516                           ;incstack = 0
  6517                           ; Regs used in _check_POS_P2: [status,2+status,0+pclath+cstack]
  6518                           
  6519                           
  6520                           ;D:/yiming/00work/TY1500_U3_V06.X/LED.c: 405:   if (ORB.POS) {
  6521     0533  1D75               	btfss	_ORB,2
  6522     0534  2D36               	goto	u1281
  6523     0535  2D37               	goto	u1280
  6524     0536                     u1281:
  6525     0536  2D3B               	goto	l2453
  6526     0537                     u1280:
  6527     0537                     l2451:
  6528                           
  6529                           ;D:/yiming/00work/TY1500_U3_V06.X/LED.c: 406:     P2_on();
  6530     0537  3185  25C9  3185   	fcall	_P2_on
  6531                           
  6532                           ;D:/yiming/00work/TY1500_U3_V06.X/LED.c: 407:   } else {
  6533     053A  2D3E               	goto	l479
  6534     053B                     l2453:
  6535                           
  6536                           ;D:/yiming/00work/TY1500_U3_V06.X/LED.c: 408:     P2_off();
  6537     053B  3185  25CC  3185   	fcall	_P2_off
  6538     053E                     l479:
  6539     053E  0008               	return
  6540     053F                     __end_of_check_POS_P2:
  6541                           
  6542                           	psect	text49
  6543     05C9                     __ptext49:	
  6544 ;; *************** function _P2_on *****************
  6545 ;; Defined at:
  6546 ;;		line 138 in file "D:/yiming/00work/TY1500_U3_V06.X/LED.c"
  6547 ;; Parameters:    Size  Location     Type
  6548 ;;		None
  6549 ;; Auto vars:     Size  Location     Type
  6550 ;;		None
  6551 ;; Return value:  Size  Location     Type
  6552 ;;                  1    wreg      void 
  6553 ;; Registers used:
  6554 ;;		None
  6555 ;; Tracked objects:
  6556 ;;		On entry : 0/0
  6557 ;;		On exit  : 0/0
  6558 ;;		Unchanged: 0/0
  6559 ;; Data sizes:     COMMON   BANK0   BANK1   BANK2   BANK3   BANK4   BANK5   BANK6
  6560 ;;      Params:         0       0       0       0       0       0       0       0
  6561 ;;      Locals:         0       0       0       0       0       0       0       0
  6562 ;;      Temps:          0       0       0       0       0       0       0       0
  6563 ;;      Totals:         0       0       0       0       0       0       0       0
  6564 ;;Total ram usage:        0 bytes
  6565 ;; Hardware stack levels used: 1
  6566 ;; Hardware stack levels required when called: 3
  6567 ;; This function calls:
  6568 ;;		Nothing
  6569 ;; This function is called by:
  6570 ;;		_check_POS_P2
  6571 ;; This function uses a non-reentrant model
  6572 ;;
  6573                           
  6574     05C9                     _P2_on:	
  6575                           ;psect for function _P2_on
  6576                           
  6577     05C9                     l319:	
  6578                           ;incstack = 0
  6579                           ; Regs used in _P2_on: []
  6580                           
  6581     05C9  0022               	movlb	2	; select bank2
  6582     05CA  160E               	bsf	14,4	;volatile
  6583     05CB                     l321:
  6584     05CB  0008               	return
  6585     05CC                     __end_of_P2_on:
  6586                           
  6587                           	psect	text50
  6588     05CC                     __ptext50:	
  6589 ;; *************** function _P2_off *****************
  6590 ;; Defined at:
  6591 ;;		line 139 in file "D:/yiming/00work/TY1500_U3_V06.X/LED.c"
  6592 ;; Parameters:    Size  Location     Type
  6593 ;;		None
  6594 ;; Auto vars:     Size  Location     Type
  6595 ;;		None
  6596 ;; Return value:  Size  Location     Type
  6597 ;;                  1    wreg      void 
  6598 ;; Registers used:
  6599 ;;		None
  6600 ;; Tracked objects:
  6601 ;;		On entry : 0/0
  6602 ;;		On exit  : 0/0
  6603 ;;		Unchanged: 0/0
  6604 ;; Data sizes:     COMMON   BANK0   BANK1   BANK2   BANK3   BANK4   BANK5   BANK6
  6605 ;;      Params:         0       0       0       0       0       0       0       0
  6606 ;;      Locals:         0       0       0       0       0       0       0       0
  6607 ;;      Temps:          0       0       0       0       0       0       0       0
  6608 ;;      Totals:         0       0       0       0       0       0       0       0
  6609 ;;Total ram usage:        0 bytes
  6610 ;; Hardware stack levels used: 1
  6611 ;; Hardware stack levels required when called: 3
  6612 ;; This function calls:
  6613 ;;		Nothing
  6614 ;; This function is called by:
  6615 ;;		_check_POS_P2
  6616 ;; This function uses a non-reentrant model
  6617 ;;
  6618                           
  6619     05CC                     _P2_off:	
  6620                           ;psect for function _P2_off
  6621                           
  6622     05CC                     l324:	
  6623                           ;incstack = 0
  6624                           ; Regs used in _P2_off: []
  6625                           
  6626     05CC  0022               	movlb	2	; select bank2
  6627     05CD  120E               	bcf	14,4	;volatile
  6628     05CE                     l326:
  6629     05CE  0008               	return
  6630     05CF                     __end_of_P2_off:
  6631                           
  6632                           	psect	text51
  6633     0423                     __ptext51:	
  6634 ;; *************** function _POS_on *****************
  6635 ;; Defined at:
  6636 ;;		line 163 in file "D:/yiming/00work/TY1500_U3_V06.X/LED.c"
  6637 ;; Parameters:    Size  Location     Type
  6638 ;;		None
  6639 ;; Auto vars:     Size  Location     Type
  6640 ;;		None
  6641 ;; Return value:  Size  Location     Type
  6642 ;;                  1    wreg      void 
  6643 ;; Registers used:
  6644 ;;		wreg, status,2, status,0, pclath, cstack
  6645 ;; Tracked objects:
  6646 ;;		On entry : 0/0
  6647 ;;		On exit  : 0/0
  6648 ;;		Unchanged: 0/0
  6649 ;; Data sizes:     COMMON   BANK0   BANK1   BANK2   BANK3   BANK4   BANK5   BANK6
  6650 ;;      Params:         0       0       0       0       0       0       0       0
  6651 ;;      Locals:         0       0       0       0       0       0       0       0
  6652 ;;      Temps:          0       0       0       0       0       0       0       0
  6653 ;;      Totals:         0       0       0       0       0       0       0       0
  6654 ;;Total ram usage:        0 bytes
  6655 ;; Hardware stack levels used: 1
  6656 ;; Hardware stack levels required when called: 5
  6657 ;; This function calls:
  6658 ;;		_PWM_POS
  6659 ;;		_all_white_led_turn_off
  6660 ;;		_all_white_led_turn_on
  6661 ;;		_all_yellow_led_turn_off
  6662 ;;		_all_yellow_led_turn_on
  6663 ;; This function is called by:
  6664 ;;		_LED_main
  6665 ;; This function uses a non-reentrant model
  6666 ;;
  6667                           
  6668     0423                     _POS_on:	
  6669                           ;psect for function _POS_on
  6670                           
  6671     0423                     l2425:	
  6672                           ;incstack = 0
  6673                           ; Regs used in _POS_on: [wreg+status,2+status,0+pclath+cstack]
  6674                           
  6675                           
  6676                           ;D:/yiming/00work/TY1500_U3_V06.X/LED.c: 164:   if (ORB.WHITE) {
  6677     0423  1DF5               	btfss	_ORB,3
  6678     0424  2C26               	goto	u1251
  6679     0425  2C27               	goto	u1250
  6680     0426                     u1251:
  6681     0426  2C2B               	goto	l2429
  6682     0427                     u1250:
  6683     0427                     l2427:
  6684                           
  6685                           ;D:/yiming/00work/TY1500_U3_V06.X/LED.c: 165:     all_yellow_led_turn_off();
  6686     0427  3185  2578  3184   	fcall	_all_yellow_led_turn_off
  6687                           
  6688                           ;D:/yiming/00work/TY1500_U3_V06.X/LED.c: 166:   } else {
  6689     042A  2C2E               	goto	l2431
  6690     042B                     l2429:
  6691                           
  6692                           ;D:/yiming/00work/TY1500_U3_V06.X/LED.c: 167:     all_white_led_turn_off();
  6693     042B  3185  25D2  3184   	fcall	_all_white_led_turn_off
  6694     042E                     l2431:
  6695                           
  6696                           ;D:/yiming/00work/TY1500_U3_V06.X/LED.c: 169:   PWM_POS();
  6697     042E  3185  2559  3184   	fcall	_PWM_POS
  6698     0431                     l2433:
  6699                           
  6700                           ;D:/yiming/00work/TY1500_U3_V06.X/LED.c: 170:   if (ORB.WHITE) {
  6701     0431  1DF5               	btfss	_ORB,3
  6702     0432  2C34               	goto	u1261
  6703     0433  2C35               	goto	u1260
  6704     0434                     u1261:
  6705     0434  2C39               	goto	l2437
  6706     0435                     u1260:
  6707     0435                     l2435:
  6708                           
  6709                           ;D:/yiming/00work/TY1500_U3_V06.X/LED.c: 171:     all_white_led_turn_on();
  6710     0435  3185  25CF  3184   	fcall	_all_white_led_turn_on
  6711                           
  6712                           ;D:/yiming/00work/TY1500_U3_V06.X/LED.c: 172:   } else {
  6713     0438  2C3C               	goto	l352
  6714     0439                     l2437:
  6715                           
  6716                           ;D:/yiming/00work/TY1500_U3_V06.X/LED.c: 173:     all_yellow_led_turn_on();
  6717     0439  3185  2561  3184   	fcall	_all_yellow_led_turn_on
  6718     043C                     l352:
  6719     043C  0008               	return
  6720     043D                     __end_of_POS_on:
  6721                           
  6722                           	psect	text52
  6723     0559                     __ptext52:	
  6724 ;; *************** function _PWM_POS *****************
  6725 ;; Defined at:
  6726 ;;		line 143 in file "D:/yiming/00work/TY1500_U3_V06.X/LED.c"
  6727 ;; Parameters:    Size  Location     Type
  6728 ;;		None
  6729 ;; Auto vars:     Size  Location     Type
  6730 ;;		None
  6731 ;; Return value:  Size  Location     Type
  6732 ;;                  1    wreg      void 
  6733 ;; Registers used:
  6734 ;;		wreg, status,2, status,0, pclath, cstack
  6735 ;; Tracked objects:
  6736 ;;		On entry : 0/0
  6737 ;;		On exit  : 0/0
  6738 ;;		Unchanged: 0/0
  6739 ;; Data sizes:     COMMON   BANK0   BANK1   BANK2   BANK3   BANK4   BANK5   BANK6
  6740 ;;      Params:         0       0       0       0       0       0       0       0
  6741 ;;      Locals:         0       0       0       0       0       0       0       0
  6742 ;;      Temps:          0       0       0       0       0       0       0       0
  6743 ;;      Totals:         0       0       0       0       0       0       0       0
  6744 ;;Total ram usage:        0 bytes
  6745 ;; Hardware stack levels used: 1
  6746 ;; Hardware stack levels required when called: 4
  6747 ;; This function calls:
  6748 ;;		_EPWM1_LoadDutyValue
  6749 ;; This function is called by:
  6750 ;;		_POS_on
  6751 ;; This function uses a non-reentrant model
  6752 ;;
  6753                           
  6754     0559                     _PWM_POS:	
  6755                           ;psect for function _PWM_POS
  6756                           
  6757     0559                     l2049:	
  6758                           ;incstack = 0
  6759                           ; Regs used in _PWM_POS: [wreg+status,2+status,0+pclath+cstack]
  6760                           
  6761     0559  3030               	movlw	48
  6762     055A  00F7               	movwf	EPWM1_LoadDutyValue@dutyValue
  6763     055B  3000               	movlw	0
  6764     055C  00F8               	movwf	EPWM1_LoadDutyValue@dutyValue+1
  6765     055D  3184  2486  3185   	fcall	_EPWM1_LoadDutyValue
  6766     0560                     l332:
  6767     0560  0008               	return
  6768     0561                     __end_of_PWM_POS:
  6769                           
  6770                           	psect	text53
  6771     043D                     __ptext53:	
  6772 ;; *************** function _DRL_on *****************
  6773 ;; Defined at:
  6774 ;;		line 148 in file "D:/yiming/00work/TY1500_U3_V06.X/LED.c"
  6775 ;; Parameters:    Size  Location     Type
  6776 ;;		None
  6777 ;; Auto vars:     Size  Location     Type
  6778 ;;		None
  6779 ;; Return value:  Size  Location     Type
  6780 ;;                  1    wreg      void 
  6781 ;; Registers used:
  6782 ;;		wreg, status,2, status,0, pclath, cstack
  6783 ;; Tracked objects:
  6784 ;;		On entry : 0/0
  6785 ;;		On exit  : 0/0
  6786 ;;		Unchanged: 0/0
  6787 ;; Data sizes:     COMMON   BANK0   BANK1   BANK2   BANK3   BANK4   BANK5   BANK6
  6788 ;;      Params:         0       0       0       0       0       0       0       0
  6789 ;;      Locals:         0       0       0       0       0       0       0       0
  6790 ;;      Temps:          0       0       0       0       0       0       0       0
  6791 ;;      Totals:         0       0       0       0       0       0       0       0
  6792 ;;Total ram usage:        0 bytes
  6793 ;; Hardware stack levels used: 1
  6794 ;; Hardware stack levels required when called: 5
  6795 ;; This function calls:
  6796 ;;		_PWM_DRL
  6797 ;;		_all_white_led_turn_off
  6798 ;;		_all_white_led_turn_on
  6799 ;;		_all_yellow_led_turn_off
  6800 ;;		_all_yellow_led_turn_on
  6801 ;; This function is called by:
  6802 ;;		_LED_main
  6803 ;; This function uses a non-reentrant model
  6804 ;;
  6805                           
  6806     043D                     _DRL_on:	
  6807                           ;psect for function _DRL_on
  6808                           
  6809     043D                     l2411:	
  6810                           ;incstack = 0
  6811                           ; Regs used in _DRL_on: [wreg+status,2+status,0+pclath+cstack]
  6812                           
  6813                           
  6814                           ;D:/yiming/00work/TY1500_U3_V06.X/LED.c: 149:   if (ORB.WHITE) {
  6815     043D  1DF5               	btfss	_ORB,3
  6816     043E  2C40               	goto	u1231
  6817     043F  2C41               	goto	u1230
  6818     0440                     u1231:
  6819     0440  2C45               	goto	l2415
  6820     0441                     u1230:
  6821     0441                     l2413:
  6822                           
  6823                           ;D:/yiming/00work/TY1500_U3_V06.X/LED.c: 150:     all_yellow_led_turn_off();
  6824     0441  3185  2578  3184   	fcall	_all_yellow_led_turn_off
  6825                           
  6826                           ;D:/yiming/00work/TY1500_U3_V06.X/LED.c: 151:   } else {
  6827     0444  2C48               	goto	l2417
  6828     0445                     l2415:
  6829                           
  6830                           ;D:/yiming/00work/TY1500_U3_V06.X/LED.c: 152:     all_white_led_turn_off();
  6831     0445  3185  25D2  3184   	fcall	_all_white_led_turn_off
  6832     0448                     l2417:
  6833                           
  6834                           ;D:/yiming/00work/TY1500_U3_V06.X/LED.c: 154:   PWM_DRL();
  6835     0448  3185  2569  3184   	fcall	_PWM_DRL
  6836     044B                     l2419:
  6837                           
  6838                           ;D:/yiming/00work/TY1500_U3_V06.X/LED.c: 155:   if (ORB.WHITE) {
  6839     044B  1DF5               	btfss	_ORB,3
  6840     044C  2C4E               	goto	u1241
  6841     044D  2C4F               	goto	u1240
  6842     044E                     u1241:
  6843     044E  2C53               	goto	l2423
  6844     044F                     u1240:
  6845     044F                     l2421:
  6846                           
  6847                           ;D:/yiming/00work/TY1500_U3_V06.X/LED.c: 156:     all_white_led_turn_on();
  6848     044F  3185  25CF  3184   	fcall	_all_white_led_turn_on
  6849                           
  6850                           ;D:/yiming/00work/TY1500_U3_V06.X/LED.c: 157:   } else {
  6851     0452  2C56               	goto	l345
  6852     0453                     l2423:
  6853                           
  6854                           ;D:/yiming/00work/TY1500_U3_V06.X/LED.c: 158:     all_yellow_led_turn_on();
  6855     0453  3185  2561  3184   	fcall	_all_yellow_led_turn_on
  6856     0456                     l345:
  6857     0456  0008               	return
  6858     0457                     __end_of_DRL_on:
  6859                           
  6860                           	psect	text54
  6861     0561                     __ptext54:	
  6862 ;; *************** function _all_yellow_led_turn_on *****************
  6863 ;; Defined at:
  6864 ;;		line 122 in file "D:/yiming/00work/TY1500_U3_V06.X/LED.c"
  6865 ;; Parameters:    Size  Location     Type
  6866 ;;		None
  6867 ;; Auto vars:     Size  Location     Type
  6868 ;;		None
  6869 ;; Return value:  Size  Location     Type
  6870 ;;                  1    wreg      void 
  6871 ;; Registers used:
  6872 ;;		wreg, status,2, status,0
  6873 ;; Tracked objects:
  6874 ;;		On entry : 0/0
  6875 ;;		On exit  : 0/0
  6876 ;;		Unchanged: 0/0
  6877 ;; Data sizes:     COMMON   BANK0   BANK1   BANK2   BANK3   BANK4   BANK5   BANK6
  6878 ;;      Params:         0       0       0       0       0       0       0       0
  6879 ;;      Locals:         0       0       0       0       0       0       0       0
  6880 ;;      Temps:          1       0       0       0       0       0       0       0
  6881 ;;      Totals:         1       0       0       0       0       0       0       0
  6882 ;;Total ram usage:        1 bytes
  6883 ;; Hardware stack levels used: 1
  6884 ;; Hardware stack levels required when called: 3
  6885 ;; This function calls:
  6886 ;;		Nothing
  6887 ;; This function is called by:
  6888 ;;		_DRL_on
  6889 ;;		_POS_on
  6890 ;;		_yellow_to_white
  6891 ;; This function uses a non-reentrant model
  6892 ;;
  6893                           
  6894     0561                     _all_yellow_led_turn_on:	
  6895                           ;psect for function _all_yellow_led_turn_on
  6896                           
  6897     0561                     l1997:	
  6898                           ;incstack = 0
  6899                           ; Regs used in _all_yellow_led_turn_on: [wreg+status,2+status,0]
  6900                           
  6901                           
  6902                           ;D:/yiming/00work/TY1500_U3_V06.X/LED.c: 123:   LATA |= 0xff;
  6903     0561  30FF               	movlw	255
  6904     0562  0022               	movlb	2	; select bank2
  6905     0563  008C               	movwf	12	;volatile
  6906     0564                     l1999:
  6907                           
  6908                           ;D:/yiming/00work/TY1500_U3_V06.X/LED.c: 124:   LATC |= 0x03;
  6909     0564  3003               	movlw	3
  6910     0565  00F7               	movwf	??_all_yellow_led_turn_on
  6911     0566  0877               	movf	??_all_yellow_led_turn_on,w
  6912     0567  048E               	iorwf	14,f	;volatile
  6913     0568                     l307:
  6914     0568  0008               	return
  6915     0569                     __end_of_all_yellow_led_turn_on:
  6916                           
  6917                           	psect	text55
  6918     0578                     __ptext55:	
  6919 ;; *************** function _all_yellow_led_turn_off *****************
  6920 ;; Defined at:
  6921 ;;		line 128 in file "D:/yiming/00work/TY1500_U3_V06.X/LED.c"
  6922 ;; Parameters:    Size  Location     Type
  6923 ;;		None
  6924 ;; Auto vars:     Size  Location     Type
  6925 ;;		None
  6926 ;; Return value:  Size  Location     Type
  6927 ;;                  1    wreg      void 
  6928 ;; Registers used:
  6929 ;;		wreg, status,2, status,0
  6930 ;; Tracked objects:
  6931 ;;		On entry : 0/0
  6932 ;;		On exit  : 0/0
  6933 ;;		Unchanged: 0/0
  6934 ;; Data sizes:     COMMON   BANK0   BANK1   BANK2   BANK3   BANK4   BANK5   BANK6
  6935 ;;      Params:         0       0       0       0       0       0       0       0
  6936 ;;      Locals:         0       0       0       0       0       0       0       0
  6937 ;;      Temps:          1       0       0       0       0       0       0       0
  6938 ;;      Totals:         1       0       0       0       0       0       0       0
  6939 ;;Total ram usage:        1 bytes
  6940 ;; Hardware stack levels used: 1
  6941 ;; Hardware stack levels required when called: 3
  6942 ;; This function calls:
  6943 ;;		Nothing
  6944 ;; This function is called by:
  6945 ;;		_DRL_on
  6946 ;;		_POS_on
  6947 ;;		_all_led_off
  6948 ;;		_yellow_to_white
  6949 ;; This function uses a non-reentrant model
  6950 ;;
  6951                           
  6952     0578                     _all_yellow_led_turn_off:	
  6953                           ;psect for function _all_yellow_led_turn_off
  6954                           
  6955     0578                     l2001:	
  6956                           ;incstack = 0
  6957                           ; Regs used in _all_yellow_led_turn_off: [wreg+status,2+status,0]
  6958                           
  6959                           
  6960                           ;D:/yiming/00work/TY1500_U3_V06.X/LED.c: 129:   LATA &= 0x00;
  6961     0578  0022               	movlb	2	; select bank2
  6962     0579  018C               	clrf	12	;volatile
  6963     057A                     l2003:
  6964                           
  6965                           ;D:/yiming/00work/TY1500_U3_V06.X/LED.c: 130:   LATC &= 0xFC;
  6966     057A  30FC               	movlw	252
  6967     057B  00F7               	movwf	??_all_yellow_led_turn_off
  6968     057C  0877               	movf	??_all_yellow_led_turn_off,w
  6969     057D  058E               	andwf	14,f	;volatile
  6970     057E                     l310:
  6971     057E  0008               	return
  6972     057F                     __end_of_all_yellow_led_turn_off:
  6973                           
  6974                           	psect	text56
  6975     05CF                     __ptext56:	
  6976 ;; *************** function _all_white_led_turn_on *****************
  6977 ;; Defined at:
  6978 ;;		line 134 in file "D:/yiming/00work/TY1500_U3_V06.X/LED.c"
  6979 ;; Parameters:    Size  Location     Type
  6980 ;;		None
  6981 ;; Auto vars:     Size  Location     Type
  6982 ;;		None
  6983 ;; Return value:  Size  Location     Type
  6984 ;;                  1    wreg      void 
  6985 ;; Registers used:
  6986 ;;		None
  6987 ;; Tracked objects:
  6988 ;;		On entry : 0/0
  6989 ;;		On exit  : 0/0
  6990 ;;		Unchanged: 0/0
  6991 ;; Data sizes:     COMMON   BANK0   BANK1   BANK2   BANK3   BANK4   BANK5   BANK6
  6992 ;;      Params:         0       0       0       0       0       0       0       0
  6993 ;;      Locals:         0       0       0       0       0       0       0       0
  6994 ;;      Temps:          0       0       0       0       0       0       0       0
  6995 ;;      Totals:         0       0       0       0       0       0       0       0
  6996 ;;Total ram usage:        0 bytes
  6997 ;; Hardware stack levels used: 1
  6998 ;; Hardware stack levels required when called: 3
  6999 ;; This function calls:
  7000 ;;		Nothing
  7001 ;; This function is called by:
  7002 ;;		_DRL_on
  7003 ;;		_POS_on
  7004 ;;		_yellow_to_white
  7005 ;;		_white_fad_out
  7006 ;; This function uses a non-reentrant model
  7007 ;;
  7008                           
  7009     05CF                     _all_white_led_turn_on:	
  7010                           ;psect for function _all_white_led_turn_on
  7011                           
  7012     05CF                     l2005:	
  7013                           ;incstack = 0
  7014                           ; Regs used in _all_white_led_turn_on: []
  7015                           
  7016     05CF  0022               	movlb	2	; select bank2
  7017     05D0  158E               	bsf	14,3	;volatile
  7018     05D1                     l313:
  7019     05D1  0008               	return
  7020     05D2                     __end_of_all_white_led_turn_on:
  7021                           
  7022                           	psect	text57
  7023     05D2                     __ptext57:	
  7024 ;; *************** function _all_white_led_turn_off *****************
  7025 ;; Defined at:
  7026 ;;		line 135 in file "D:/yiming/00work/TY1500_U3_V06.X/LED.c"
  7027 ;; Parameters:    Size  Location     Type
  7028 ;;		None
  7029 ;; Auto vars:     Size  Location     Type
  7030 ;;		None
  7031 ;; Return value:  Size  Location     Type
  7032 ;;                  1    wreg      void 
  7033 ;; Registers used:
  7034 ;;		None
  7035 ;; Tracked objects:
  7036 ;;		On entry : 0/0
  7037 ;;		On exit  : 0/0
  7038 ;;		Unchanged: 0/0
  7039 ;; Data sizes:     COMMON   BANK0   BANK1   BANK2   BANK3   BANK4   BANK5   BANK6
  7040 ;;      Params:         0       0       0       0       0       0       0       0
  7041 ;;      Locals:         0       0       0       0       0       0       0       0
  7042 ;;      Temps:          0       0       0       0       0       0       0       0
  7043 ;;      Totals:         0       0       0       0       0       0       0       0
  7044 ;;Total ram usage:        0 bytes
  7045 ;; Hardware stack levels used: 1
  7046 ;; Hardware stack levels required when called: 3
  7047 ;; This function calls:
  7048 ;;		Nothing
  7049 ;; This function is called by:
  7050 ;;		_DRL_on
  7051 ;;		_POS_on
  7052 ;;		_all_led_off
  7053 ;;		_yellow_to_white
  7054 ;;		_white_fad_out
  7055 ;; This function uses a non-reentrant model
  7056 ;;
  7057                           
  7058     05D2                     _all_white_led_turn_off:	
  7059                           ;psect for function _all_white_led_turn_off
  7060                           
  7061     05D2                     l2007:	
  7062                           ;incstack = 0
  7063                           ; Regs used in _all_white_led_turn_off: []
  7064                           
  7065     05D2  0022               	movlb	2	; select bank2
  7066     05D3  118E               	bcf	14,3	;volatile
  7067     05D4                     l316:
  7068     05D4  0008               	return
  7069     05D5                     __end_of_all_white_led_turn_off:
  7070                           
  7071                           	psect	text58
  7072     0569                     __ptext58:	
  7073 ;; *************** function _PWM_DRL *****************
  7074 ;; Defined at:
  7075 ;;		line 142 in file "D:/yiming/00work/TY1500_U3_V06.X/LED.c"
  7076 ;; Parameters:    Size  Location     Type
  7077 ;;		None
  7078 ;; Auto vars:     Size  Location     Type
  7079 ;;		None
  7080 ;; Return value:  Size  Location     Type
  7081 ;;                  1    wreg      void 
  7082 ;; Registers used:
  7083 ;;		wreg, status,2, status,0, pclath, cstack
  7084 ;; Tracked objects:
  7085 ;;		On entry : 0/0
  7086 ;;		On exit  : 0/0
  7087 ;;		Unchanged: 0/0
  7088 ;; Data sizes:     COMMON   BANK0   BANK1   BANK2   BANK3   BANK4   BANK5   BANK6
  7089 ;;      Params:         0       0       0       0       0       0       0       0
  7090 ;;      Locals:         0       0       0       0       0       0       0       0
  7091 ;;      Temps:          0       0       0       0       0       0       0       0
  7092 ;;      Totals:         0       0       0       0       0       0       0       0
  7093 ;;Total ram usage:        0 bytes
  7094 ;; Hardware stack levels used: 1
  7095 ;; Hardware stack levels required when called: 4
  7096 ;; This function calls:
  7097 ;;		_EPWM1_LoadDutyValue
  7098 ;; This function is called by:
  7099 ;;		_DRL_on
  7100 ;; This function uses a non-reentrant model
  7101 ;;
  7102                           
  7103     0569                     _PWM_DRL:	
  7104                           ;psect for function _PWM_DRL
  7105                           
  7106     0569                     l2047:	
  7107                           ;incstack = 0
  7108                           ; Regs used in _PWM_DRL: [wreg+status,2+status,0+pclath+cstack]
  7109                           
  7110     0569  30E0               	movlw	224
  7111     056A  00F7               	movwf	EPWM1_LoadDutyValue@dutyValue
  7112     056B  3001               	movlw	1
  7113     056C  00F8               	movwf	EPWM1_LoadDutyValue@dutyValue+1
  7114     056D  3184  2486  3185   	fcall	_EPWM1_LoadDutyValue
  7115     0570                     l329:
  7116     0570  0008               	return
  7117     0571                     __end_of_PWM_DRL:
  7118                           
  7119                           	psect	text59
  7120     0486                     __ptext59:	
  7121 ;; *************** function _EPWM1_LoadDutyValue *****************
  7122 ;; Defined at:
  7123 ;;		line 90 in file "mcc_generated_files/epwm1.c"
  7124 ;; Parameters:    Size  Location     Type
  7125 ;;  dutyValue       2    0[COMMON] unsigned short 
  7126 ;; Auto vars:     Size  Location     Type
  7127 ;;		None
  7128 ;; Return value:  Size  Location     Type
  7129 ;;                  1    wreg      void 
  7130 ;; Registers used:
  7131 ;;		wreg, status,2, status,0
  7132 ;; Tracked objects:
  7133 ;;		On entry : 0/0
  7134 ;;		On exit  : 0/0
  7135 ;;		Unchanged: 0/0
  7136 ;; Data sizes:     COMMON   BANK0   BANK1   BANK2   BANK3   BANK4   BANK5   BANK6
  7137 ;;      Params:         2       0       0       0       0       0       0       0
  7138 ;;      Locals:         0       0       0       0       0       0       0       0
  7139 ;;      Temps:          2       0       0       0       0       0       0       0
  7140 ;;      Totals:         4       0       0       0       0       0       0       0
  7141 ;;Total ram usage:        4 bytes
  7142 ;; Hardware stack levels used: 1
  7143 ;; Hardware stack levels required when called: 3
  7144 ;; This function calls:
  7145 ;;		Nothing
  7146 ;; This function is called by:
  7147 ;;		_PWM_DRL
  7148 ;;		_PWM_POS
  7149 ;;		_PWM_turn_signals
  7150 ;;		_PWM_all_off
  7151 ;; This function uses a non-reentrant model
  7152 ;;
  7153                           
  7154     0486                     _EPWM1_LoadDutyValue:	
  7155                           ;psect for function _EPWM1_LoadDutyValue
  7156                           
  7157     0486                     l1995:	
  7158                           ;incstack = 0
  7159                           ; Regs used in _EPWM1_LoadDutyValue: [wreg+status,2+status,0]
  7160                           
  7161                           
  7162                           ;mcc_generated_files/epwm1.c: 90: void EPWM1_LoadDutyValue(uint16_t dutyValue);mcc_gener
      +                          ated_files/epwm1.c: 91: {;mcc_generated_files/epwm1.c: 93:     CCPR1L = ((dutyValue & 0x
      +                          03FC)>>2);
  7163     0486  0878               	movf	EPWM1_LoadDutyValue@dutyValue+1,w
  7164     0487  00FA               	movwf	??_EPWM1_LoadDutyValue+1
  7165     0488  0877               	movf	EPWM1_LoadDutyValue@dutyValue,w
  7166     0489  00F9               	movwf	??_EPWM1_LoadDutyValue
  7167     048A  36FA               	lsrf	??_EPWM1_LoadDutyValue+1,f
  7168     048B  0CF9               	rrf	??_EPWM1_LoadDutyValue,f
  7169     048C  36FA               	lsrf	??_EPWM1_LoadDutyValue+1,f
  7170     048D  0CF9               	rrf	??_EPWM1_LoadDutyValue,f
  7171     048E  0879               	movf	??_EPWM1_LoadDutyValue,w
  7172     048F  0025               	movlb	5	; select bank5
  7173     0490  0091               	movwf	17	;volatile
  7174                           
  7175                           ;mcc_generated_files/epwm1.c: 96:     CCP1CON = (uint8_t)((CCP1CON & 0xCF) | ((dutyValue
      +                           & 0x0003)<<4));
  7176     0491  0877               	movf	EPWM1_LoadDutyValue@dutyValue,w
  7177     0492  3903               	andlw	3
  7178     0493  00F9               	movwf	??_EPWM1_LoadDutyValue
  7179     0494  3004               	movlw	4
  7180     0495                     u765:
  7181     0495  35F9               	lslf	??_EPWM1_LoadDutyValue,f
  7182     0496  0B89               	decfsz	9,f
  7183     0497  2C95               	goto	u765
  7184     0498  0813               	movf	19,w	;volatile
  7185     0499  39CF               	andlw	207
  7186     049A  0479               	iorwf	??_EPWM1_LoadDutyValue,w
  7187     049B  0093               	movwf	19	;volatile
  7188     049C                     l88:
  7189     049C  0008               	return
  7190     049D                     __end_of_EPWM1_LoadDutyValue:
  7191                           
  7192                           	psect	intentry
  7193     0004                     __pintentry:	
  7194 ;; *************** function _INTERRUPT_InterruptManager *****************
  7195 ;; Defined at:
  7196 ;;		line 52 in file "mcc_generated_files/interrupt_manager.c"
  7197 ;; Parameters:    Size  Location     Type
  7198 ;;		None
  7199 ;; Auto vars:     Size  Location     Type
  7200 ;;		None
  7201 ;; Return value:  Size  Location     Type
  7202 ;;                  1    wreg      void 
  7203 ;; Registers used:
  7204 ;;		wreg, status,2, status,0, pclath, cstack
  7205 ;; Tracked objects:
  7206 ;;		On entry : 0/0
  7207 ;;		On exit  : 0/0
  7208 ;;		Unchanged: 0/0
  7209 ;; Data sizes:     COMMON   BANK0   BANK1   BANK2   BANK3   BANK4   BANK5   BANK6
  7210 ;;      Params:         0       0       0       0       0       0       0       0
  7211 ;;      Locals:         0       0       0       0       0       0       0       0
  7212 ;;      Temps:          0       0       0       0       0       0       0       0
  7213 ;;      Totals:         0       0       0       0       0       0       0       0
  7214 ;;Total ram usage:        0 bytes
  7215 ;; Hardware stack levels used: 1
  7216 ;; Hardware stack levels required when called: 2
  7217 ;; This function calls:
  7218 ;;		_TMR0_ISR
  7219 ;; This function is called by:
  7220 ;;		Interrupt level 1
  7221 ;; This function uses a non-reentrant model
  7222 ;;
  7223                           
  7224     0004                     _INTERRUPT_InterruptManager:
  7225                           
  7226                           ;incstack = 0
  7227     0004  147E               	bsf	int$flags,0	;set compiler interrupt flag (level 1)
  7228                           
  7229                           ; Regs used in _INTERRUPT_InterruptManager: [wreg+status,2+status,0+pclath+cstack]
  7230     0005  3180               	pagesel	$
  7231     0006                     i1l2683:
  7232                           
  7233                           ;mcc_generated_files/interrupt_manager.c: 55:     if(INTCONbits.TMR0IE == 1 && INTCONbit
      +                          s.TMR0IF == 1)
  7234     0006  1E8B               	btfss	11,5	;volatile
  7235     0007  2809               	goto	u147_21
  7236     0008  280A               	goto	u147_20
  7237     0009                     u147_21:
  7238     0009  2811               	goto	i1l131
  7239     000A                     u147_20:
  7240     000A                     i1l2685:
  7241     000A  1D0B               	btfss	11,2	;volatile
  7242     000B  280D               	goto	u148_21
  7243     000C  280E               	goto	u148_20
  7244     000D                     u148_21:
  7245     000D  2811               	goto	i1l131
  7246     000E                     u148_20:
  7247     000E                     i1l2687:
  7248                           
  7249                           ;mcc_generated_files/interrupt_manager.c: 56:     {;mcc_generated_files/interrupt_manage
      +                          r.c: 57:         TMR0_ISR();
  7250     000E  3184  24D2  3180   	fcall	_TMR0_ISR
  7251     0011                     i1l131:	
  7252                           ;mcc_generated_files/interrupt_manager.c: 58:     }
  7253                           
  7254     0011  107E               	bcf	int$flags,0	;clear compiler interrupt flag (level 1)
  7255     0012  0009               	retfie
  7256     0013                     __end_of_INTERRUPT_InterruptManager:
  7257                           
  7258                           	psect	text61
  7259     04D2                     __ptext61:	
  7260 ;; *************** function _TMR0_ISR *****************
  7261 ;; Defined at:
  7262 ;;		line 108 in file "mcc_generated_files/tmr0.c"
  7263 ;; Parameters:    Size  Location     Type
  7264 ;;		None
  7265 ;; Auto vars:     Size  Location     Type
  7266 ;;		None
  7267 ;; Return value:  Size  Location     Type
  7268 ;;                  1    wreg      void 
  7269 ;; Registers used:
  7270 ;;		wreg, status,2, status,0, pclath, cstack
  7271 ;; Tracked objects:
  7272 ;;		On entry : 0/0
  7273 ;;		On exit  : 0/0
  7274 ;;		Unchanged: 0/0
  7275 ;; Data sizes:     COMMON   BANK0   BANK1   BANK2   BANK3   BANK4   BANK5   BANK6
  7276 ;;      Params:         0       0       0       0       0       0       0       0
  7277 ;;      Locals:         0       0       0       0       0       0       0       0
  7278 ;;      Temps:          0       0       0       0       0       0       0       0
  7279 ;;      Totals:         0       0       0       0       0       0       0       0
  7280 ;;Total ram usage:        0 bytes
  7281 ;; Hardware stack levels used: 1
  7282 ;; Hardware stack levels required when called: 1
  7283 ;; This function calls:
  7284 ;;		NULL
  7285 ;;		_tmr0_10ms_even
  7286 ;; This function is called by:
  7287 ;;		_INTERRUPT_InterruptManager
  7288 ;; This function uses a non-reentrant model
  7289 ;;
  7290                           
  7291     04D2                     _TMR0_ISR:	
  7292                           ;psect for function _TMR0_ISR
  7293                           
  7294     04D2                     i1l2595:	
  7295                           ;incstack = 0
  7296                           ; Regs used in _TMR0_ISR: [wreg+status,2+status,0+pclath+cstack]
  7297                           
  7298                           
  7299                           ;mcc_generated_files/tmr0.c: 112:     INTCONbits.TMR0IF = 0;
  7300     04D2  110B               	bcf	11,2	;volatile
  7301     04D3                     i1l2597:
  7302                           
  7303                           ;mcc_generated_files/tmr0.c: 114:     TMR0 = timer0ReloadVal;
  7304     04D3  0876               	movf	_timer0ReloadVal,w	;volatile
  7305     04D4  0020               	movlb	0	; select bank0
  7306     04D5  0095               	movwf	21	;volatile
  7307     04D6                     i1l2599:
  7308                           
  7309                           ;mcc_generated_files/tmr0.c: 116:     if(TMR0_InterruptHandler)
  7310     04D6  0828               	movf	_TMR0_InterruptHandler,w
  7311     04D7  0429               	iorwf	_TMR0_InterruptHandler+1,w
  7312     04D8  1903               	btfsc	3,2
  7313     04D9  2CDB               	goto	u137_21
  7314     04DA  2CDC               	goto	u137_20
  7315     04DB                     u137_21:
  7316     04DB  2CE1               	goto	i1l157
  7317     04DC                     u137_20:
  7318     04DC                     i1l2601:
  7319                           
  7320                           ;mcc_generated_files/tmr0.c: 117:     {;mcc_generated_files/tmr0.c: 118:         TMR0_In
      +                          terruptHandler();
  7321     04DC  0829               	movf	_TMR0_InterruptHandler+1,w
  7322     04DD  008A               	movwf	10
  7323     04DE  0828               	movf	_TMR0_InterruptHandler,w
  7324     04DF  000A               	callw
  7325     04E0  3184               	pagesel	$
  7326     04E1                     i1l157:
  7327     04E1  0008               	return
  7328     04E2                     __end_of_TMR0_ISR:
  7329                           
  7330                           	psect	text62
  7331     04E2                     __ptext62:	
  7332 ;; *************** function _tmr0_10ms_even *****************
  7333 ;; Defined at:
  7334 ;;		line 193 in file "D:/yiming/00work/TY1500_U3_V06.X/LED.c"
  7335 ;; Parameters:    Size  Location     Type
  7336 ;;		None
  7337 ;; Auto vars:     Size  Location     Type
  7338 ;;		None
  7339 ;; Return value:  Size  Location     Type
  7340 ;;                  1    wreg      void 
  7341 ;; Registers used:
  7342 ;;		wreg
  7343 ;; Tracked objects:
  7344 ;;		On entry : 0/0
  7345 ;;		On exit  : 0/0
  7346 ;;		Unchanged: 0/0
  7347 ;; Data sizes:     COMMON   BANK0   BANK1   BANK2   BANK3   BANK4   BANK5   BANK6
  7348 ;;      Params:         0       0       0       0       0       0       0       0
  7349 ;;      Locals:         0       0       0       0       0       0       0       0
  7350 ;;      Temps:          0       0       0       0       0       0       0       0
  7351 ;;      Totals:         0       0       0       0       0       0       0       0
  7352 ;;Total ram usage:        0 bytes
  7353 ;; Hardware stack levels used: 1
  7354 ;; This function calls:
  7355 ;;		Nothing
  7356 ;; This function is called by:
  7357 ;;		_main
  7358 ;;		_TMR0_ISR
  7359 ;; This function uses a non-reentrant model
  7360 ;;
  7361                           
  7362     04E2                     _tmr0_10ms_even:	
  7363                           ;psect for function _tmr0_10ms_even
  7364                           
  7365     04E2                     i1l2439:	
  7366                           ;incstack = 0
  7367                           ; Regs used in _tmr0_10ms_even: [wreg]
  7368                           
  7369                           
  7370                           ;D:/yiming/00work/TY1500_U3_V06.X/LED.c: 194:   f1ms = 1;
  7371     04E2  01F4               	clrf	_f1ms
  7372     04E3  0AF4               	incf	_f1ms,f
  7373     04E4                     i1l2441:
  7374                           
  7375                           ;D:/yiming/00work/TY1500_U3_V06.X/LED.c: 195:   welcome_1ms_cnt++;
  7376     04E4  3001               	movlw	1
  7377     04E5  0020               	movlb	0	; select bank0
  7378     04E6  07A0               	addwf	_welcome_1ms_cnt,f
  7379     04E7  3000               	movlw	0
  7380     04E8  3DA1               	addwfc	_welcome_1ms_cnt+1,f
  7381     04E9  3000               	movlw	0
  7382     04EA  3DA2               	addwfc	_welcome_1ms_cnt+2,f
  7383     04EB  3000               	movlw	0
  7384     04EC  3DA3               	addwfc	_welcome_1ms_cnt+3,f
  7385                           
  7386                           ;D:/yiming/00work/TY1500_U3_V06.X/LED.c: 196:   turn_1ms_cnt++;
  7387     04ED  3001               	movlw	1
  7388     04EE  07A6               	addwf	_turn_1ms_cnt,f
  7389     04EF  3000               	movlw	0
  7390     04F0  3DA7               	addwfc	_turn_1ms_cnt+1,f
  7391     04F1                     i1l376:
  7392     04F1  0008               	return
  7393     04F2                     __end_of_tmr0_10ms_even:
  7394     007E                     btemp	set	126	;btemp
  7395     007E                     int$flags	set	126
  7396     007E                     wtemp0	set	126
  7397                           
  7398                           	psect	config
  7399                           
  7400                           ;Config register CONFIG1 @ 0x8007
  7401                           ;	Oscillator Selection
  7402                           ;	FOSC = INTOSC, INTOSC oscillator: I/O function on CLKIN pin
  7403                           ;	Watchdog Timer Enable
  7404                           ;	WDTE = OFF, WDT disabled
  7405                           ;	Power-up Timer Enable
  7406                           ;	PWRTE = OFF, PWRT disabled
  7407                           ;	MCLR Pin Function Select
  7408                           ;	MCLRE = ON, MCLR/VPP pin function is MCLR
  7409                           ;	Flash Program Memory Code Protection
  7410                           ;	CP = OFF, Program memory code protection is disabled
  7411                           ;	Data Memory Code Protection
  7412                           ;	CPD = OFF, Data memory code protection is disabled
  7413                           ;	Brown-out Reset Enable
  7414                           ;	BOREN = ON, Brown-out Reset enabled
  7415                           ;	Clock Out Enable
  7416                           ;	CLKOUTEN = OFF, CLKOUT function is disabled. I/O or oscillator function on the CLKOUT 
      +                          pin
  7417                           ;	Internal/External Switchover
  7418                           ;	IESO = ON, Internal/External Switchover mode is enabled
  7419                           ;	Fail-Safe Clock Monitor Enable
  7420                           ;	FCMEN = ON, Fail-Safe Clock Monitor is enabled
  7421     8007                     	org	32775
  7422     8007  3FE4               	dw	16356
  7423                           
  7424                           ;Config register CONFIG2 @ 0x8008
  7425                           ;	Flash Memory Self-Write Protection
  7426                           ;	WRT = OFF, Write protection off
  7427                           ;	Voltage Regulator Capacitor Enable
  7428                           ;	VCAPEN = OFF, All VCAP pin functionality is disabled
  7429                           ;	PLL Enable
  7430                           ;	PLLEN = ON, 4x PLL enabled
  7431                           ;	Stack Overflow/Underflow Reset Enable
  7432                           ;	STVREN = ON, Stack Overflow or Underflow will cause a Reset
  7433                           ;	Brown-out Reset Voltage Selection
  7434                           ;	BORV = LO, Brown-out Reset Voltage (Vbor), low trip point selected.
  7435                           ;	Low-Voltage Programming Enable
  7436                           ;	LVP = OFF, High-voltage on MCLR/VPP must be used for programming
  7437     8008                     	org	32776
  7438     8008  1FFF               	dw	8191

Data Sizes:
    Strings     0
    Constant    0
    Data        2
    BSS         22
    Persistent  32
    Stack       0

Auto Spaces:
    Space          Size  Autos    Used
    COMMON           14      7      14
    BANK0            80      0      17
    BANK1            80      0       0
    BANK2            80      0       0
    BANK3            80      0       0
    BANK4            80      0       0
    BANK5            80      0       0
    BANK6            16      0       0

Pointer List with Targets:

    TMR0_InterruptHandler	PTR FTN()void  size(2) Largest target is 1
		 -> tmr0_10ms_even(), NULL(), 

    TMR0_SetInterruptHandler@InterruptHandler	PTR FTN()void  size(2) Largest target is 1
		 -> tmr0_10ms_even(), 


Critical Paths under _main in COMMON

    _PWM_all_off->_EPWM1_LoadDutyValue
    _LED_main->_check_welcome_light
    _check_welcome_light->_tellow_seg1_backward
    _check_welcome_light->_white_fad_out
    _check_welcome_light->_yellow_seg1_forward
    _check_welcome_light->_yellow_seg2_backward
    _check_welcome_light->_yellow_seg2_forward
    _check_welcome_light->_yellow_seg3_backward
    _check_welcome_light->_yellow_seg3_forward
    _check_welcome_light->_yellow_seg4_backward
    _check_welcome_light->_yellow_seg4_forward
    _check_welcome_light->_yellow_to_white
    _yellow_to_white->_delay_us
    _yellow_seg4_forward->_delay_us
    _yellow_seg4_backward->_delay_us
    _yellow_seg3_forward->_delay_us
    _yellow_seg3_backward->_delay_us
    _yellow_seg2_forward->_delay_us
    _yellow_seg2_backward->_delay_us
    _yellow_seg1_forward->_delay_us
    _white_fad_out->_delay_us
    _tellow_seg1_backward->_delay_us
    _PWM_turn_signals->_EPWM1_LoadDutyValue
    _PWM_POS->_EPWM1_LoadDutyValue
    _PWM_DRL->_EPWM1_LoadDutyValue

Critical Paths under _INTERRUPT_InterruptManager in COMMON

    None.

Critical Paths under _main in BANK0

    None.

Critical Paths under _INTERRUPT_InterruptManager in BANK0

    None.

Critical Paths under _main in BANK1

    None.

Critical Paths under _INTERRUPT_InterruptManager in BANK1

    None.

Critical Paths under _main in BANK2

    None.

Critical Paths under _INTERRUPT_InterruptManager in BANK2

    None.

Critical Paths under _main in BANK3

    None.

Critical Paths under _INTERRUPT_InterruptManager in BANK3

    None.

Critical Paths under _main in BANK4

    None.

Critical Paths under _INTERRUPT_InterruptManager in BANK4

    None.

Critical Paths under _main in BANK5

    None.

Critical Paths under _INTERRUPT_InterruptManager in BANK5

    None.

Critical Paths under _main in BANK6

    None.

Critical Paths under _INTERRUPT_InterruptManager in BANK6

    None.

Call Graph Tables:

 ---------------------------------------------------------------------------------
 (Depth) Function   	        Calls       Base Space   Used Autos Params    Refs
 ---------------------------------------------------------------------------------
 (0) _main                                                 0     0      0    4721
                           _LED_main
                  _SYSTEM_Initialize
           _TMR0_SetInterruptHandler
      _clear_no_call_warning_message
 ---------------------------------------------------------------------------------
 (1) _clear_no_call_warning_message                        1     1      0     556
                    _PIN_MANAGER_IOC
                        _PWM_all_off
                     _TMR0_ReadTimer
                        _TMR0_Reload
                    _TMR0_WriteTimer
            _TMR2_HasOverflowOccured
            _TMR2_LoadPeriodRegister
                     _TMR2_ReadTimer
                    _TMR2_StartTimer
                     _TMR2_StopTimer
                    _TMR2_WriteTimer
 ---------------------------------------------------------------------------------
 (2) _TMR2_WriteTimer                                      1     1      0      15
                                              0 COMMON     1     1      0
 ---------------------------------------------------------------------------------
 (2) _TMR2_StopTimer                                       0     0      0       0
 ---------------------------------------------------------------------------------
 (2) _TMR2_StartTimer                                      0     0      0       0
 ---------------------------------------------------------------------------------
 (2) _TMR2_ReadTimer                                       1     1      0       5
 ---------------------------------------------------------------------------------
 (2) _TMR2_LoadPeriodRegister                              1     1      0      15
                                              0 COMMON     1     1      0
 ---------------------------------------------------------------------------------
 (2) _TMR2_HasOverflowOccured                              1     1      0      20
                                              0 COMMON     1     1      0
 ---------------------------------------------------------------------------------
 (2) _TMR0_WriteTimer                                      1     1      0      15
                                              0 COMMON     1     1      0
 ---------------------------------------------------------------------------------
 (2) _TMR0_Reload                                          0     0      0       0
 ---------------------------------------------------------------------------------
 (2) _TMR0_ReadTimer                                       1     1      0       5
 ---------------------------------------------------------------------------------
 (2) _PWM_all_off                                          0     0      0     348
                _EPWM1_LoadDutyValue
 ---------------------------------------------------------------------------------
 (2) _PIN_MANAGER_IOC                                      0     0      0       0
 ---------------------------------------------------------------------------------
 (1) _TMR0_SetInterruptHandler                             2     0      2      98
                                              0 COMMON     2     0      2
 ---------------------------------------------------------------------------------
 (1) _SYSTEM_Initialize                                    0     0      0       0
                   _EPWM1_Initialize
              _OSCILLATOR_Initialize
             _PIN_MANAGER_Initialize
                    _TMR0_Initialize
                    _TMR2_Initialize
                     _WDT_Initialize
 ---------------------------------------------------------------------------------
 (2) _WDT_Initialize                                       0     0      0       0
 ---------------------------------------------------------------------------------
 (2) _TMR2_Initialize                                      0     0      0       0
 ---------------------------------------------------------------------------------
 (2) _TMR0_Initialize                                      0     0      0       0
 ---------------------------------------------------------------------------------
 (2) _PIN_MANAGER_Initialize                               0     0      0       0
 ---------------------------------------------------------------------------------
 (2) _OSCILLATOR_Initialize                                0     0      0       0
 ---------------------------------------------------------------------------------
 (2) _EPWM1_Initialize                                     0     0      0       0
 ---------------------------------------------------------------------------------
 (1) _LED_main                                             0     0      0    4067
                             _DRL_on
                             _POS_on
                        _all_led_off
                       _check_POS_P2
                    _check_test_mode
                _check_welcome_light
               _check_welcome_signal
                        _debounce_IO
               _turn_on_turn_signals
          _turn_signals_state_update
 ---------------------------------------------------------------------------------
 (2) _turn_signals_state_update                            1     1      0     348
                                              4 COMMON     1     1      0
                        _all_led_off
 ---------------------------------------------------------------------------------
 (2) _turn_on_turn_signals                                 2     2      0     348
                                              4 COMMON     2     2      0
                        _all_led_off
 ---------------------------------------------------------------------------------
 (2) _debounce_IO                                          1     1      0      73
                                              0 COMMON     1     1      0
                             _is_DRL
                             _is_POS
                         _is_WELCOME
                            _is_test
                    _is_turn_signals
                           _is_white
 ---------------------------------------------------------------------------------
 (3) _is_white                                             0     0      0       0
 ---------------------------------------------------------------------------------
 (3) _is_turn_signals                                      0     0      0       0
 ---------------------------------------------------------------------------------
 (3) _is_test                                              0     0      0       0
 ---------------------------------------------------------------------------------
 (3) _is_WELCOME                                           0     0      0       0
 ---------------------------------------------------------------------------------
 (3) _is_POS                                               0     0      0       0
 ---------------------------------------------------------------------------------
 (3) _is_DRL                                               0     0      0       0
 ---------------------------------------------------------------------------------
 (2) _check_welcome_signal                                 0     0      0       0
 ---------------------------------------------------------------------------------
 (2) _check_welcome_light                                  2     2      0    2254
                                              5 COMMON     2     2      0
                        _all_led_off
                           _delay_ms
               _tellow_seg1_backward
                      _white_fad_out
                _yellow_seg1_forward
               _yellow_seg2_backward
                _yellow_seg2_forward
               _yellow_seg3_backward
                _yellow_seg3_forward
               _yellow_seg4_backward
                _yellow_seg4_forward
                    _yellow_to_white
 ---------------------------------------------------------------------------------
 (3) _yellow_to_white                                      3     3      0     158
                                              2 COMMON     3     3      0
             _all_white_led_turn_off
              _all_white_led_turn_on
            _all_yellow_led_turn_off
             _all_yellow_led_turn_on
                           _delay_us
 ---------------------------------------------------------------------------------
 (3) _yellow_seg4_forward                                  3     3      0     158
                                              2 COMMON     3     3      0
                           _delay_us
 ---------------------------------------------------------------------------------
 (3) _yellow_seg4_backward                                 3     3      0     158
                                              2 COMMON     3     3      0
                           _delay_us
 ---------------------------------------------------------------------------------
 (3) _yellow_seg3_forward                                  3     3      0     158
                                              2 COMMON     3     3      0
                           _delay_us
 ---------------------------------------------------------------------------------
 (3) _yellow_seg3_backward                                 3     3      0     158
                                              2 COMMON     3     3      0
                           _delay_us
 ---------------------------------------------------------------------------------
 (3) _yellow_seg2_forward                                  3     3      0     158
                                              2 COMMON     3     3      0
                           _delay_us
 ---------------------------------------------------------------------------------
 (3) _yellow_seg2_backward                                 3     3      0     158
                                              2 COMMON     3     3      0
                           _delay_us
 ---------------------------------------------------------------------------------
 (3) _yellow_seg1_forward                                  3     3      0     158
                                              2 COMMON     3     3      0
                           _delay_us
 ---------------------------------------------------------------------------------
 (3) _white_fad_out                                        3     3      0     158
                                              2 COMMON     3     3      0
             _all_white_led_turn_off
              _all_white_led_turn_on
                           _delay_us
 ---------------------------------------------------------------------------------
 (3) _tellow_seg1_backward                                 3     3      0     158
                                              2 COMMON     3     3      0
                           _delay_us
 ---------------------------------------------------------------------------------
 (4) _delay_us                                             2     2      0      22
                                              0 COMMON     2     2      0
 ---------------------------------------------------------------------------------
 (3) _delay_ms                                             3     1      2     326
                                              0 COMMON     3     1      2
 ---------------------------------------------------------------------------------
 (3) _all_led_off                                          0     0      0     348
                   _PWM_turn_signals
             _all_white_led_turn_off
            _all_yellow_led_turn_off
 ---------------------------------------------------------------------------------
 (4) _PWM_turn_signals                                     0     0      0     348
                _EPWM1_LoadDutyValue
 ---------------------------------------------------------------------------------
 (2) _check_test_mode                                      0     0      0       0
 ---------------------------------------------------------------------------------
 (2) _check_POS_P2                                         0     0      0       0
                             _P2_off
                              _P2_on
 ---------------------------------------------------------------------------------
 (3) _P2_on                                                0     0      0       0
 ---------------------------------------------------------------------------------
 (3) _P2_off                                               0     0      0       0
 ---------------------------------------------------------------------------------
 (2) _POS_on                                               0     0      0     348
                            _PWM_POS
             _all_white_led_turn_off
              _all_white_led_turn_on
            _all_yellow_led_turn_off
             _all_yellow_led_turn_on
 ---------------------------------------------------------------------------------
 (3) _PWM_POS                                              0     0      0     348
                _EPWM1_LoadDutyValue
 ---------------------------------------------------------------------------------
 (2) _DRL_on                                               0     0      0     348
                            _PWM_DRL
             _all_white_led_turn_off
              _all_white_led_turn_on
            _all_yellow_led_turn_off
             _all_yellow_led_turn_on
 ---------------------------------------------------------------------------------
 (4) _all_yellow_led_turn_on                               1     1      0       0
                                              0 COMMON     1     1      0
 ---------------------------------------------------------------------------------
 (4) _all_yellow_led_turn_off                              1     1      0       0
                                              0 COMMON     1     1      0
 ---------------------------------------------------------------------------------
 (4) _all_white_led_turn_on                                0     0      0       0
 ---------------------------------------------------------------------------------
 (4) _all_white_led_turn_off                               0     0      0       0
 ---------------------------------------------------------------------------------
 (3) _PWM_DRL                                              0     0      0     348
                _EPWM1_LoadDutyValue
 ---------------------------------------------------------------------------------
 (3) _EPWM1_LoadDutyValue                                  4     2      2     348
                                              0 COMMON     4     2      2
 ---------------------------------------------------------------------------------
 Estimated maximum stack depth 4
 ---------------------------------------------------------------------------------
 (Depth) Function   	        Calls       Base Space   Used Autos Params    Refs
 ---------------------------------------------------------------------------------
 (6) _INTERRUPT_InterruptManager                           0     0      0       0
                           _TMR0_ISR
 ---------------------------------------------------------------------------------
 (7) _TMR0_ISR                                             0     0      0       0
                                NULL *
                     _tmr0_10ms_even *
 ---------------------------------------------------------------------------------
 (8) _tmr0_10ms_even                                       0     0      0       0
 ---------------------------------------------------------------------------------
 (8) NULL(Fake)                                            0     0      0       0
 ---------------------------------------------------------------------------------
 Estimated maximum stack depth 8
 ---------------------------------------------------------------------------------

 Call Graph Graphs:

 _main (ROOT)
   _LED_main
     _DRL_on
       _PWM_DRL
         _EPWM1_LoadDutyValue
       _all_white_led_turn_off
       _all_white_led_turn_on
       _all_yellow_led_turn_off
       _all_yellow_led_turn_on
     _POS_on
       _PWM_POS
         _EPWM1_LoadDutyValue
       _all_white_led_turn_off
       _all_white_led_turn_on
       _all_yellow_led_turn_off
       _all_yellow_led_turn_on
     _all_led_off
       _PWM_turn_signals
         _EPWM1_LoadDutyValue
       _all_white_led_turn_off
       _all_yellow_led_turn_off
     _check_POS_P2
       _P2_off
       _P2_on
     _check_test_mode
     _check_welcome_light
       _all_led_off
       _delay_ms
       _tellow_seg1_backward
         _delay_us
       _white_fad_out
         _all_white_led_turn_off
         _all_white_led_turn_on
         _delay_us
       _yellow_seg1_forward
         _delay_us
       _yellow_seg2_backward
         _delay_us
       _yellow_seg2_forward
         _delay_us
       _yellow_seg3_backward
         _delay_us
       _yellow_seg3_forward
         _delay_us
       _yellow_seg4_backward
         _delay_us
       _yellow_seg4_forward
         _delay_us
       _yellow_to_white
         _all_white_led_turn_off
         _all_white_led_turn_on
         _all_yellow_led_turn_off
         _all_yellow_led_turn_on
         _delay_us
     _check_welcome_signal
     _debounce_IO
       _is_DRL
       _is_POS
       _is_WELCOME
       _is_test
       _is_turn_signals
       _is_white
     _turn_on_turn_signals
       _all_led_off
     _turn_signals_state_update
       _all_led_off
   _SYSTEM_Initialize
     _EPWM1_Initialize
     _OSCILLATOR_Initialize
     _PIN_MANAGER_Initialize
     _TMR0_Initialize
     _TMR2_Initialize
     _WDT_Initialize
   _TMR0_SetInterruptHandler
   _clear_no_call_warning_message
     _PIN_MANAGER_IOC
     _PWM_all_off
       _EPWM1_LoadDutyValue
     _TMR0_ReadTimer
     _TMR0_Reload
     _TMR0_WriteTimer
     _TMR2_HasOverflowOccured
     _TMR2_LoadPeriodRegister
     _TMR2_ReadTimer
     _TMR2_StartTimer
     _TMR2_StopTimer
     _TMR2_WriteTimer

 _INTERRUPT_InterruptManager (ROOT)
   _TMR0_ISR
     NULL(Fake) *
     _tmr0_10ms_even *

 Address spaces:
Name               Size   Autos  Total    Cost      Usage
BIGRAM             1F0      0       0       0        0.0%
EEDATA             100      0       0       0        0.0%
NULL                 0      0       0       0        0.0%
CODE                 0      0       0       0        0.0%
BITCOMMON            E      0       0       1        0.0%
BITSFR0              0      0       0       1        0.0%
SFR0                 0      0       0       1        0.0%
COMMON               E      7       E       2      100.0%
BITSFR1              0      0       0       2        0.0%
SFR1                 0      0       0       2        0.0%
BITSFR2              0      0       0       3        0.0%
SFR2                 0      0       0       3        0.0%
STACK                0      0       0       3        0.0%
BITSFR3              0      0       0       4        0.0%
SFR3                 0      0       0       4        0.0%
ABS                  0      0      1F       4        0.0%
BITBANK0            50      0       0       5        0.0%
BITSFR4              0      0       0       5        0.0%
SFR4                 0      0       0       5        0.0%
BANK0               50      0      11       6       21.2%
BITSFR5              0      0       0       6        0.0%
SFR5                 0      0       0       6        0.0%
BITBANK1            50      0       0       7        0.0%
BITSFR6              0      0       0       7        0.0%
SFR6                 0      0       0       7        0.0%
BANK1               50      0       0       8        0.0%
BITSFR7              0      0       0       8        0.0%
SFR7                 0      0       0       8        0.0%
BITBANK2            50      0       0       9        0.0%
BITSFR8              0      0       0       9        0.0%
SFR8                 0      0       0       9        0.0%
BANK2               50      0       0      10        0.0%
BITSFR9              0      0       0      10        0.0%
SFR9                 0      0       0      10        0.0%
BITBANK3            50      0       0      11        0.0%
BITSFR10             0      0       0      11        0.0%
SFR10                0      0       0      11        0.0%
BANK3               50      0       0      12        0.0%
BITSFR11             0      0       0      12        0.0%
SFR11                0      0       0      12        0.0%
BITBANK4            50      0       0      13        0.0%
BITSFR12             0      0       0      13        0.0%
SFR12                0      0       0      13        0.0%
BANK4               50      0       0      14        0.0%
BITSFR13             0      0       0      14        0.0%
SFR13                0      0       0      14        0.0%
BITBANK5            50      0       0      15        0.0%
BITSFR14             0      0       0      15        0.0%
SFR14                0      0       0      15        0.0%
BANK5               50      0       0      16        0.0%
BITSFR15             0      0       0      16        0.0%
SFR15                0      0       0      16        0.0%
BITBANK6            10      0       0      17        0.0%
BITSFR16             0      0       0      17        0.0%
SFR16                0      0       0      17        0.0%
BANK6               10      0       0      18        0.0%
BITSFR17             0      0       0      18        0.0%
SFR17                0      0       0      18        0.0%
BITSFR18             0      0       0      19        0.0%
SFR18                0      0       0      19        0.0%
DATA                 0      0      1F      19        0.0%
BITSFR19             0      0       0      20        0.0%
SFR19                0      0       0      20        0.0%
BITSFR20             0      0       0      21        0.0%
SFR20                0      0       0      21        0.0%
BITSFR21             0      0       0      22        0.0%
SFR21                0      0       0      22        0.0%
BITSFR22             0      0       0      23        0.0%
SFR22                0      0       0      23        0.0%
BITSFR23             0      0       0      24        0.0%
SFR23                0      0       0      24        0.0%
BITSFR24             0      0       0      25        0.0%
SFR24                0      0       0      25        0.0%
BITSFR25             0      0       0      26        0.0%
SFR25                0      0       0      26        0.0%
BITSFR26             0      0       0      27        0.0%
SFR26                0      0       0      27        0.0%
BITSFR27             0      0       0      28        0.0%
SFR27                0      0       0      28        0.0%
BITSFR28             0      0       0      29        0.0%
SFR28                0      0       0      29        0.0%
BITSFR29             0      0       0      30        0.0%
SFR29                0      0       0      30        0.0%
BITSFR30             0      0       0      31        0.0%
SFR30                0      0       0      31        0.0%
BITSFR31             0      0       0      32        0.0%
SFR31                0      0       0      32        0.0%


Microchip Technology PIC Macro Assembler V2.46 build 20240104201356 
Symbol Table                                                                                   Tue Mar 31 09:49:24 2026

            __end_of_tellow_seg1_backward 0381                                        l31 0532  
                                      l25 04AF                                        l34 05B0  
                                      l28 052D                                        l65 046E  
                                      l68 05D8                                        l85 051A  
                                      l88 049C                           _timer0ReloadVal 0076  
                                     l101 0550                                       l110 05C5  
                                     l120 0526                                       l104 05C2  
                                     l113 058F                                       l107 05BF  
                                     l116 0594                                       l310 057E  
                                     l150 0599                                       l400 03DF  
                                     l304 0500                                       l144 050D  
                                     l160 058A                                       l313 05D1  
                                     l321 05CB                                       l153 05AC  
                                     l307 0568                                       l411 02F9  
                                     l147 05C8                                       l316 05D4  
                                     l332 0560                                       l324 05CC  
                                     l405 0407                                       l413 0320  
                                     l421 02EF                                       l326 05CE  
                                     l319 05C9                                       l335 0558  
                                     l352 043C                                       l440 0353  
                                     l408 02F2                                       l416 02C1  
                                     l424 028D                                       l432 0259  
                                     l329 0570                                       l345 0456  
                                     l409 031D                                       l417 02EC  
                                     l425 02BA                                       l433 0286  
                                     l513 008F                                       l361 05B4  
                                     l370 05A8                                       l338 0577  
                                     l355 0548                                       l443 035A  
                                     l451 032A                                       l419 02C8  
                                     l427 0294                                       l435 0260  
                                     l364 05B8                                       l276 05D7  
                                     l445 0380                                       l453 0350  
                                     l461 03DC                                       l429 02BE  
                                     l437 028A                                       l373 05A3  
                                     l533 01A9                                       l382 04C1  
                                     l358 059E                                       l519 00F0  
                                     l367 05BC                                       l448 0323  
                                     l456 03B1                                       l464 0383  
                                     l392 0225                                       l289 01ED  
                                     l297 021D                                       l529 019C  
                                     l474 04D1                                       l386 0409  
                                     l459 03B8                                       l467 038A  
                                     l483 00F2                                       l299 0222  
                                     l389 0422                                       l469 03AE  
                                     l397 0256                                       l494 0154  
                                     l479 053E                                       u350 0532  
                                     _PR2 001B                                       u351 0531  
                                     u360 0525                                       u361 0524  
                                     u800 022A                                       u801 0229  
                                     u810 024B                                       _ORB 0075  
                                     u811 024A                                       u900 02E1  
                                     u820 0253                                       u901 02E0  
                                     u821 0252                                       u830 03E4  
                                     u910 02EC                                       u831 03E3  
                                     u911 02EB                                       u840 03FF  
                                     u920 0292                                       u841 03FE  
                                     u921 0291                                       u770 04C1  
                                     u850 0407                                       u930 02AF  
                                     u771 04C0                                       u851 0406  
                                     u931 02AE                                       u780 040E  
                                     u860 02F7                                       u940 02BA  
                                     u765 0495                                       u781 040D  
                                     u861 02F6                                       u941 02B9  
                                     u790 0422                                       u870 0312  
                                     u950 025E                                       u791 0421  
                                     u871 0311                                       u951 025D  
                                     u880 031D                                       u960 027B  
                                     u881 031C                                       u961 027A  
                                     u890 02C6                                       u970 0286  
                                     u891 02C5                                       u971 0285  
                                     u980 0358                                       u981 0357  
                                     u990 0375                                       u991 0374  
              ?_turn_signals_state_update 0077                           _TMR2_Initialize 0549  
                                     wreg 0009             TMR2_HasOverflowOccured@status 0077  
                                    l2001 0578                                      l2003 057A  
                                    l2011 04B1                                      l2005 05CF  
                                    l2013 04B2                                      l2101 03E5  
                                    l2021 05B9                                      l2007 05D2  
                                    l2015 04B8                                      l2111 03ED  
                                    l2009 0551                                      l2041 053F  
                                    l2113 03F5                                      l2121 02F0  
                                    l2201 02A9                                      l2025 05A4  
                                    l2033 05B5                                      l2017 05B1  
                                    l2043 0542                                      l2051 0408  
                                    l2115 03F9                                      l2107 03E6  
                                    l2203 02AF                                      l2045 0545  
                                    l2117 03FF                                      l2109 03E9  
                                    l2141 0308                                      l2205 02B3  
                                    l2221 0264                                      l2037 059F  
                                    l2029 059A                                      l1501 0467  
                                    l2047 0569                                      l2055 040F  
                                    l2119 0403                                      l2143 030C  
                                    l2135 02FC                                      l2311 03C7  
                                    l2231 0275                                      l2223 0268  
                                    l2215 025F                                      l2207 0257  
                                    l1511 052A                                      l1503 0469  
                                    l2049 0559                                      l2057 0416  
                                    l2145 0312                                      l2137 0300  
                                    l2129 02F8                                      l2313 03CB  
                                    l2305 03BB                                      l2233 027B  
                                    l2225 026A                                      l2081 0239  
                                    l2073 022C                                      l2401 0220  
                                    l1521 0512                                      l1513 052B  
                                    l1505 046A                                      l2411 043D  
                                    l2251 0362                                      l2243 0359  
                                    l2147 0316                                      l2139 0302  
                                    l2171 02DB                                      l2163 02CB  
                                    l2315 03D1                                      l2307 03BF  
                                    l2331 038D                                      l2235 027F  
                                    l2227 026B                                      l2083 0241  
                                    l2075 022F                                      l2091 0253  
                                    l2067 022B                                      l2059 0223  
                                    l2403 04F2                                      l1523 0514  
                                    l1507 046C                                      l1531 0549  
                                    l1515 05AD                                      l2421 044F  
                                    l2413 0441                                      l2261 0375  
                                    l2253 0364                                      l2237 0351  
                                    l2093 03DD                                      l2173 02E1  
                                    l2165 02CF                                      l2157 02C7  
                                    l2149 02BF                                      l2317 03D5  
                                    l2309 03C1                                      l2341 03A3  
                                    l2333 0391                                      l2325 0389  
                                    l2229 0271                                      l2085 0245  
                                    l2077 0232                                      l2405 04F7  
                                    l1525 0516                                      l1517 050E  
                                    l1509 0527                                      l1541 0506  
                                    l1533 054C                                      l2423 0453  
                                    l2415 0445                                      l2431 042E  
                                    l2263 0379                                      l2255 0365  
                                    l2271 0329                                      l2175 02E5  
                                    l2167 02D1                                      l2191 0298  
                                    l2343 03A7                                      l2335 0393  
                                    l2319 0381                                      l2087 024B  
                                    l2079 0236                                      l2511 0038  
                                    l2407 04FD                                      l2351 01B3  
                                    l1527 0517                                      l1519 0511  
                                    l1543 0509                                      l1535 054D  
                                    l1551 05BD                                      l2417 0448  
                                    l2433 0431                                      l2425 0423  
                                    l2257 036B                                      l2249 035E  
                                    l2281 0334                                      l2265 0321  
                                    l2169 02D7                                      l2193 029C  
                                    l2185 0293                                      l2177 028B  
                                    l2337 0399                                      l2089 024F  
                                    l2521 004E                                      l2513 0042  
                                    l2505 0030                                      l2409 04FF  
                                    l2361 01C6                                      l2353 01B4  
                                    l1529 0518                                      l1545 050B  
                                    l1537 054E                                      l2345 0571  
                                    l1561 051B                                      l1553 05C3  
                                    l2419 044B                                      l2435 0435  
                                    l2427 0427                                      l2451 0537  
                                    l2443 04C2                                      l2259 036F  
                                    l2291 0349                                      l2283 0335  
                                    l2195 029E                                      l2339 039D  
                                    l2515 0045                                      l2507 0031  
                                    l2371 01E0                                      l2363 01CE  
                                    l2355 01BC                                      l2347 01AA  
                                    l1491 0457                                      l1547 050C  
                                    l1539 0501                                      l2603 0585  
                                    l1571 0596                                      l1563 0520  
                                    l2437 0439                                      l2429 042B  
                                    l2453 053B                                      l2445 04C6  
                                    l2285 033B                                      l2277 032E  
                                    l2293 03AF                                      l2197 029F  
                                    l2541 0069                                      l2533 0061  
                                    l2525 0052                                      l2517 004A  
                                    l2509 0034                                      l2373 01E1  
                                    l2365 01CF                                      l2357 01BD  
                                    l2349 01AB                                      l2461 00FE  
                                    l2381 01F2                                      l1493 045C  
                                    l1573 05A9                                      l1565 0525  
                                    l1549 05C0                                      l1557 058C  
                                    l2605 05D7                                      l2447 04CC  
                                    l2287 033F                                      l2279 0332  
                                    l2199 02A5                                      l2375 01E8  
                                    l2367 01D7                                      l2359 01C5  
                                    l2471 0110                                      l2463 0100  
                                    l2455 00F1                                      l2391 0204  
                                    l2383 01F5                                      l1495 045F  
                                    l1567 05C6                                      l1559 0591  
                                    l2449 0533                                      l2289 0345  
                                    l2561 007B                                      l2537 0065  
                                    l2529 005D                                      l2377 01EB  
                                    l2369 01D8                                      l2473 0114  
                                    l2465 0101                                      l2457 00F6  
                                    l2393 020A                                      l2385 01F8  
                                    l2641 015A                                      l1497 0464  
                                    l2299 03B7                                      l2571 0097  
                                    l2563 007E                                      l2467 0102  
                                    l2459 00F9                                      l2387 01FE  
                                    l2395 020F                                      l2379 01EE  
                                    l2651 0167                                      l2643 015B  
                                    l1499 0466                                      l1827 049D  
                                    l2581 00B1                                      l2573 009B  
                                    l2565 0086                                      l2493 0136  
                                    l2485 0129                                      l2477 011A  
                                    l2469 0106                                      l2397 0218  
                                    l2389 0201                                      l2661 017D  
                                    l2645 015E                                      l2653 016A  
                                    l2583 00B2                                      l2575 009C  
                                    l2751 0143                                      l2487 0133  
                                    l2479 0124                                      l2399 021F  
                                    l2671 018F                                      l2663 017F  
                                    l2655 0170                                      l2647 0161  
                                    l2639 0155                                      l2753 00C1  
                                    l2585 00B5                                      l2577 009F  
                                    l2569 0093                                      l2497 013A  
                                    l2681 01A7                                      l2673 0194  
                                    l2665 0185                                      l2657 0174  
                                    l2649 0164                                      l2579 00A2  
                                    l2675 0198                                      l2667 0189  
                                    l2659 0179                                      l2691 0479  
                                    l2589 00B9                                      l2677 01A0  
                                    l2669 018A                                      l2693 047C  
                                    l2679 01A4                                      l2695 047E  
                                    l2697 047F                                      l2689 046F  
                                    l1995 0486                                      l2699 0480  
                                    l1997 0561                                      l1999 0564  
                           _white_fad_out 03DD                                      u1000 0380  
                                    u1001 037F                                      u1010 0328  
                                    u1011 0327                                      u1020 0345  
                                    u1100 01B3                                      u1021 0344  
                                    u1101 01B2                                      u1030 0350  
                                    u1110 01BC                                      u1031 034F  
                                    u1111 01BB                                      u1040 03B6  
                                    u1120 01C5                                      u1200 0218  
                                    u1041 03B5                                      u1121 01C4  
                                    u1201 0217                                      u1050 03D1  
                                    u1210 04F7                                      u1130 01CE  
                                    u1051 03D0                                      u1211 04F6  
                                    u1131 01CD                                      u1060 03DC  
                                    u1220 04FD                                      u1140 01D7  
                                    u1300 0110                                      u1061 03DB  
                                    u1221 04FC                                      u1141 01D6  
                                    u1301 010F                                      u1230 0441  
                                    u1070 0388                                      u1150 01E0  
                                    u1310 0124                                      u1231 0440  
                                    u1071 0387                                      u1151 01DF  
                                    u1311 0123                                      u1240 044F  
                                    u1080 03A3                                      u1160 01E8  
                                    u1320 0133                                      u1400 0174  
                                    u1241 044E                                      u1081 03A2  
                                    u1161 01E7                                      u1321 0132  
                                    u1305 010C                                      u1401 0173  
                                    u1250 0427                                      u1090 03AE  
                                    u1330 0093                                      u1170 01F2  
                                    u1410 0179                                      u1251 0426  
                                    u1091 03AD                                      u1331 0092  
                                    u1315 0120                                      u1171 01F1  
                                    u1411 0178                                      u1260 0435  
                                    u1340 0097                                      u1180 01FE  
                                    u1420 0185                                      u1261 0434  
                                    u1341 0096                                      u1325 012F  
                                    u1181 01FD                                      u1421 0184  
                                    _LATA 010C                                      u1270 04C6  
                                    u1350 009B                                      u1190 020A  
                                    u1430 018F                                      _LATB 010D  
                                    u1271 04C5                                      u1351 009A  
                                    u1191 0209                                      u1431 018E  
                                    _LATC 010E                                      u1280 0537  
                                    u1360 00B1                                      u1440 0194  
                                    u1281 0536                                      u1361 00B0  
                                    u1441 0193                                      _LATE 0110  
                                    u1290 00F6                                      u1450 0198  
                                    u1507 0089                                      u1291 00F5  
                                    u1451 0197                                      u1460 01A0  
                                    u1380 015A                                      u1517 04B3  
                                    u1461 019F                                      u1381 0159  
                                    u1390 0170                                      u1527 0412  
                                    u1391 016F                                      u1497 0081  
                                    _PLLR 04D6                                      _TMR0 0015  
                                    _TMR2 001A                                      _WPUB 020D  
                                    _WPUE 0210                               _PWM_all_off 0571  
                                    _f1ms 0074                                      _main 046F  
                                    fsr0h 0005                                      indf0 0000  
                                    fsr0l 0004                           __end_of_PWM_DRL 0571  
                                    btemp 007E                           __end_of_PWM_POS 0561  
                                    start 0013                     ??_EPWM1_LoadDutyValue 0079  
             __end_of_check_welcome_light 00F1                   __end_of_TMR0_Initialize 050E  
                 ??_all_white_led_turn_on 0077             __end_of_OSCILLATOR_Initialize 0533  
                        __end_of_LED_main 01AA                    ??_turn_on_turn_signals 007B  
                                   ?_main 0077                                     _T2CON 001C  
                                   i1l131 0011                                     i1l157 04E1  
                                   i1l376 04F1                           _TMR0_WriteTimer 0595  
                                   _P2_on 05C9                                     _TRISA 008C  
                                   _TRISB 008D                                     _TRISC 008E  
                                   _TRISE 0090                 ?_TMR0_SetInterruptHandler 0077  
                        __end_of_TMR0_ISR 04E2                           _check_test_mode 04C2  
                 __end_of_PIN_MANAGER_IOC 05D9                            _WDT_Initialize 05AD  
                          ?_white_fad_out 0077                           __end_of_is_test 05B9  
                                   pclath 000A                           _fturn_off_600ms 0070  
                                   status 0003                                     wtemp0 007E  
                         _TMR2_StartTimer 05C0                           __initialization 0015  
             yellow_seg4_backward@pwm_idx 007B                              _turn_1ms_cnt 0026  
                            __end_of_main 0486                   __end_of_TMR2_Initialize 0551  
             ?_INTERRUPT_InterruptManager 0077              __end_of_check_welcome_signal 0501  
                           _eWelcome_step 0073                                    ??_main 007E  
                                  ?_P2_on 0077                           _TMR2_WriteTimer 058B  
                  __end_of_WDT_Initialize 05B1                  ??_all_white_led_turn_off 0077  
                                  _CCPR1H 0292                                    _CCPR1L 0291  
                 _all_yellow_led_turn_off 0578                                 ??_PWM_DRL 007B  
                                  _APFCON 011D                                 ??_PWM_POS 007B  
                    _tellow_seg1_backward 0351                                    _ANSELA 018C  
                                  _ANSELB 018D                                    _BORCON 0116  
                                  i1l2441 04E4                                    i1l2601 04DC  
                                  i1l2439 04E2                                    i1l2595 04D2  
                                  i1l2683 0006                                    i1l2597 04D3  
                                  i1l2685 000A                                    i1l2599 04D6  
                                  i1l2687 000E                                    u137_20 04DC  
                                  u137_21 04DB                                    u147_20 000A  
                                  u147_21 0009                                    u148_20 000E  
                                  u148_21 000D                                    _DRL_on 043D  
                                  _P2_off 05CC                                    _OSCCON 0099  
             __end_of_yellow_seg1_forward 0321                                    _WDTCON 0097  
                                  _POS_on 0423               __end_of_yellow_seg2_forward 02F0  
                        __end_of_delay_ms 0423                          __end_of_delay_us 04C2  
             __end_of_yellow_seg3_forward 02BF                              _turn_off_cnt 0024  
             __end_of_yellow_seg4_forward 028B                              _CCPTMRS0bits 029E  
                            ?_TMR0_Reload 0077                   __end_of_TMR0_WriteTimer 059A  
                                  _is_DRL 05B9                                    _is_POS 05A4  
                        ??_tmr0_10ms_even 0077                          ?_TMR0_Initialize 0077  
                        __end_of_is_white 059F                   __end_of_check_test_mode 04D2  
                ?_TMR2_HasOverflowOccured 0077                                 ??_is_test 0077  
                            _check_POS_P2 0533                           ?_WDT_Initialize 0077  
                         ??_white_fad_out 0079                   __end_of_TMR2_StartTimer 05C3  
                   ?_tellow_seg1_backward 0077  TMR0_SetInterruptHandler@InterruptHandler 0077  
                        ?_PIN_MANAGER_IOC 0077                         _SYSTEM_Initialize 049D  
                 __end_of__initialization 002C                        ?_SYSTEM_Initialize 0077  
                               ?_LED_main 0077                             __end_of_P2_on 05CC  
                       ?_EPWM1_Initialize 0077                            __pcstackCOMMON 0077  
                            __pidataBANK0 05D5                       ??_SYSTEM_Initialize 0077  
                               ?_TMR0_ISR 0077                       _fturn_light_disable 002C  
                 __end_of_TMR2_WriteTimer 0590                        ??_EPWM1_Initialize 0077  
                        ?_TMR2_Initialize 0077                                   ??_P2_on 0077  
                          _OPTION_REGbits 0095               ??_turn_signals_state_update 007B  
               ??_all_yellow_led_turn_off 0077                                _eTurn_step 002B  
                   yellow_seg1_forward@ii 007A                 __end_of_SYSTEM_Initialize 04B0  
                              __pbssBANK0 0020                              ?_PWM_all_off 0077  
                                 ?_DRL_on 0077                                   ?_P2_off 0077  
                 _TMR2_LoadPeriodRegister 0590                      _check_welcome_signal 04F2  
                                 ?_POS_on 0077                                ??_LED_main 007E  
                              __pmaintext 046F          __end_of_TMR0_SetInterruptHandler 058B  
                              ??_TMR0_ISR 0077                     yellow_seg2_forward@ii 007A  
                              __pintentry 0004                                   ?_is_DRL 0077  
                        ?_TMR0_WriteTimer 0077                                   ?_is_POS 0077  
         __end_of_TMR2_HasOverflowOccured 0527                                   _CCP1CON 0293  
                                 _ECCP1AS 0295              __end_of_yellow_seg2_backward 0351  
                              _is_WELCOME 059F                  ??_all_yellow_led_turn_on 0077  
                        ?_check_test_mode 0077              __end_of_yellow_seg3_backward 03DD  
           __end_of_all_white_led_turn_on 05D2              __end_of_yellow_seg4_backward 03AF  
                               ?_delay_ms 0077                                 ?_delay_us 0077  
                  ??_tellow_seg1_backward 0079                                   _OSCTUNE 0098  
                                 _PWM1CON 0294                          ?_TMR2_StartTimer 0077  
                   yellow_seg3_forward@ii 007A                                   _PWM_DRL 0569  
                                 _PWM_POS 0559               __end_of_EPWM1_LoadDutyValue 049D  
                   ?_check_welcome_signal 0077               tellow_seg1_backward@pwm_idx 007B  
                               ?_is_white 0077                 _turn_signals_state_update 01EE  
                       ??_yellow_to_white 0079           __end_of_all_yellow_led_turn_off 057F  
                  _all_white_led_turn_off 05D2                     yellow_seg4_forward@ii 007A  
                        ?_TMR2_WriteTimer 0077                                   __ptext1 05D7  
                                 __ptext2 058B                                   __ptext3 05BD  
                                 __ptext4 05C0                                   __ptext5 05C3  
                                 __ptext6 0590                                   __ptext7 051B  
                                 __ptext8 0595                                   __ptext9 05A9  
                   _OSCILLATOR_Initialize 0527                                 _T2CONbits 001C  
                  yellow_seg2_backward@ii 007A                                   _is_test 05B5  
                       yellow_to_white@ii 007A                           white_fad_out@ii 007A  
                ??_PIN_MANAGER_Initialize 0077                         ??_is_turn_signals 0077  
                              ??_delay_ms 0079                                ??_delay_us 0077  
                          _fWelcome_light 0072                 ??_TMR2_LoadPeriodRegister 0077  
                                 clrloop0 0580                                delay_ms@ms 0077  
                    end_of_initialization 002C                             ??_debounce_IO 0077  
                              delay_us@us 0078                             ??_all_led_off 007B  
                        _PWM_turn_signals 0551                                ??_is_white 0077  
                          _TMR0_ReadTimer 05C6                          ??_WDT_Initialize 0077  
                _TMR0_SetInterruptHandler 0585                               ?_is_WELCOME 0077  
                               _PORTBbits 000D                                 _PORTCbits 000E  
                  yellow_seg3_backward@ii 007A                    ??_check_welcome_signal 0077  
                          _TMR2_ReadTimer 05C3                   TMR2_WriteTimer@timerVal 0077  
                    _yellow_seg2_backward 0321                            __end_of_DRL_on 0457  
                          __end_of_P2_off 05CF                      _yellow_seg3_backward 03AF  
                          __end_of_POS_on 043D                       __end_of_debounce_IO 01EE  
                     __end_of_all_led_off 0549                      _yellow_seg4_backward 0381  
                  __end_of_TMR0_ReadTimer 05C9                            __end_of_is_DRL 05BD  
                          __end_of_is_POS 05A9                    ?_OSCILLATOR_Initialize 0077  
        TMR2_LoadPeriodRegister@periodVal 0077                    yellow_seg4_backward@ii 007A  
                     start_initialization 0015                            _TMR2_StopTimer 05BD  
                  __end_of_TMR2_ReadTimer 05C6                     __end_of_white_fad_out 0408  
            EPWM1_LoadDutyValue@dutyValue 0077                                  ??_DRL_on 007B  
                   ?_yellow_seg2_backward 0077                                  ??_P2_off 0077  
                  _all_yellow_led_turn_on 0561                                  ??_POS_on 007B  
                   ?_yellow_seg3_backward 0077                     ?_yellow_seg4_backward 0077  
                         ?_TMR0_ReadTimer 0077                                  ??_is_DRL 0077  
                                ??_is_POS 0077                yellow_seg1_forward@pwm_idx 007B  
                             __pdataBANK0 002F                    __end_of_TMR2_StopTimer 05C0  
                         _welcome_1ms_cnt 0020                               __pbssCOMMON 0070  
                               ___latbits 0002           ??_clear_no_call_warning_message 007B  
                         ?_TMR2_ReadTimer 0077                           _yellow_to_white 0223  
                                ?_PWM_DRL 0077                                  ?_PWM_POS 0077  
                             _debounce_IO 01AA                               _all_led_off 053F  
                 ?_all_white_led_turn_off 0077                     _TMR0_InterruptHandler 0028  
                               _tDelay_ms 002F                       _check_welcome_light 0030  
                  _PIN_MANAGER_Initialize 0457                           _is_turn_signals 05B1  
                  tellow_seg1_backward@ii 007A                  __end_of_PWM_turn_signals 0559  
            ??_INTERRUPT_InterruptManager 0077                  ?_all_yellow_led_turn_off 0077  
       __end_of_turn_signals_state_update 0223                      ?_check_welcome_light 0077  
              yellow_seg2_forward@pwm_idx 007B                                  ?_is_test 0077  
                         ?_TMR2_StopTimer 0077                     _all_white_led_turn_on 05CF  
                  ??_yellow_seg2_backward 0079                   _TMR2_HasOverflowOccured 051B  
          __end_of_all_white_led_turn_off 05D5                         ??_TMR0_Initialize 0077  
                  ??_yellow_seg3_backward 0079                                  _LATAbits 010C  
                                _LATCbits 010E              __end_of_turn_on_turn_signals 0155  
                               clear_ram0 057F                                  _LED_main 0155  
                  ??_yellow_seg4_backward 0079                ??_TMR0_SetInterruptHandler 0079  
                                _PIR1bits 0011                             ??_TMR0_Reload 0077  
                                _TMR0_ISR 04D2                                  _PSTR1CON 0296  
                       ??_PIN_MANAGER_IOC 0077                              ??_is_WELCOME 0077  
                   ??_check_welcome_light 007C                   __end_of_yellow_to_white 0257  
                           ?_check_POS_P2 0077                          _EPWM1_Initialize 050E  
                         debounce_IO@temp 0077                       _yellow_seg1_forward 02F0  
                  yellow_to_white@pwm_idx 007B                       _yellow_seg2_forward 02BF  
              yellow_seg3_forward@pwm_idx 007B     __end_of_clear_no_call_warning_message 05D8  
           _clear_no_call_warning_message 05D7                       _yellow_seg3_forward 028B  
                     _yellow_seg4_forward 0257                         ??_TMR2_Initialize 0077  
                 __end_of_is_turn_signals 05B5                        __end_of_is_WELCOME 05A4  
             yellow_seg2_backward@pwm_idx 007B                      white_fad_out@pwm_idx 007B  
                    ?_yellow_seg1_forward 0077                    _fWelcome_light_disable 002E  
                    ?_yellow_seg2_forward 0077                   ??_OSCILLATOR_Initialize 0077  
                    ?_yellow_seg3_forward 0077                      ?_yellow_seg4_forward 0077  
                     __end_of_TMR0_Reload 05AD                            ??_check_POS_P2 0077  
                ?_TMR2_LoadPeriodRegister 0077                    ?_all_white_led_turn_on 0077  
                                _delay_ms 0408                                  _delay_us 04B0  
                          _tmr0_10ms_even 04E2                 ??_TMR2_HasOverflowOccured 0077  
                                __ptext10 05C6                                  __ptext11 0571  
                                __ptext20 050E                                  __ptext12 05D8  
                                __ptext21 0155                                  __ptext13 0585  
                                __ptext30 05B9                                  __ptext22 01EE  
                                __ptext14 049D                                  __ptext31 04F2  
                                __ptext23 00F1                                  __ptext15 05AD  
                                __ptext40 02F0                                  __ptext32 0030  
                                __ptext24 01AA                                  __ptext16 0549  
                                __ptext41 03DD                                  __ptext33 0223  
                                __ptext25 059A                                  __ptext17 0501  
                                __ptext50 05CC                                  __ptext42 0351  
                                __ptext34 0257                                  __ptext26 05B1  
                                __ptext18 0457                                  __ptext51 0423  
                                __ptext43 04B0                                  __ptext35 0381  
                                __ptext27 05B5                                  __ptext19 0527  
                                __ptext52 0559                                  __ptext44 0408  
                                __ptext36 028B                                  __ptext28 059F  
                                __ptext61 04D2                                  __ptext53 043D  
                                __ptext45 053F                                  __ptext37 03AF  
                                __ptext29 05A4                                  __ptext62 04E2  
                                __ptext54 0561                                  __ptext46 0551  
                                __ptext38 02BF                                  __ptext55 0578  
                                __ptext47 04C2                                  __ptext39 0321  
                                __ptext56 05CF                                  __ptext48 0533  
                                __ptext57 05D2                                  __ptext49 05C9  
                                __ptext58 0569                                  __ptext59 0486  
                 ?_all_yellow_led_turn_on 0077                   TMR0_WriteTimer@timerVal 0077  
                           ??_PWM_all_off 007B                         ??_TMR0_WriteTimer 0077  
                                _is_white 059A                          ??_TMR0_ReadTimer 0077  
                       ??_check_test_mode 0077                yellow_seg4_forward@pwm_idx 007B  
                   ??_yellow_seg1_forward 0079                     ??_yellow_seg2_forward 0079  
                                int$flags 007E                     ??_yellow_seg3_forward 0079  
                       ??_TMR2_StartTimer 0077        __end_of_INTERRUPT_InterruptManager 0013  
              _INTERRUPT_InterruptManager 0004                            debounce_IO@TRB 002A  
                   ??_yellow_seg4_forward 0079                               _fturn_state 002D  
                        ??_TMR2_ReadTimer 0077                          ?_yellow_to_white 0077  
                  __end_of_tmr0_10ms_even 04F2                      _turn_on_turn_signals 00F1  
                              _INTCONbits 000B            __end_of_all_yellow_led_turn_on 0569  
                                intlevel1 0000                              ?_debounce_IO 0077  
                       ??_TMR2_WriteTimer 0077                              ?_all_led_off 0077  
                 ?_PIN_MANAGER_Initialize 0077            ?_clear_no_call_warning_message 0077  
                        ?_is_turn_signals 0077                       __end_of_PWM_all_off 0578  
                             _TMR0_Reload 05A9                        _turn_fall_edge_cnt 0071  
                        ??_TMR2_StopTimer 0077           __end_of_TMR2_LoadPeriodRegister 0595  
                       ?_PWM_turn_signals 0077                                _OPTION_REG 0095  
                   ?_turn_on_turn_signals 0077                           ?_tmr0_10ms_even 0077  
                      ??_PWM_turn_signals 007B                           _TMR0_Initialize 0501  
                     _EPWM1_LoadDutyValue 0486               yellow_seg3_backward@pwm_idx 007B  
          __end_of_PIN_MANAGER_Initialize 046F                           _PIN_MANAGER_IOC 05D8  
                    __end_of_check_POS_P2 053F                  __end_of_EPWM1_Initialize 051B  
                    ?_EPWM1_LoadDutyValue 0077  
