

Microchip MPLAB XC8 Assembler V2.46 build 20240104201356 
                                                                                               Wed Apr 01 08:11:07 2026

Microchip MPLAB XC8 C Compiler v2.46 (Free license) build 20240104201356 Og1 
     1                           	processor	16F1936
     2                           	pagewidth 120
     3                           	opt	flic
     4                           	psect	idataCOMMON,global,class=CODE,delta=2,noexec
     5                           	psect	cinit,global,class=CODE,merge=1,delta=2
     6                           	psect	bssCOMMON,global,class=COMMON,space=1,delta=1,noexec
     7                           	psect	dataCOMMON,global,class=COMMON,space=1,delta=1,noexec
     8                           	psect	bssBANK0,global,class=BANK0,space=1,delta=1,noexec
     9                           	psect	clrtext,global,class=CODE,delta=2
    10                           	psect	cstackCOMMON,global,class=COMMON,space=1,delta=1,noexec
    11                           	psect	maintext,global,class=CODE,merge=1,split=1,delta=2
    12                           	psect	text1,local,class=CODE,merge=1,delta=2
    13                           	psect	text2,local,class=CODE,merge=1,delta=2
    14                           	psect	text3,local,class=CODE,merge=1,delta=2
    15                           	psect	text4,local,class=CODE,merge=1,delta=2
    16                           	psect	text5,local,class=CODE,merge=1,delta=2
    17                           	psect	text6,local,class=CODE,merge=1,delta=2
    18                           	psect	text7,local,class=CODE,merge=1,delta=2
    19                           	psect	text8,local,class=CODE,merge=1,delta=2
    20                           	psect	text9,local,class=CODE,merge=1,delta=2
    21                           	psect	text10,local,class=CODE,merge=1,delta=2
    22                           	psect	text11,local,class=CODE,merge=1,delta=2
    23                           	psect	text12,local,class=CODE,merge=1,delta=2
    24                           	psect	text13,local,class=CODE,merge=1,delta=2
    25                           	psect	text14,local,class=CODE,merge=1,delta=2
    26                           	psect	text15,local,class=CODE,merge=1,delta=2
    27                           	psect	text16,local,class=CODE,merge=1,delta=2
    28                           	psect	text17,local,class=CODE,merge=1,delta=2
    29                           	psect	text18,local,class=CODE,merge=1,delta=2
    30                           	psect	text19,local,class=CODE,merge=1,delta=2
    31                           	psect	text20,local,class=CODE,merge=1,delta=2
    32                           	psect	text21,local,class=CODE,merge=1,delta=2
    33                           	psect	text22,local,class=CODE,merge=1,delta=2
    34                           	psect	text23,local,class=CODE,merge=1,delta=2
    35                           	psect	text24,local,class=CODE,merge=1,delta=2
    36                           	psect	text25,local,class=CODE,merge=1,delta=2
    37                           	psect	text26,local,class=CODE,merge=1,delta=2
    38                           	psect	text27,local,class=CODE,merge=1,delta=2
    39                           	psect	text28,local,class=CODE,merge=1,delta=2
    40                           	psect	text29,local,class=CODE,merge=1,delta=2
    41                           	psect	text30,local,class=CODE,merge=1,delta=2
    42                           	psect	text31,local,class=CODE,merge=1,delta=2
    43                           	psect	text32,local,class=CODE,merge=1,delta=2
    44                           	psect	text33,local,class=CODE,merge=1,delta=2
    45                           	psect	text34,local,class=CODE,merge=1,delta=2
    46                           	psect	text35,local,class=CODE,merge=1,delta=2
    47                           	psect	text36,local,class=CODE,merge=1,delta=2
    48                           	psect	text37,local,class=CODE,merge=1,delta=2
    49                           	psect	text38,local,class=CODE,merge=1,delta=2
    50                           	psect	text39,local,class=CODE,merge=1,delta=2
    51                           	psect	text40,local,class=CODE,merge=1,delta=2
    52                           	psect	text41,local,class=CODE,merge=1,delta=2
    53                           	psect	text42,local,class=CODE,merge=1,delta=2
    54                           	psect	text43,local,class=CODE,merge=1,delta=2
    55                           	psect	text44,local,class=CODE,merge=1,delta=2
    56                           	psect	text45,local,class=CODE,merge=1,delta=2
    57                           	psect	text46,local,class=CODE,merge=1,delta=2
    58                           	psect	text47,local,class=CODE,merge=1,delta=2
    59                           	psect	text48,local,class=CODE,merge=1,delta=2
    60                           	psect	text49,local,class=CODE,merge=1,delta=2
    61                           	psect	text50,local,class=CODE,merge=1,delta=2
    62                           	psect	text51,local,class=CODE,merge=1,delta=2
    63                           	psect	text52,local,class=CODE,merge=1,delta=2
    64                           	psect	text53,local,class=CODE,merge=1,delta=2
    65                           	psect	text54,local,class=CODE,merge=1,delta=2
    66                           	psect	text55,local,class=CODE,merge=1,delta=2
    67                           	psect	text56,local,class=CODE,merge=1,delta=2
    68                           	psect	text57,local,class=CODE,merge=1,delta=2
    69                           	psect	text58,local,class=CODE,merge=1,delta=2
    70                           	psect	text59,local,class=CODE,merge=1,delta=2
    71                           	psect	text60,local,class=CODE,merge=1,delta=2
    72                           	psect	text61,local,class=CODE,merge=1,delta=2
    73                           	psect	text62,local,class=CODE,merge=1,delta=2
    74                           	psect	text63,local,class=CODE,merge=1,delta=2
    75                           	psect	text64,local,class=CODE,merge=1,delta=2
    76                           	psect	text65,local,class=CODE,merge=1,delta=2
    77                           	psect	intentry,global,class=CODE,delta=2
    78                           	psect	text67,local,class=CODE,merge=1,delta=2
    79                           	psect	text68,local,class=CODE,merge=1,delta=2
    80                           	psect	config,global,abs,ovrld,class=CONFIG,space=4,delta=2,noexec
    81                           	dabs	1,0x7E,2
    82     0000                     
    83                           ; Version 2.20
    84                           ; Generated 12/02/2020 GMT
    85                           ; 
    86                           ; Copyright © 2020, Microchip Technology Inc. and its subsidiaries ("Microchip")
    87                           ; All rights reserved.
    88                           ; 
    89                           ; This software is developed by Microchip Technology Inc. and its subsidiaries ("Microch
      +                          ip").
    90                           ; 
    91                           ; Redistribution and use in source and binary forms, with or without modification, are
    92                           ; permitted provided that the following conditions are met:
    93                           ; 
    94                           ;     1. Redistributions of source code must retain the above copyright notice, this lis
      +                          t of
    95                           ;        conditions and the following disclaimer.
    96                           ; 
    97                           ;     2. Redistributions in binary form must reproduce the above copyright notice, this 
      +                          list
    98                           ;        of conditions and the following disclaimer in the documentation and/or other
    99                           ;        materials provided with the distribution.
   100                           ; 
   101                           ;     3. Microchip's name may not be used to endorse or promote products derived from th
      +                          is
   102                           ;        software without specific prior written permission.
   103                           ; 
   104                           ; THIS SOFTWARE IS PROVIDED BY MICROCHIP "AS IS" AND ANY EXPRESS OR IMPLIED WARRANTIES,
   105                           ; INCLUDING, BUT NOT LIMITED TO, THE IMPLIED WARRANTIES OF MERCHANTABILITY AND FITNESS F
      +                          OR
   106                           ; PURPOSE ARE DISCLAIMED.  IN NO EVENT SHALL MICROCHIP BE LIABLE FOR ANY DIRECT, INDIREC
      +                          T,
   107                           ; INCIDENTAL, SPECIAL, EXEMPLARY, OR CONSEQUENTIAL DAMAGES (INCLUDING BUT NOT LIMITED TO
   108                           ; PROCUREMENT OF SUBSTITUTE GOODS OR SERVICES; LOSS OF USE, DATA OR PROFITS; OR BUSINESS
   109                           ; INTERRUPTION) HOWSOEVER CAUSED AND ON ANY THEORY OF LIABILITY, WHETHER IN CONTRACT, ST
      +                          RICT
   110                           ; LIABILITY, OR TORT (INCLUDING NEGLIGENCE OR OTHERWISE) ARISING IN ANY WAY OUT OF THE U
      +                          SE OF
   111                           ; THIS SOFTWARE, EVEN IF ADVISED OF THE POSSIBILITY OF SUCH DAMAGE.
   112                           ; 
   113                           ; 
   114                           ; Code-generator required, PIC16F1936 Definitions
   115                           ; 
   116                           ; SFR Addresses
   117     0000                     	;# 
   118     0001                     	;# 
   119     0002                     	;# 
   120     0003                     	;# 
   121     0004                     	;# 
   122     0005                     	;# 
   123     0006                     	;# 
   124     0007                     	;# 
   125     0008                     	;# 
   126     0009                     	;# 
   127     000A                     	;# 
   128     000B                     	;# 
   129     000C                     	;# 
   130     000D                     	;# 
   131     000E                     	;# 
   132     0010                     	;# 
   133     0011                     	;# 
   134     0012                     	;# 
   135     0013                     	;# 
   136     0015                     	;# 
   137     0016                     	;# 
   138     0016                     	;# 
   139     0017                     	;# 
   140     0018                     	;# 
   141     0019                     	;# 
   142     001A                     	;# 
   143     001B                     	;# 
   144     001C                     	;# 
   145     001E                     	;# 
   146     001F                     	;# 
   147     008C                     	;# 
   148     008D                     	;# 
   149     008E                     	;# 
   150     0090                     	;# 
   151     0091                     	;# 
   152     0092                     	;# 
   153     0093                     	;# 
   154     0095                     	;# 
   155     0096                     	;# 
   156     0097                     	;# 
   157     0098                     	;# 
   158     0099                     	;# 
   159     009A                     	;# 
   160     009B                     	;# 
   161     009B                     	;# 
   162     009C                     	;# 
   163     009D                     	;# 
   164     009E                     	;# 
   165     010C                     	;# 
   166     010D                     	;# 
   167     010E                     	;# 
   168     0110                     	;# 
   169     0111                     	;# 
   170     0112                     	;# 
   171     0113                     	;# 
   172     0114                     	;# 
   173     0115                     	;# 
   174     0116                     	;# 
   175     0117                     	;# 
   176     0118                     	;# 
   177     0119                     	;# 
   178     011A                     	;# 
   179     011B                     	;# 
   180     011D                     	;# 
   181     018C                     	;# 
   182     018D                     	;# 
   183     0191                     	;# 
   184     0191                     	;# 
   185     0192                     	;# 
   186     0193                     	;# 
   187     0193                     	;# 
   188     0193                     	;# 
   189     0194                     	;# 
   190     0195                     	;# 
   191     0196                     	;# 
   192     0199                     	;# 
   193     019A                     	;# 
   194     019B                     	;# 
   195     019B                     	;# 
   196     019B                     	;# 
   197     019B                     	;# 
   198     019C                     	;# 
   199     019C                     	;# 
   200     019D                     	;# 
   201     019E                     	;# 
   202     019F                     	;# 
   203     020D                     	;# 
   204     0210                     	;# 
   205     0211                     	;# 
   206     0212                     	;# 
   207     0213                     	;# 
   208     0214                     	;# 
   209     0215                     	;# 
   210     0215                     	;# 
   211     0216                     	;# 
   212     0217                     	;# 
   213     0291                     	;# 
   214     0291                     	;# 
   215     0292                     	;# 
   216     0293                     	;# 
   217     0294                     	;# 
   218     0295                     	;# 
   219     0295                     	;# 
   220     0296                     	;# 
   221     0298                     	;# 
   222     0298                     	;# 
   223     0299                     	;# 
   224     029A                     	;# 
   225     029B                     	;# 
   226     029C                     	;# 
   227     029C                     	;# 
   228     029D                     	;# 
   229     029E                     	;# 
   230     029F                     	;# 
   231     0311                     	;# 
   232     0311                     	;# 
   233     0312                     	;# 
   234     0313                     	;# 
   235     0314                     	;# 
   236     0315                     	;# 
   237     0315                     	;# 
   238     0316                     	;# 
   239     0318                     	;# 
   240     0318                     	;# 
   241     0319                     	;# 
   242     031A                     	;# 
   243     031C                     	;# 
   244     031C                     	;# 
   245     031D                     	;# 
   246     031E                     	;# 
   247     0394                     	;# 
   248     0395                     	;# 
   249     0396                     	;# 
   250     0415                     	;# 
   251     0416                     	;# 
   252     0417                     	;# 
   253     041C                     	;# 
   254     041D                     	;# 
   255     041E                     	;# 
   256     0791                     	;# 
   257     0792                     	;# 
   258     0793                     	;# 
   259     0794                     	;# 
   260     0795                     	;# 
   261     0798                     	;# 
   262     0799                     	;# 
   263     07A0                     	;# 
   264     07A1                     	;# 
   265     07A3                     	;# 
   266     07A4                     	;# 
   267     07A6                     	;# 
   268     07A7                     	;# 
   269     07A9                     	;# 
   270     07AA                     	;# 
   271     0FE4                     	;# 
   272     0FE5                     	;# 
   273     0FE6                     	;# 
   274     0FE7                     	;# 
   275     0FE8                     	;# 
   276     0FE9                     	;# 
   277     0FEA                     	;# 
   278     0FEB                     	;# 
   279     0FED                     	;# 
   280     0FEE                     	;# 
   281     0FEF                     	;# 
   282     0000                     	;# 
   283     0001                     	;# 
   284     0002                     	;# 
   285     0003                     	;# 
   286     0004                     	;# 
   287     0005                     	;# 
   288     0006                     	;# 
   289     0007                     	;# 
   290     0008                     	;# 
   291     0009                     	;# 
   292     000A                     	;# 
   293     000B                     	;# 
   294     000C                     	;# 
   295     000D                     	;# 
   296     000E                     	;# 
   297     0010                     	;# 
   298     0011                     	;# 
   299     0012                     	;# 
   300     0013                     	;# 
   301     0015                     	;# 
   302     0016                     	;# 
   303     0016                     	;# 
   304     0017                     	;# 
   305     0018                     	;# 
   306     0019                     	;# 
   307     001A                     	;# 
   308     001B                     	;# 
   309     001C                     	;# 
   310     001E                     	;# 
   311     001F                     	;# 
   312     008C                     	;# 
   313     008D                     	;# 
   314     008E                     	;# 
   315     0090                     	;# 
   316     0091                     	;# 
   317     0092                     	;# 
   318     0093                     	;# 
   319     0095                     	;# 
   320     0096                     	;# 
   321     0097                     	;# 
   322     0098                     	;# 
   323     0099                     	;# 
   324     009A                     	;# 
   325     009B                     	;# 
   326     009B                     	;# 
   327     009C                     	;# 
   328     009D                     	;# 
   329     009E                     	;# 
   330     010C                     	;# 
   331     010D                     	;# 
   332     010E                     	;# 
   333     0110                     	;# 
   334     0111                     	;# 
   335     0112                     	;# 
   336     0113                     	;# 
   337     0114                     	;# 
   338     0115                     	;# 
   339     0116                     	;# 
   340     0117                     	;# 
   341     0118                     	;# 
   342     0119                     	;# 
   343     011A                     	;# 
   344     011B                     	;# 
   345     011D                     	;# 
   346     018C                     	;# 
   347     018D                     	;# 
   348     0191                     	;# 
   349     0191                     	;# 
   350     0192                     	;# 
   351     0193                     	;# 
   352     0193                     	;# 
   353     0193                     	;# 
   354     0194                     	;# 
   355     0195                     	;# 
   356     0196                     	;# 
   357     0199                     	;# 
   358     019A                     	;# 
   359     019B                     	;# 
   360     019B                     	;# 
   361     019B                     	;# 
   362     019B                     	;# 
   363     019C                     	;# 
   364     019C                     	;# 
   365     019D                     	;# 
   366     019E                     	;# 
   367     019F                     	;# 
   368     020D                     	;# 
   369     0210                     	;# 
   370     0211                     	;# 
   371     0212                     	;# 
   372     0213                     	;# 
   373     0214                     	;# 
   374     0215                     	;# 
   375     0215                     	;# 
   376     0216                     	;# 
   377     0217                     	;# 
   378     0291                     	;# 
   379     0291                     	;# 
   380     0292                     	;# 
   381     0293                     	;# 
   382     0294                     	;# 
   383     0295                     	;# 
   384     0295                     	;# 
   385     0296                     	;# 
   386     0298                     	;# 
   387     0298                     	;# 
   388     0299                     	;# 
   389     029A                     	;# 
   390     029B                     	;# 
   391     029C                     	;# 
   392     029C                     	;# 
   393     029D                     	;# 
   394     029E                     	;# 
   395     029F                     	;# 
   396     0311                     	;# 
   397     0311                     	;# 
   398     0312                     	;# 
   399     0313                     	;# 
   400     0314                     	;# 
   401     0315                     	;# 
   402     0315                     	;# 
   403     0316                     	;# 
   404     0318                     	;# 
   405     0318                     	;# 
   406     0319                     	;# 
   407     031A                     	;# 
   408     031C                     	;# 
   409     031C                     	;# 
   410     031D                     	;# 
   411     031E                     	;# 
   412     0394                     	;# 
   413     0395                     	;# 
   414     0396                     	;# 
   415     0415                     	;# 
   416     0416                     	;# 
   417     0417                     	;# 
   418     041C                     	;# 
   419     041D                     	;# 
   420     041E                     	;# 
   421     0791                     	;# 
   422     0792                     	;# 
   423     0793                     	;# 
   424     0794                     	;# 
   425     0795                     	;# 
   426     0798                     	;# 
   427     0799                     	;# 
   428     07A0                     	;# 
   429     07A1                     	;# 
   430     07A3                     	;# 
   431     07A4                     	;# 
   432     07A6                     	;# 
   433     07A7                     	;# 
   434     07A9                     	;# 
   435     07AA                     	;# 
   436     0FE4                     	;# 
   437     0FE5                     	;# 
   438     0FE6                     	;# 
   439     0FE7                     	;# 
   440     0FE8                     	;# 
   441     0FE9                     	;# 
   442     0FEA                     	;# 
   443     0FEB                     	;# 
   444     0FED                     	;# 
   445     0FEE                     	;# 
   446     0FEF                     	;# 
   447     0000                     	;# 
   448     0001                     	;# 
   449     0002                     	;# 
   450     0003                     	;# 
   451     0004                     	;# 
   452     0005                     	;# 
   453     0006                     	;# 
   454     0007                     	;# 
   455     0008                     	;# 
   456     0009                     	;# 
   457     000A                     	;# 
   458     000B                     	;# 
   459     000C                     	;# 
   460     000D                     	;# 
   461     000E                     	;# 
   462     0010                     	;# 
   463     0011                     	;# 
   464     0012                     	;# 
   465     0013                     	;# 
   466     0015                     	;# 
   467     0016                     	;# 
   468     0016                     	;# 
   469     0017                     	;# 
   470     0018                     	;# 
   471     0019                     	;# 
   472     001A                     	;# 
   473     001B                     	;# 
   474     001C                     	;# 
   475     001E                     	;# 
   476     001F                     	;# 
   477     008C                     	;# 
   478     008D                     	;# 
   479     008E                     	;# 
   480     0090                     	;# 
   481     0091                     	;# 
   482     0092                     	;# 
   483     0093                     	;# 
   484     0095                     	;# 
   485     0096                     	;# 
   486     0097                     	;# 
   487     0098                     	;# 
   488     0099                     	;# 
   489     009A                     	;# 
   490     009B                     	;# 
   491     009B                     	;# 
   492     009C                     	;# 
   493     009D                     	;# 
   494     009E                     	;# 
   495     010C                     	;# 
   496     010D                     	;# 
   497     010E                     	;# 
   498     0110                     	;# 
   499     0111                     	;# 
   500     0112                     	;# 
   501     0113                     	;# 
   502     0114                     	;# 
   503     0115                     	;# 
   504     0116                     	;# 
   505     0117                     	;# 
   506     0118                     	;# 
   507     0119                     	;# 
   508     011A                     	;# 
   509     011B                     	;# 
   510     011D                     	;# 
   511     018C                     	;# 
   512     018D                     	;# 
   513     0191                     	;# 
   514     0191                     	;# 
   515     0192                     	;# 
   516     0193                     	;# 
   517     0193                     	;# 
   518     0193                     	;# 
   519     0194                     	;# 
   520     0195                     	;# 
   521     0196                     	;# 
   522     0199                     	;# 
   523     019A                     	;# 
   524     019B                     	;# 
   525     019B                     	;# 
   526     019B                     	;# 
   527     019B                     	;# 
   528     019C                     	;# 
   529     019C                     	;# 
   530     019D                     	;# 
   531     019E                     	;# 
   532     019F                     	;# 
   533     020D                     	;# 
   534     0210                     	;# 
   535     0211                     	;# 
   536     0212                     	;# 
   537     0213                     	;# 
   538     0214                     	;# 
   539     0215                     	;# 
   540     0215                     	;# 
   541     0216                     	;# 
   542     0217                     	;# 
   543     0291                     	;# 
   544     0291                     	;# 
   545     0292                     	;# 
   546     0293                     	;# 
   547     0294                     	;# 
   548     0295                     	;# 
   549     0295                     	;# 
   550     0296                     	;# 
   551     0298                     	;# 
   552     0298                     	;# 
   553     0299                     	;# 
   554     029A                     	;# 
   555     029B                     	;# 
   556     029C                     	;# 
   557     029C                     	;# 
   558     029D                     	;# 
   559     029E                     	;# 
   560     029F                     	;# 
   561     0311                     	;# 
   562     0311                     	;# 
   563     0312                     	;# 
   564     0313                     	;# 
   565     0314                     	;# 
   566     0315                     	;# 
   567     0315                     	;# 
   568     0316                     	;# 
   569     0318                     	;# 
   570     0318                     	;# 
   571     0319                     	;# 
   572     031A                     	;# 
   573     031C                     	;# 
   574     031C                     	;# 
   575     031D                     	;# 
   576     031E                     	;# 
   577     0394                     	;# 
   578     0395                     	;# 
   579     0396                     	;# 
   580     0415                     	;# 
   581     0416                     	;# 
   582     0417                     	;# 
   583     041C                     	;# 
   584     041D                     	;# 
   585     041E                     	;# 
   586     0791                     	;# 
   587     0792                     	;# 
   588     0793                     	;# 
   589     0794                     	;# 
   590     0795                     	;# 
   591     0798                     	;# 
   592     0799                     	;# 
   593     07A0                     	;# 
   594     07A1                     	;# 
   595     07A3                     	;# 
   596     07A4                     	;# 
   597     07A6                     	;# 
   598     07A7                     	;# 
   599     07A9                     	;# 
   600     07AA                     	;# 
   601     0FE4                     	;# 
   602     0FE5                     	;# 
   603     0FE6                     	;# 
   604     0FE7                     	;# 
   605     0FE8                     	;# 
   606     0FE9                     	;# 
   607     0FEA                     	;# 
   608     0FEB                     	;# 
   609     0FED                     	;# 
   610     0FEE                     	;# 
   611     0FEF                     	;# 
   612     0000                     	;# 
   613     0001                     	;# 
   614     0002                     	;# 
   615     0003                     	;# 
   616     0004                     	;# 
   617     0005                     	;# 
   618     0006                     	;# 
   619     0007                     	;# 
   620     0008                     	;# 
   621     0009                     	;# 
   622     000A                     	;# 
   623     000B                     	;# 
   624     000C                     	;# 
   625     000D                     	;# 
   626     000E                     	;# 
   627     0010                     	;# 
   628     0011                     	;# 
   629     0012                     	;# 
   630     0013                     	;# 
   631     0015                     	;# 
   632     0016                     	;# 
   633     0016                     	;# 
   634     0017                     	;# 
   635     0018                     	;# 
   636     0019                     	;# 
   637     001A                     	;# 
   638     001B                     	;# 
   639     001C                     	;# 
   640     001E                     	;# 
   641     001F                     	;# 
   642     008C                     	;# 
   643     008D                     	;# 
   644     008E                     	;# 
   645     0090                     	;# 
   646     0091                     	;# 
   647     0092                     	;# 
   648     0093                     	;# 
   649     0095                     	;# 
   650     0096                     	;# 
   651     0097                     	;# 
   652     0098                     	;# 
   653     0099                     	;# 
   654     009A                     	;# 
   655     009B                     	;# 
   656     009B                     	;# 
   657     009C                     	;# 
   658     009D                     	;# 
   659     009E                     	;# 
   660     010C                     	;# 
   661     010D                     	;# 
   662     010E                     	;# 
   663     0110                     	;# 
   664     0111                     	;# 
   665     0112                     	;# 
   666     0113                     	;# 
   667     0114                     	;# 
   668     0115                     	;# 
   669     0116                     	;# 
   670     0117                     	;# 
   671     0118                     	;# 
   672     0119                     	;# 
   673     011A                     	;# 
   674     011B                     	;# 
   675     011D                     	;# 
   676     018C                     	;# 
   677     018D                     	;# 
   678     0191                     	;# 
   679     0191                     	;# 
   680     0192                     	;# 
   681     0193                     	;# 
   682     0193                     	;# 
   683     0193                     	;# 
   684     0194                     	;# 
   685     0195                     	;# 
   686     0196                     	;# 
   687     0199                     	;# 
   688     019A                     	;# 
   689     019B                     	;# 
   690     019B                     	;# 
   691     019B                     	;# 
   692     019B                     	;# 
   693     019C                     	;# 
   694     019C                     	;# 
   695     019D                     	;# 
   696     019E                     	;# 
   697     019F                     	;# 
   698     020D                     	;# 
   699     0210                     	;# 
   700     0211                     	;# 
   701     0212                     	;# 
   702     0213                     	;# 
   703     0214                     	;# 
   704     0215                     	;# 
   705     0215                     	;# 
   706     0216                     	;# 
   707     0217                     	;# 
   708     0291                     	;# 
   709     0291                     	;# 
   710     0292                     	;# 
   711     0293                     	;# 
   712     0294                     	;# 
   713     0295                     	;# 
   714     0295                     	;# 
   715     0296                     	;# 
   716     0298                     	;# 
   717     0298                     	;# 
   718     0299                     	;# 
   719     029A                     	;# 
   720     029B                     	;# 
   721     029C                     	;# 
   722     029C                     	;# 
   723     029D                     	;# 
   724     029E                     	;# 
   725     029F                     	;# 
   726     0311                     	;# 
   727     0311                     	;# 
   728     0312                     	;# 
   729     0313                     	;# 
   730     0314                     	;# 
   731     0315                     	;# 
   732     0315                     	;# 
   733     0316                     	;# 
   734     0318                     	;# 
   735     0318                     	;# 
   736     0319                     	;# 
   737     031A                     	;# 
   738     031C                     	;# 
   739     031C                     	;# 
   740     031D                     	;# 
   741     031E                     	;# 
   742     0394                     	;# 
   743     0395                     	;# 
   744     0396                     	;# 
   745     0415                     	;# 
   746     0416                     	;# 
   747     0417                     	;# 
   748     041C                     	;# 
   749     041D                     	;# 
   750     041E                     	;# 
   751     0791                     	;# 
   752     0792                     	;# 
   753     0793                     	;# 
   754     0794                     	;# 
   755     0795                     	;# 
   756     0798                     	;# 
   757     0799                     	;# 
   758     07A0                     	;# 
   759     07A1                     	;# 
   760     07A3                     	;# 
   761     07A4                     	;# 
   762     07A6                     	;# 
   763     07A7                     	;# 
   764     07A9                     	;# 
   765     07AA                     	;# 
   766     0FE4                     	;# 
   767     0FE5                     	;# 
   768     0FE6                     	;# 
   769     0FE7                     	;# 
   770     0FE8                     	;# 
   771     0FE9                     	;# 
   772     0FEA                     	;# 
   773     0FEB                     	;# 
   774     0FED                     	;# 
   775     0FEE                     	;# 
   776     0FEF                     	;# 
   777     0000                     	;# 
   778     0001                     	;# 
   779     0002                     	;# 
   780     0003                     	;# 
   781     0004                     	;# 
   782     0005                     	;# 
   783     0006                     	;# 
   784     0007                     	;# 
   785     0008                     	;# 
   786     0009                     	;# 
   787     000A                     	;# 
   788     000B                     	;# 
   789     000C                     	;# 
   790     000D                     	;# 
   791     000E                     	;# 
   792     0010                     	;# 
   793     0011                     	;# 
   794     0012                     	;# 
   795     0013                     	;# 
   796     0015                     	;# 
   797     0016                     	;# 
   798     0016                     	;# 
   799     0017                     	;# 
   800     0018                     	;# 
   801     0019                     	;# 
   802     001A                     	;# 
   803     001B                     	;# 
   804     001C                     	;# 
   805     001E                     	;# 
   806     001F                     	;# 
   807     008C                     	;# 
   808     008D                     	;# 
   809     008E                     	;# 
   810     0090                     	;# 
   811     0091                     	;# 
   812     0092                     	;# 
   813     0093                     	;# 
   814     0095                     	;# 
   815     0096                     	;# 
   816     0097                     	;# 
   817     0098                     	;# 
   818     0099                     	;# 
   819     009A                     	;# 
   820     009B                     	;# 
   821     009B                     	;# 
   822     009C                     	;# 
   823     009D                     	;# 
   824     009E                     	;# 
   825     010C                     	;# 
   826     010D                     	;# 
   827     010E                     	;# 
   828     0110                     	;# 
   829     0111                     	;# 
   830     0112                     	;# 
   831     0113                     	;# 
   832     0114                     	;# 
   833     0115                     	;# 
   834     0116                     	;# 
   835     0117                     	;# 
   836     0118                     	;# 
   837     0119                     	;# 
   838     011A                     	;# 
   839     011B                     	;# 
   840     011D                     	;# 
   841     018C                     	;# 
   842     018D                     	;# 
   843     0191                     	;# 
   844     0191                     	;# 
   845     0192                     	;# 
   846     0193                     	;# 
   847     0193                     	;# 
   848     0193                     	;# 
   849     0194                     	;# 
   850     0195                     	;# 
   851     0196                     	;# 
   852     0199                     	;# 
   853     019A                     	;# 
   854     019B                     	;# 
   855     019B                     	;# 
   856     019B                     	;# 
   857     019B                     	;# 
   858     019C                     	;# 
   859     019C                     	;# 
   860     019D                     	;# 
   861     019E                     	;# 
   862     019F                     	;# 
   863     020D                     	;# 
   864     0210                     	;# 
   865     0211                     	;# 
   866     0212                     	;# 
   867     0213                     	;# 
   868     0214                     	;# 
   869     0215                     	;# 
   870     0215                     	;# 
   871     0216                     	;# 
   872     0217                     	;# 
   873     0291                     	;# 
   874     0291                     	;# 
   875     0292                     	;# 
   876     0293                     	;# 
   877     0294                     	;# 
   878     0295                     	;# 
   879     0295                     	;# 
   880     0296                     	;# 
   881     0298                     	;# 
   882     0298                     	;# 
   883     0299                     	;# 
   884     029A                     	;# 
   885     029B                     	;# 
   886     029C                     	;# 
   887     029C                     	;# 
   888     029D                     	;# 
   889     029E                     	;# 
   890     029F                     	;# 
   891     0311                     	;# 
   892     0311                     	;# 
   893     0312                     	;# 
   894     0313                     	;# 
   895     0314                     	;# 
   896     0315                     	;# 
   897     0315                     	;# 
   898     0316                     	;# 
   899     0318                     	;# 
   900     0318                     	;# 
   901     0319                     	;# 
   902     031A                     	;# 
   903     031C                     	;# 
   904     031C                     	;# 
   905     031D                     	;# 
   906     031E                     	;# 
   907     0394                     	;# 
   908     0395                     	;# 
   909     0396                     	;# 
   910     0415                     	;# 
   911     0416                     	;# 
   912     0417                     	;# 
   913     041C                     	;# 
   914     041D                     	;# 
   915     041E                     	;# 
   916     0791                     	;# 
   917     0792                     	;# 
   918     0793                     	;# 
   919     0794                     	;# 
   920     0795                     	;# 
   921     0798                     	;# 
   922     0799                     	;# 
   923     07A0                     	;# 
   924     07A1                     	;# 
   925     07A3                     	;# 
   926     07A4                     	;# 
   927     07A6                     	;# 
   928     07A7                     	;# 
   929     07A9                     	;# 
   930     07AA                     	;# 
   931     0FE4                     	;# 
   932     0FE5                     	;# 
   933     0FE6                     	;# 
   934     0FE7                     	;# 
   935     0FE8                     	;# 
   936     0FE9                     	;# 
   937     0FEA                     	;# 
   938     0FEB                     	;# 
   939     0FED                     	;# 
   940     0FEE                     	;# 
   941     0FEF                     	;# 
   942     0000                     	;# 
   943     0001                     	;# 
   944     0002                     	;# 
   945     0003                     	;# 
   946     0004                     	;# 
   947     0005                     	;# 
   948     0006                     	;# 
   949     0007                     	;# 
   950     0008                     	;# 
   951     0009                     	;# 
   952     000A                     	;# 
   953     000B                     	;# 
   954     000C                     	;# 
   955     000D                     	;# 
   956     000E                     	;# 
   957     0010                     	;# 
   958     0011                     	;# 
   959     0012                     	;# 
   960     0013                     	;# 
   961     0015                     	;# 
   962     0016                     	;# 
   963     0016                     	;# 
   964     0017                     	;# 
   965     0018                     	;# 
   966     0019                     	;# 
   967     001A                     	;# 
   968     001B                     	;# 
   969     001C                     	;# 
   970     001E                     	;# 
   971     001F                     	;# 
   972     008C                     	;# 
   973     008D                     	;# 
   974     008E                     	;# 
   975     0090                     	;# 
   976     0091                     	;# 
   977     0092                     	;# 
   978     0093                     	;# 
   979     0095                     	;# 
   980     0096                     	;# 
   981     0097                     	;# 
   982     0098                     	;# 
   983     0099                     	;# 
   984     009A                     	;# 
   985     009B                     	;# 
   986     009B                     	;# 
   987     009C                     	;# 
   988     009D                     	;# 
   989     009E                     	;# 
   990     010C                     	;# 
   991     010D                     	;# 
   992     010E                     	;# 
   993     0110                     	;# 
   994     0111                     	;# 
   995     0112                     	;# 
   996     0113                     	;# 
   997     0114                     	;# 
   998     0115                     	;# 
   999     0116                     	;# 
  1000     0117                     	;# 
  1001     0118                     	;# 
  1002     0119                     	;# 
  1003     011A                     	;# 
  1004     011B                     	;# 
  1005     011D                     	;# 
  1006     018C                     	;# 
  1007     018D                     	;# 
  1008     0191                     	;# 
  1009     0191                     	;# 
  1010     0192                     	;# 
  1011     0193                     	;# 
  1012     0193                     	;# 
  1013     0193                     	;# 
  1014     0194                     	;# 
  1015     0195                     	;# 
  1016     0196                     	;# 
  1017     0199                     	;# 
  1018     019A                     	;# 
  1019     019B                     	;# 
  1020     019B                     	;# 
  1021     019B                     	;# 
  1022     019B                     	;# 
  1023     019C                     	;# 
  1024     019C                     	;# 
  1025     019D                     	;# 
  1026     019E                     	;# 
  1027     019F                     	;# 
  1028     020D                     	;# 
  1029     0210                     	;# 
  1030     0211                     	;# 
  1031     0212                     	;# 
  1032     0213                     	;# 
  1033     0214                     	;# 
  1034     0215                     	;# 
  1035     0215                     	;# 
  1036     0216                     	;# 
  1037     0217                     	;# 
  1038     0291                     	;# 
  1039     0291                     	;# 
  1040     0292                     	;# 
  1041     0293                     	;# 
  1042     0294                     	;# 
  1043     0295                     	;# 
  1044     0295                     	;# 
  1045     0296                     	;# 
  1046     0298                     	;# 
  1047     0298                     	;# 
  1048     0299                     	;# 
  1049     029A                     	;# 
  1050     029B                     	;# 
  1051     029C                     	;# 
  1052     029C                     	;# 
  1053     029D                     	;# 
  1054     029E                     	;# 
  1055     029F                     	;# 
  1056     0311                     	;# 
  1057     0311                     	;# 
  1058     0312                     	;# 
  1059     0313                     	;# 
  1060     0314                     	;# 
  1061     0315                     	;# 
  1062     0315                     	;# 
  1063     0316                     	;# 
  1064     0318                     	;# 
  1065     0318                     	;# 
  1066     0319                     	;# 
  1067     031A                     	;# 
  1068     031C                     	;# 
  1069     031C                     	;# 
  1070     031D                     	;# 
  1071     031E                     	;# 
  1072     0394                     	;# 
  1073     0395                     	;# 
  1074     0396                     	;# 
  1075     0415                     	;# 
  1076     0416                     	;# 
  1077     0417                     	;# 
  1078     041C                     	;# 
  1079     041D                     	;# 
  1080     041E                     	;# 
  1081     0791                     	;# 
  1082     0792                     	;# 
  1083     0793                     	;# 
  1084     0794                     	;# 
  1085     0795                     	;# 
  1086     0798                     	;# 
  1087     0799                     	;# 
  1088     07A0                     	;# 
  1089     07A1                     	;# 
  1090     07A3                     	;# 
  1091     07A4                     	;# 
  1092     07A6                     	;# 
  1093     07A7                     	;# 
  1094     07A9                     	;# 
  1095     07AA                     	;# 
  1096     0FE4                     	;# 
  1097     0FE5                     	;# 
  1098     0FE6                     	;# 
  1099     0FE7                     	;# 
  1100     0FE8                     	;# 
  1101     0FE9                     	;# 
  1102     0FEA                     	;# 
  1103     0FEB                     	;# 
  1104     0FED                     	;# 
  1105     0FEE                     	;# 
  1106     0FEF                     	;# 
  1107     0000                     	;# 
  1108     0001                     	;# 
  1109     0002                     	;# 
  1110     0003                     	;# 
  1111     0004                     	;# 
  1112     0005                     	;# 
  1113     0006                     	;# 
  1114     0007                     	;# 
  1115     0008                     	;# 
  1116     0009                     	;# 
  1117     000A                     	;# 
  1118     000B                     	;# 
  1119     000C                     	;# 
  1120     000D                     	;# 
  1121     000E                     	;# 
  1122     0010                     	;# 
  1123     0011                     	;# 
  1124     0012                     	;# 
  1125     0013                     	;# 
  1126     0015                     	;# 
  1127     0016                     	;# 
  1128     0016                     	;# 
  1129     0017                     	;# 
  1130     0018                     	;# 
  1131     0019                     	;# 
  1132     001A                     	;# 
  1133     001B                     	;# 
  1134     001C                     	;# 
  1135     001E                     	;# 
  1136     001F                     	;# 
  1137     008C                     	;# 
  1138     008D                     	;# 
  1139     008E                     	;# 
  1140     0090                     	;# 
  1141     0091                     	;# 
  1142     0092                     	;# 
  1143     0093                     	;# 
  1144     0095                     	;# 
  1145     0096                     	;# 
  1146     0097                     	;# 
  1147     0098                     	;# 
  1148     0099                     	;# 
  1149     009A                     	;# 
  1150     009B                     	;# 
  1151     009B                     	;# 
  1152     009C                     	;# 
  1153     009D                     	;# 
  1154     009E                     	;# 
  1155     010C                     	;# 
  1156     010D                     	;# 
  1157     010E                     	;# 
  1158     0110                     	;# 
  1159     0111                     	;# 
  1160     0112                     	;# 
  1161     0113                     	;# 
  1162     0114                     	;# 
  1163     0115                     	;# 
  1164     0116                     	;# 
  1165     0117                     	;# 
  1166     0118                     	;# 
  1167     0119                     	;# 
  1168     011A                     	;# 
  1169     011B                     	;# 
  1170     011D                     	;# 
  1171     018C                     	;# 
  1172     018D                     	;# 
  1173     0191                     	;# 
  1174     0191                     	;# 
  1175     0192                     	;# 
  1176     0193                     	;# 
  1177     0193                     	;# 
  1178     0193                     	;# 
  1179     0194                     	;# 
  1180     0195                     	;# 
  1181     0196                     	;# 
  1182     0199                     	;# 
  1183     019A                     	;# 
  1184     019B                     	;# 
  1185     019B                     	;# 
  1186     019B                     	;# 
  1187     019B                     	;# 
  1188     019C                     	;# 
  1189     019C                     	;# 
  1190     019D                     	;# 
  1191     019E                     	;# 
  1192     019F                     	;# 
  1193     020D                     	;# 
  1194     0210                     	;# 
  1195     0211                     	;# 
  1196     0212                     	;# 
  1197     0213                     	;# 
  1198     0214                     	;# 
  1199     0215                     	;# 
  1200     0215                     	;# 
  1201     0216                     	;# 
  1202     0217                     	;# 
  1203     0291                     	;# 
  1204     0291                     	;# 
  1205     0292                     	;# 
  1206     0293                     	;# 
  1207     0294                     	;# 
  1208     0295                     	;# 
  1209     0295                     	;# 
  1210     0296                     	;# 
  1211     0298                     	;# 
  1212     0298                     	;# 
  1213     0299                     	;# 
  1214     029A                     	;# 
  1215     029B                     	;# 
  1216     029C                     	;# 
  1217     029C                     	;# 
  1218     029D                     	;# 
  1219     029E                     	;# 
  1220     029F                     	;# 
  1221     0311                     	;# 
  1222     0311                     	;# 
  1223     0312                     	;# 
  1224     0313                     	;# 
  1225     0314                     	;# 
  1226     0315                     	;# 
  1227     0315                     	;# 
  1228     0316                     	;# 
  1229     0318                     	;# 
  1230     0318                     	;# 
  1231     0319                     	;# 
  1232     031A                     	;# 
  1233     031C                     	;# 
  1234     031C                     	;# 
  1235     031D                     	;# 
  1236     031E                     	;# 
  1237     0394                     	;# 
  1238     0395                     	;# 
  1239     0396                     	;# 
  1240     0415                     	;# 
  1241     0416                     	;# 
  1242     0417                     	;# 
  1243     041C                     	;# 
  1244     041D                     	;# 
  1245     041E                     	;# 
  1246     0791                     	;# 
  1247     0792                     	;# 
  1248     0793                     	;# 
  1249     0794                     	;# 
  1250     0795                     	;# 
  1251     0798                     	;# 
  1252     0799                     	;# 
  1253     07A0                     	;# 
  1254     07A1                     	;# 
  1255     07A3                     	;# 
  1256     07A4                     	;# 
  1257     07A6                     	;# 
  1258     07A7                     	;# 
  1259     07A9                     	;# 
  1260     07AA                     	;# 
  1261     0FE4                     	;# 
  1262     0FE5                     	;# 
  1263     0FE6                     	;# 
  1264     0FE7                     	;# 
  1265     0FE8                     	;# 
  1266     0FE9                     	;# 
  1267     0FEA                     	;# 
  1268     0FEB                     	;# 
  1269     0FED                     	;# 
  1270     0FEE                     	;# 
  1271     0FEF                     	;# 
  1272     0000                     	;# 
  1273     0001                     	;# 
  1274     0002                     	;# 
  1275     0003                     	;# 
  1276     0004                     	;# 
  1277     0005                     	;# 
  1278     0006                     	;# 
  1279     0007                     	;# 
  1280     0008                     	;# 
  1281     0009                     	;# 
  1282     000A                     	;# 
  1283     000B                     	;# 
  1284     000C                     	;# 
  1285     000D                     	;# 
  1286     000E                     	;# 
  1287     0010                     	;# 
  1288     0011                     	;# 
  1289     0012                     	;# 
  1290     0013                     	;# 
  1291     0015                     	;# 
  1292     0016                     	;# 
  1293     0016                     	;# 
  1294     0017                     	;# 
  1295     0018                     	;# 
  1296     0019                     	;# 
  1297     001A                     	;# 
  1298     001B                     	;# 
  1299     001C                     	;# 
  1300     001E                     	;# 
  1301     001F                     	;# 
  1302     008C                     	;# 
  1303     008D                     	;# 
  1304     008E                     	;# 
  1305     0090                     	;# 
  1306     0091                     	;# 
  1307     0092                     	;# 
  1308     0093                     	;# 
  1309     0095                     	;# 
  1310     0096                     	;# 
  1311     0097                     	;# 
  1312     0098                     	;# 
  1313     0099                     	;# 
  1314     009A                     	;# 
  1315     009B                     	;# 
  1316     009B                     	;# 
  1317     009C                     	;# 
  1318     009D                     	;# 
  1319     009E                     	;# 
  1320     010C                     	;# 
  1321     010D                     	;# 
  1322     010E                     	;# 
  1323     0110                     	;# 
  1324     0111                     	;# 
  1325     0112                     	;# 
  1326     0113                     	;# 
  1327     0114                     	;# 
  1328     0115                     	;# 
  1329     0116                     	;# 
  1330     0117                     	;# 
  1331     0118                     	;# 
  1332     0119                     	;# 
  1333     011A                     	;# 
  1334     011B                     	;# 
  1335     011D                     	;# 
  1336     018C                     	;# 
  1337     018D                     	;# 
  1338     0191                     	;# 
  1339     0191                     	;# 
  1340     0192                     	;# 
  1341     0193                     	;# 
  1342     0193                     	;# 
  1343     0193                     	;# 
  1344     0194                     	;# 
  1345     0195                     	;# 
  1346     0196                     	;# 
  1347     0199                     	;# 
  1348     019A                     	;# 
  1349     019B                     	;# 
  1350     019B                     	;# 
  1351     019B                     	;# 
  1352     019B                     	;# 
  1353     019C                     	;# 
  1354     019C                     	;# 
  1355     019D                     	;# 
  1356     019E                     	;# 
  1357     019F                     	;# 
  1358     020D                     	;# 
  1359     0210                     	;# 
  1360     0211                     	;# 
  1361     0212                     	;# 
  1362     0213                     	;# 
  1363     0214                     	;# 
  1364     0215                     	;# 
  1365     0215                     	;# 
  1366     0216                     	;# 
  1367     0217                     	;# 
  1368     0291                     	;# 
  1369     0291                     	;# 
  1370     0292                     	;# 
  1371     0293                     	;# 
  1372     0294                     	;# 
  1373     0295                     	;# 
  1374     0295                     	;# 
  1375     0296                     	;# 
  1376     0298                     	;# 
  1377     0298                     	;# 
  1378     0299                     	;# 
  1379     029A                     	;# 
  1380     029B                     	;# 
  1381     029C                     	;# 
  1382     029C                     	;# 
  1383     029D                     	;# 
  1384     029E                     	;# 
  1385     029F                     	;# 
  1386     0311                     	;# 
  1387     0311                     	;# 
  1388     0312                     	;# 
  1389     0313                     	;# 
  1390     0314                     	;# 
  1391     0315                     	;# 
  1392     0315                     	;# 
  1393     0316                     	;# 
  1394     0318                     	;# 
  1395     0318                     	;# 
  1396     0319                     	;# 
  1397     031A                     	;# 
  1398     031C                     	;# 
  1399     031C                     	;# 
  1400     031D                     	;# 
  1401     031E                     	;# 
  1402     0394                     	;# 
  1403     0395                     	;# 
  1404     0396                     	;# 
  1405     0415                     	;# 
  1406     0416                     	;# 
  1407     0417                     	;# 
  1408     041C                     	;# 
  1409     041D                     	;# 
  1410     041E                     	;# 
  1411     0791                     	;# 
  1412     0792                     	;# 
  1413     0793                     	;# 
  1414     0794                     	;# 
  1415     0795                     	;# 
  1416     0798                     	;# 
  1417     0799                     	;# 
  1418     07A0                     	;# 
  1419     07A1                     	;# 
  1420     07A3                     	;# 
  1421     07A4                     	;# 
  1422     07A6                     	;# 
  1423     07A7                     	;# 
  1424     07A9                     	;# 
  1425     07AA                     	;# 
  1426     0FE4                     	;# 
  1427     0FE5                     	;# 
  1428     0FE6                     	;# 
  1429     0FE7                     	;# 
  1430     0FE8                     	;# 
  1431     0FE9                     	;# 
  1432     0FEA                     	;# 
  1433     0FEB                     	;# 
  1434     0FED                     	;# 
  1435     0FEE                     	;# 
  1436     0FEF                     	;# 
  1437     0000                     	;# 
  1438     0001                     	;# 
  1439     0002                     	;# 
  1440     0003                     	;# 
  1441     0004                     	;# 
  1442     0005                     	;# 
  1443     0006                     	;# 
  1444     0007                     	;# 
  1445     0008                     	;# 
  1446     0009                     	;# 
  1447     000A                     	;# 
  1448     000B                     	;# 
  1449     000C                     	;# 
  1450     000D                     	;# 
  1451     000E                     	;# 
  1452     0010                     	;# 
  1453     0011                     	;# 
  1454     0012                     	;# 
  1455     0013                     	;# 
  1456     0015                     	;# 
  1457     0016                     	;# 
  1458     0016                     	;# 
  1459     0017                     	;# 
  1460     0018                     	;# 
  1461     0019                     	;# 
  1462     001A                     	;# 
  1463     001B                     	;# 
  1464     001C                     	;# 
  1465     001E                     	;# 
  1466     001F                     	;# 
  1467     008C                     	;# 
  1468     008D                     	;# 
  1469     008E                     	;# 
  1470     0090                     	;# 
  1471     0091                     	;# 
  1472     0092                     	;# 
  1473     0093                     	;# 
  1474     0095                     	;# 
  1475     0096                     	;# 
  1476     0097                     	;# 
  1477     0098                     	;# 
  1478     0099                     	;# 
  1479     009A                     	;# 
  1480     009B                     	;# 
  1481     009B                     	;# 
  1482     009C                     	;# 
  1483     009D                     	;# 
  1484     009E                     	;# 
  1485     010C                     	;# 
  1486     010D                     	;# 
  1487     010E                     	;# 
  1488     0110                     	;# 
  1489     0111                     	;# 
  1490     0112                     	;# 
  1491     0113                     	;# 
  1492     0114                     	;# 
  1493     0115                     	;# 
  1494     0116                     	;# 
  1495     0117                     	;# 
  1496     0118                     	;# 
  1497     0119                     	;# 
  1498     011A                     	;# 
  1499     011B                     	;# 
  1500     011D                     	;# 
  1501     018C                     	;# 
  1502     018D                     	;# 
  1503     0191                     	;# 
  1504     0191                     	;# 
  1505     0192                     	;# 
  1506     0193                     	;# 
  1507     0193                     	;# 
  1508     0193                     	;# 
  1509     0194                     	;# 
  1510     0195                     	;# 
  1511     0196                     	;# 
  1512     0199                     	;# 
  1513     019A                     	;# 
  1514     019B                     	;# 
  1515     019B                     	;# 
  1516     019B                     	;# 
  1517     019B                     	;# 
  1518     019C                     	;# 
  1519     019C                     	;# 
  1520     019D                     	;# 
  1521     019E                     	;# 
  1522     019F                     	;# 
  1523     020D                     	;# 
  1524     0210                     	;# 
  1525     0211                     	;# 
  1526     0212                     	;# 
  1527     0213                     	;# 
  1528     0214                     	;# 
  1529     0215                     	;# 
  1530     0215                     	;# 
  1531     0216                     	;# 
  1532     0217                     	;# 
  1533     0291                     	;# 
  1534     0291                     	;# 
  1535     0292                     	;# 
  1536     0293                     	;# 
  1537     0294                     	;# 
  1538     0295                     	;# 
  1539     0295                     	;# 
  1540     0296                     	;# 
  1541     0298                     	;# 
  1542     0298                     	;# 
  1543     0299                     	;# 
  1544     029A                     	;# 
  1545     029B                     	;# 
  1546     029C                     	;# 
  1547     029C                     	;# 
  1548     029D                     	;# 
  1549     029E                     	;# 
  1550     029F                     	;# 
  1551     0311                     	;# 
  1552     0311                     	;# 
  1553     0312                     	;# 
  1554     0313                     	;# 
  1555     0314                     	;# 
  1556     0315                     	;# 
  1557     0315                     	;# 
  1558     0316                     	;# 
  1559     0318                     	;# 
  1560     0318                     	;# 
  1561     0319                     	;# 
  1562     031A                     	;# 
  1563     031C                     	;# 
  1564     031C                     	;# 
  1565     031D                     	;# 
  1566     031E                     	;# 
  1567     0394                     	;# 
  1568     0395                     	;# 
  1569     0396                     	;# 
  1570     0415                     	;# 
  1571     0416                     	;# 
  1572     0417                     	;# 
  1573     041C                     	;# 
  1574     041D                     	;# 
  1575     041E                     	;# 
  1576     0791                     	;# 
  1577     0792                     	;# 
  1578     0793                     	;# 
  1579     0794                     	;# 
  1580     0795                     	;# 
  1581     0798                     	;# 
  1582     0799                     	;# 
  1583     07A0                     	;# 
  1584     07A1                     	;# 
  1585     07A3                     	;# 
  1586     07A4                     	;# 
  1587     07A6                     	;# 
  1588     07A7                     	;# 
  1589     07A9                     	;# 
  1590     07AA                     	;# 
  1591     0FE4                     	;# 
  1592     0FE5                     	;# 
  1593     0FE6                     	;# 
  1594     0FE7                     	;# 
  1595     0FE8                     	;# 
  1596     0FE9                     	;# 
  1597     0FEA                     	;# 
  1598     0FEB                     	;# 
  1599     0FED                     	;# 
  1600     0FEE                     	;# 
  1601     0FEF                     	;# 
  1602                           
  1603                           	psect	idataCOMMON
  1604     0727                     __pidataCOMMON:
  1605                           
  1606                           ;initializer for _tDelay_ms
  1607     0727  3421               	retlw	33
  1608     0728  3400               	retlw	0
  1609     000D                     _PORTBbits	set	13
  1610     000E                     _PORTCbits	set	14
  1611     0015                     _TMR0	set	21
  1612     000B                     _INTCONbits	set	11
  1613     001C                     _T2CONbits	set	28
  1614     001C                     _T2CON	set	28
  1615     0011                     _PIR1bits	set	17
  1616     001A                     _TMR2	set	26
  1617     001B                     _PR2	set	27
  1618     0095                     _OPTION_REG	set	149
  1619     0095                     _OPTION_REGbits	set	149
  1620     008E                     _TRISC	set	142
  1621     008D                     _TRISB	set	141
  1622     008C                     _TRISA	set	140
  1623     0090                     _TRISE	set	144
  1624     0097                     _WDTCON	set	151
  1625     0098                     _OSCTUNE	set	152
  1626     0099                     _OSCCON	set	153
  1627     04D6                     _PLLR	set	1238
  1628     010C                     _LATAbits	set	268
  1629     010E                     _LATCbits	set	270
  1630     011D                     _APFCON	set	285
  1631     010E                     _LATC	set	270
  1632     010D                     _LATB	set	269
  1633     010C                     _LATA	set	268
  1634     0110                     _LATE	set	272
  1635     0116                     _BORCON	set	278
  1636     018C                     _ANSELA	set	396
  1637     018D                     _ANSELB	set	397
  1638     020D                     _WPUB	set	525
  1639     0210                     _WPUE	set	528
  1640     029E                     _CCPTMRS0bits	set	670
  1641     0291                     _CCPR1L	set	657
  1642     0292                     _CCPR1H	set	658
  1643     0296                     _PSTR1CON	set	662
  1644     0294                     _PWM1CON	set	660
  1645     0295                     _ECCP1AS	set	661
  1646     0293                     _CCP1CON	set	659
  1647                           
  1648                           	psect	cinit
  1649     0015                     start_initialization:	
  1650                           ; #config settings
  1651                           
  1652     0015                     __initialization:
  1653                           
  1654                           ; Initialize objects allocated to COMMON
  1655     0015  3187  2727  3180   	fcall	__pidataCOMMON	;fetch initializer
  1656     0018  00FC               	movwf	__pdataCOMMON& (0+127)
  1657     0019  3187  2728  3180   	fcall	__pidataCOMMON+1	;fetch initializer
  1658     001C  00FD               	movwf	(__pdataCOMMON+1)& (0+127)
  1659                           
  1660                           ; Clear objects allocated to COMMON
  1661     001D  01F7               	clrf	__pbssCOMMON& (0+127)
  1662     001E  01F8               	clrf	(__pbssCOMMON+1)& (0+127)
  1663     001F  01F9               	clrf	(__pbssCOMMON+2)& (0+127)
  1664     0020  01FA               	clrf	(__pbssCOMMON+3)& (0+127)
  1665     0021  01FB               	clrf	(__pbssCOMMON+4)& (0+127)
  1666                           
  1667                           ; Clear objects allocated to BANK0
  1668     0022  3020               	movlw	low __pbssBANK0
  1669     0023  0084               	movwf	4
  1670     0024  3000               	movlw	high __pbssBANK0
  1671     0025  0085               	movwf	5
  1672     0026  3011               	movlw	17
  1673     0027  3186  26D1  3180   	fcall	clear_ram0
  1674     002A                     end_of_initialization:	
  1675                           ;End of C runtime variable initialization code
  1676                           
  1677     002A                     __end_of__initialization:
  1678     002A  107E               	bcf	int$flags,0	;clear compiler interrupt flag (level 1)
  1679     002B  0020               	movlb	0
  1680     002C  3185  2DC1         	ljmp	_main	;jump to C main() function
  1681                           
  1682                           	psect	bssCOMMON
  1683     0077                     __pbssCOMMON:
  1684     0077                     _turn_1ms_cnt:
  1685     0077                     	ds	2
  1686     0079                     _fWelcome_light:
  1687     0079                     	ds	1
  1688     007A                     _ORB:
  1689     007A                     	ds	1
  1690     007B                     _timer0ReloadVal:
  1691     007B                     	ds	1
  1692                           
  1693                           	psect	dataCOMMON
  1694     007C                     __pdataCOMMON:
  1695     007C                     _tDelay_ms:
  1696     007C                     	ds	2
  1697                           
  1698                           	psect	bssBANK0
  1699     0020                     __pbssBANK0:
  1700     0020                     _welcome_1ms_cnt:
  1701     0020                     	ds	4
  1702     0024                     _turn_off_cnt:
  1703     0024                     	ds	2
  1704     0026                     _TMR0_InterruptHandler:
  1705     0026                     	ds	2
  1706     0028                     debounce_IO@TRB:
  1707     0028                     	ds	1
  1708     0029                     _fturn_off_600ms:
  1709     0029                     	ds	1
  1710     002A                     _turn_fall_edge_cnt:
  1711     002A                     	ds	1
  1712     002B                     _eTurn_step:
  1713     002B                     	ds	1
  1714     002C                     _fturn_light_disable:
  1715     002C                     	ds	1
  1716     002D                     _fturn_state:
  1717     002D                     	ds	1
  1718     002E                     _fWelcome_light_disable:
  1719     002E                     	ds	1
  1720     002F                     _eWelcome_step:
  1721     002F                     	ds	1
  1722     0030                     _f1ms:
  1723     0030                     	ds	1
  1724                           
  1725                           	psect	clrtext
  1726     06D1                     clear_ram0:	
  1727                           ;	Called with FSR0 containing the base address, and
  1728                           ;	WREG with the size to clear
  1729                           
  1730     06D1  0064               	clrwdt	;clear the watchdog before getting into this loop
  1731     06D2                     clrloop0:
  1732     06D2  0180               	clrf	0	;clear RAM location pointed to by FSR
  1733     06D3  3101               	addfsr 0,1
  1734     06D4  0B89               	decfsz	9,f	;Have we reached the end of clearing yet?
  1735     06D5  2ED2               	goto	clrloop0	;have we reached the end yet?
  1736     06D6  3400               	retlw	0	;all done for this memory range, return
  1737                           
  1738                           	psect	cstackCOMMON
  1739     0070                     __pcstackCOMMON:
  1740     0070                     ?_PIN_MANAGER_Initialize:
  1741     0070                     ??_PIN_MANAGER_Initialize:	
  1742                           ; 1 bytes @ 0x0
  1743                           
  1744     0070                     ?_OSCILLATOR_Initialize:	
  1745                           ; 1 bytes @ 0x0
  1746                           
  1747     0070                     ??_OSCILLATOR_Initialize:	
  1748                           ; 1 bytes @ 0x0
  1749                           
  1750     0070                     ?_WDT_Initialize:	
  1751                           ; 1 bytes @ 0x0
  1752                           
  1753     0070                     ??_WDT_Initialize:	
  1754                           ; 1 bytes @ 0x0
  1755                           
  1756     0070                     ?_EPWM1_Initialize:	
  1757                           ; 1 bytes @ 0x0
  1758                           
  1759     0070                     ??_EPWM1_Initialize:	
  1760                           ; 1 bytes @ 0x0
  1761                           
  1762     0070                     ?_TMR2_Initialize:	
  1763                           ; 1 bytes @ 0x0
  1764                           
  1765     0070                     ??_TMR2_Initialize:	
  1766                           ; 1 bytes @ 0x0
  1767                           
  1768     0070                     ?_TMR0_Initialize:	
  1769                           ; 1 bytes @ 0x0
  1770                           
  1771     0070                     ??_TMR0_Initialize:	
  1772                           ; 1 bytes @ 0x0
  1773                           
  1774     0070                     ?_TMR0_ISR:	
  1775                           ; 1 bytes @ 0x0
  1776                           
  1777     0070                     ??_TMR0_ISR:	
  1778                           ; 1 bytes @ 0x0
  1779                           
  1780     0070                     ?_tmr0_10ms_even:	
  1781                           ; 1 bytes @ 0x0
  1782                           
  1783     0070                     ??_tmr0_10ms_even:	
  1784                           ; 1 bytes @ 0x0
  1785                           
  1786     0070                     ?_clear_no_call_warning_message:	
  1787                           ; 1 bytes @ 0x0
  1788                           
  1789     0070                     ?_LED_main:	
  1790                           ; 1 bytes @ 0x0
  1791                           
  1792     0070                     ?_PWM_all_off:	
  1793                           ; 1 bytes @ 0x0
  1794                           
  1795     0070                     ?_is_turn_signals:	
  1796                           ; 1 bytes @ 0x0
  1797                           
  1798     0070                     ??_is_turn_signals:	
  1799                           ; 1 bytes @ 0x0
  1800                           
  1801     0070                     ?_is_DRL:	
  1802                           ; 1 bytes @ 0x0
  1803                           
  1804     0070                     ??_is_DRL:	
  1805                           ; 1 bytes @ 0x0
  1806                           
  1807     0070                     ?_is_POS:	
  1808                           ; 1 bytes @ 0x0
  1809                           
  1810     0070                     ??_is_POS:	
  1811                           ; 1 bytes @ 0x0
  1812                           
  1813     0070                     ?_is_white:	
  1814                           ; 1 bytes @ 0x0
  1815                           
  1816     0070                     ??_is_white:	
  1817                           ; 1 bytes @ 0x0
  1818                           
  1819     0070                     ?_is_test:	
  1820                           ; 1 bytes @ 0x0
  1821                           
  1822     0070                     ??_is_test:	
  1823                           ; 1 bytes @ 0x0
  1824                           
  1825     0070                     ?_is_WELCOME:	
  1826                           ; 1 bytes @ 0x0
  1827                           
  1828     0070                     ??_is_WELCOME:	
  1829                           ; 1 bytes @ 0x0
  1830                           
  1831     0070                     ?_all_led_off:	
  1832                           ; 1 bytes @ 0x0
  1833                           
  1834     0070                     ?_SYSTEM_Initialize:	
  1835                           ; 1 bytes @ 0x0
  1836                           
  1837     0070                     ??_SYSTEM_Initialize:	
  1838                           ; 1 bytes @ 0x0
  1839                           
  1840     0070                     ?_PIN_MANAGER_IOC:	
  1841                           ; 1 bytes @ 0x0
  1842                           
  1843     0070                     ??_PIN_MANAGER_IOC:	
  1844                           ; 1 bytes @ 0x0
  1845                           
  1846     0070                     ?_EPWM1_LoadDutyValue:	
  1847                           ; 1 bytes @ 0x0
  1848                           
  1849     0070                     ?_TMR2_StartTimer:	
  1850                           ; 1 bytes @ 0x0
  1851                           
  1852     0070                     ??_TMR2_StartTimer:	
  1853                           ; 1 bytes @ 0x0
  1854                           
  1855     0070                     ?_TMR2_StopTimer:	
  1856                           ; 1 bytes @ 0x0
  1857                           
  1858     0070                     ??_TMR2_StopTimer:	
  1859                           ; 1 bytes @ 0x0
  1860                           
  1861     0070                     ?_TMR2_ReadTimer:	
  1862                           ; 1 bytes @ 0x0
  1863                           
  1864     0070                     ??_TMR2_ReadTimer:	
  1865                           ; 1 bytes @ 0x0
  1866                           
  1867     0070                     ?_TMR2_WriteTimer:	
  1868                           ; 1 bytes @ 0x0
  1869                           
  1870     0070                     ??_TMR2_WriteTimer:	
  1871                           ; 1 bytes @ 0x0
  1872                           
  1873     0070                     ?_TMR2_LoadPeriodRegister:	
  1874                           ; 1 bytes @ 0x0
  1875                           
  1876     0070                     ??_TMR2_LoadPeriodRegister:	
  1877                           ; 1 bytes @ 0x0
  1878                           
  1879     0070                     ?_TMR2_HasOverflowOccured:	
  1880                           ; 1 bytes @ 0x0
  1881                           
  1882     0070                     ??_TMR2_HasOverflowOccured:	
  1883                           ; 1 bytes @ 0x0
  1884                           
  1885     0070                     ?_INTERRUPT_InterruptManager:	
  1886                           ; 1 bytes @ 0x0
  1887                           
  1888     0070                     ??_INTERRUPT_InterruptManager:	
  1889                           ; 1 bytes @ 0x0
  1890                           
  1891     0070                     ?_TMR0_ReadTimer:	
  1892                           ; 1 bytes @ 0x0
  1893                           
  1894     0070                     ??_TMR0_ReadTimer:	
  1895                           ; 1 bytes @ 0x0
  1896                           
  1897     0070                     ?_TMR0_WriteTimer:	
  1898                           ; 1 bytes @ 0x0
  1899                           
  1900     0070                     ??_TMR0_WriteTimer:	
  1901                           ; 1 bytes @ 0x0
  1902                           
  1903     0070                     ?_TMR0_Reload:	
  1904                           ; 1 bytes @ 0x0
  1905                           
  1906     0070                     ??_TMR0_Reload:	
  1907                           ; 1 bytes @ 0x0
  1908                           
  1909     0070                     ?_TMR0_SetInterruptHandler:	
  1910                           ; 1 bytes @ 0x0
  1911                           
  1912     0070                     ?_debounce_IO:	
  1913                           ; 1 bytes @ 0x0
  1914                           
  1915     0070                     ??_debounce_IO:	
  1916                           ; 1 bytes @ 0x0
  1917                           
  1918     0070                     ?_turn_signals_state_update:	
  1919                           ; 1 bytes @ 0x0
  1920                           
  1921     0070                     ?_check_welcome_signal:	
  1922                           ; 1 bytes @ 0x0
  1923                           
  1924     0070                     ??_check_welcome_signal:	
  1925                           ; 1 bytes @ 0x0
  1926                           
  1927     0070                     ?_all_yellow_led_turn_on:	
  1928                           ; 1 bytes @ 0x0
  1929                           
  1930     0070                     ??_all_yellow_led_turn_on:	
  1931                           ; 1 bytes @ 0x0
  1932                           
  1933     0070                     ?_all_yellow_led_turn_off:	
  1934                           ; 1 bytes @ 0x0
  1935                           
  1936     0070                     ??_all_yellow_led_turn_off:	
  1937                           ; 1 bytes @ 0x0
  1938                           
  1939     0070                     ?_all_white_led_turn_on:	
  1940                           ; 1 bytes @ 0x0
  1941                           
  1942     0070                     ??_all_white_led_turn_on:	
  1943                           ; 1 bytes @ 0x0
  1944                           
  1945     0070                     ?_all_white_led_turn_off:	
  1946                           ; 1 bytes @ 0x0
  1947                           
  1948     0070                     ??_all_white_led_turn_off:	
  1949                           ; 1 bytes @ 0x0
  1950                           
  1951     0070                     ?_P2_on:	
  1952                           ; 1 bytes @ 0x0
  1953                           
  1954     0070                     ??_P2_on:	
  1955                           ; 1 bytes @ 0x0
  1956                           
  1957     0070                     ?_P2_off:	
  1958                           ; 1 bytes @ 0x0
  1959                           
  1960     0070                     ??_P2_off:	
  1961                           ; 1 bytes @ 0x0
  1962                           
  1963     0070                     ?_PWM_DRL:	
  1964                           ; 1 bytes @ 0x0
  1965                           
  1966     0070                     ?_PWM_POS:	
  1967                           ; 1 bytes @ 0x0
  1968                           
  1969     0070                     ?_PWM_turn_signals:	
  1970                           ; 1 bytes @ 0x0
  1971                           
  1972     0070                     ?_DRL_on:	
  1973                           ; 1 bytes @ 0x0
  1974                           
  1975     0070                     ?_POS_on:	
  1976                           ; 1 bytes @ 0x0
  1977                           
  1978     0070                     ?_delay_us:	
  1979                           ; 1 bytes @ 0x0
  1980                           
  1981     0070                     ??_delay_us:	
  1982                           ; 1 bytes @ 0x0
  1983                           
  1984     0070                     ?_delay_ms:	
  1985                           ; 1 bytes @ 0x0
  1986                           
  1987     0070                     ?_yellow_to_white:	
  1988                           ; 1 bytes @ 0x0
  1989                           
  1990     0070                     ?_white_fad_out:	
  1991                           ; 1 bytes @ 0x0
  1992                           
  1993     0070                     ?_yellow_seg1_forward:	
  1994                           ; 1 bytes @ 0x0
  1995                           
  1996     0070                     ?_yellow_seg2_forward:	
  1997                           ; 1 bytes @ 0x0
  1998                           
  1999     0070                     ?_yellow_seg3_forward:	
  2000                           ; 1 bytes @ 0x0
  2001                           
  2002     0070                     ?_yellow_seg4_forward:	
  2003                           ; 1 bytes @ 0x0
  2004                           
  2005     0070                     ?_yellow_seg5_forward:	
  2006                           ; 1 bytes @ 0x0
  2007                           
  2008     0070                     ?_yellow_seg6_forward:	
  2009                           ; 1 bytes @ 0x0
  2010                           
  2011     0070                     ?_yellow_seg7_forward:	
  2012                           ; 1 bytes @ 0x0
  2013                           
  2014     0070                     ?_yellow_seg1_backward:	
  2015                           ; 1 bytes @ 0x0
  2016                           
  2017     0070                     ?_yellow_seg2_backward:	
  2018                           ; 1 bytes @ 0x0
  2019                           
  2020     0070                     ?_yellow_seg3_backward:	
  2021                           ; 1 bytes @ 0x0
  2022                           
  2023     0070                     ?_yellow_seg4_backward:	
  2024                           ; 1 bytes @ 0x0
  2025                           
  2026     0070                     ?_yellow_seg5_backward:	
  2027                           ; 1 bytes @ 0x0
  2028                           
  2029     0070                     ?_yellow_seg6_backward:	
  2030                           ; 1 bytes @ 0x0
  2031                           
  2032     0070                     ?_yellow_seg7_backward:	
  2033                           ; 1 bytes @ 0x0
  2034                           
  2035     0070                     ?_check_test_mode:	
  2036                           ; 1 bytes @ 0x0
  2037                           
  2038     0070                     ??_check_test_mode:	
  2039                           ; 1 bytes @ 0x0
  2040                           
  2041     0070                     ?_check_POS_P2:	
  2042                           ; 1 bytes @ 0x0
  2043                           
  2044     0070                     ??_check_POS_P2:	
  2045                           ; 1 bytes @ 0x0
  2046                           
  2047     0070                     ?_turn_on_turn_signals:	
  2048                           ; 1 bytes @ 0x0
  2049                           
  2050     0070                     ?_check_welcome_light:	
  2051                           ; 1 bytes @ 0x0
  2052                           
  2053     0070                     ?_main:	
  2054                           ; 1 bytes @ 0x0
  2055                           
  2056     0070                     TMR2_WriteTimer@timerVal:	
  2057                           ; 2 bytes @ 0x0
  2058                           
  2059     0070                     TMR2_LoadPeriodRegister@periodVal:	
  2060                           ; 1 bytes @ 0x0
  2061                           
  2062     0070                     TMR2_HasOverflowOccured@status:	
  2063                           ; 1 bytes @ 0x0
  2064                           
  2065     0070                     TMR0_WriteTimer@timerVal:	
  2066                           ; 1 bytes @ 0x0
  2067                           
  2068     0070                     debounce_IO@temp:	
  2069                           ; 1 bytes @ 0x0
  2070                           
  2071     0070                     EPWM1_LoadDutyValue@dutyValue:	
  2072                           ; 1 bytes @ 0x0
  2073                           
  2074     0070                     TMR0_SetInterruptHandler@InterruptHandler:	
  2075                           ; 2 bytes @ 0x0
  2076                           
  2077     0070                     delay_ms@ms:	
  2078                           ; 2 bytes @ 0x0
  2079                           
  2080                           
  2081                           ; 2 bytes @ 0x0
  2082     0070                     	ds	1
  2083     0071                     delay_us@us:
  2084                           
  2085                           ; 1 bytes @ 0x1
  2086     0071                     	ds	1
  2087     0072                     ??_EPWM1_LoadDutyValue:
  2088     0072                     ??_TMR0_SetInterruptHandler:	
  2089                           ; 1 bytes @ 0x2
  2090                           
  2091     0072                     ??_delay_ms:	
  2092                           ; 1 bytes @ 0x2
  2093                           
  2094     0072                     ??_yellow_to_white:	
  2095                           ; 1 bytes @ 0x2
  2096                           
  2097     0072                     ??_white_fad_out:	
  2098                           ; 1 bytes @ 0x2
  2099                           
  2100     0072                     ??_yellow_seg1_forward:	
  2101                           ; 1 bytes @ 0x2
  2102                           
  2103     0072                     ??_yellow_seg2_forward:	
  2104                           ; 1 bytes @ 0x2
  2105                           
  2106     0072                     ??_yellow_seg3_forward:	
  2107                           ; 1 bytes @ 0x2
  2108                           
  2109     0072                     ??_yellow_seg4_forward:	
  2110                           ; 1 bytes @ 0x2
  2111                           
  2112     0072                     ??_yellow_seg5_forward:	
  2113                           ; 1 bytes @ 0x2
  2114                           
  2115     0072                     ??_yellow_seg6_forward:	
  2116                           ; 1 bytes @ 0x2
  2117                           
  2118     0072                     ??_yellow_seg7_forward:	
  2119                           ; 1 bytes @ 0x2
  2120                           
  2121     0072                     ??_yellow_seg1_backward:	
  2122                           ; 1 bytes @ 0x2
  2123                           
  2124     0072                     ??_yellow_seg2_backward:	
  2125                           ; 1 bytes @ 0x2
  2126                           
  2127     0072                     ??_yellow_seg3_backward:	
  2128                           ; 1 bytes @ 0x2
  2129                           
  2130     0072                     ??_yellow_seg4_backward:	
  2131                           ; 1 bytes @ 0x2
  2132                           
  2133     0072                     ??_yellow_seg5_backward:	
  2134                           ; 1 bytes @ 0x2
  2135                           
  2136     0072                     ??_yellow_seg6_backward:	
  2137                           ; 1 bytes @ 0x2
  2138                           
  2139     0072                     ??_yellow_seg7_backward:	
  2140                           ; 1 bytes @ 0x2
  2141                           
  2142                           
  2143                           ; 1 bytes @ 0x2
  2144     0072                     	ds	1
  2145     0073                     yellow_to_white@ii:
  2146     0073                     white_fad_out@ii:	
  2147                           ; 1 bytes @ 0x3
  2148                           
  2149     0073                     yellow_seg1_forward@ii:	
  2150                           ; 1 bytes @ 0x3
  2151                           
  2152     0073                     yellow_seg2_forward@ii:	
  2153                           ; 1 bytes @ 0x3
  2154                           
  2155     0073                     yellow_seg3_forward@ii:	
  2156                           ; 1 bytes @ 0x3
  2157                           
  2158     0073                     yellow_seg4_forward@ii:	
  2159                           ; 1 bytes @ 0x3
  2160                           
  2161     0073                     yellow_seg5_forward@ii:	
  2162                           ; 1 bytes @ 0x3
  2163                           
  2164     0073                     yellow_seg6_forward@ii:	
  2165                           ; 1 bytes @ 0x3
  2166                           
  2167     0073                     yellow_seg7_forward@ii:	
  2168                           ; 1 bytes @ 0x3
  2169                           
  2170     0073                     yellow_seg1_backward@ii:	
  2171                           ; 1 bytes @ 0x3
  2172                           
  2173     0073                     yellow_seg2_backward@ii:	
  2174                           ; 1 bytes @ 0x3
  2175                           
  2176     0073                     yellow_seg3_backward@ii:	
  2177                           ; 1 bytes @ 0x3
  2178                           
  2179     0073                     yellow_seg4_backward@ii:	
  2180                           ; 1 bytes @ 0x3
  2181                           
  2182     0073                     yellow_seg5_backward@ii:	
  2183                           ; 1 bytes @ 0x3
  2184                           
  2185     0073                     yellow_seg6_backward@ii:	
  2186                           ; 1 bytes @ 0x3
  2187                           
  2188     0073                     yellow_seg7_backward@ii:	
  2189                           ; 1 bytes @ 0x3
  2190                           
  2191                           
  2192                           ; 1 bytes @ 0x3
  2193     0073                     	ds	1
  2194     0074                     ??_clear_no_call_warning_message:
  2195     0074                     ??_PWM_all_off:	
  2196                           ; 1 bytes @ 0x4
  2197                           
  2198     0074                     ??_all_led_off:	
  2199                           ; 1 bytes @ 0x4
  2200                           
  2201     0074                     ??_turn_signals_state_update:	
  2202                           ; 1 bytes @ 0x4
  2203                           
  2204     0074                     ??_PWM_DRL:	
  2205                           ; 1 bytes @ 0x4
  2206                           
  2207     0074                     ??_PWM_POS:	
  2208                           ; 1 bytes @ 0x4
  2209                           
  2210     0074                     ??_PWM_turn_signals:	
  2211                           ; 1 bytes @ 0x4
  2212                           
  2213     0074                     ??_DRL_on:	
  2214                           ; 1 bytes @ 0x4
  2215                           
  2216     0074                     ??_POS_on:	
  2217                           ; 1 bytes @ 0x4
  2218                           
  2219     0074                     ??_turn_on_turn_signals:	
  2220                           ; 1 bytes @ 0x4
  2221                           
  2222     0074                     yellow_to_white@pwm_idx:	
  2223                           ; 1 bytes @ 0x4
  2224                           
  2225     0074                     white_fad_out@pwm_idx:	
  2226                           ; 1 bytes @ 0x4
  2227                           
  2228     0074                     yellow_seg1_forward@pwm_idx:	
  2229                           ; 1 bytes @ 0x4
  2230                           
  2231     0074                     yellow_seg2_forward@pwm_idx:	
  2232                           ; 1 bytes @ 0x4
  2233                           
  2234     0074                     yellow_seg3_forward@pwm_idx:	
  2235                           ; 1 bytes @ 0x4
  2236                           
  2237     0074                     yellow_seg4_forward@pwm_idx:	
  2238                           ; 1 bytes @ 0x4
  2239                           
  2240     0074                     yellow_seg5_forward@pwm_idx:	
  2241                           ; 1 bytes @ 0x4
  2242                           
  2243     0074                     yellow_seg6_forward@pwm_idx:	
  2244                           ; 1 bytes @ 0x4
  2245                           
  2246     0074                     yellow_seg7_forward@pwm_idx:	
  2247                           ; 1 bytes @ 0x4
  2248                           
  2249     0074                     yellow_seg1_backward@pwm_idx:	
  2250                           ; 1 bytes @ 0x4
  2251                           
  2252     0074                     yellow_seg2_backward@pwm_idx:	
  2253                           ; 1 bytes @ 0x4
  2254                           
  2255     0074                     yellow_seg3_backward@pwm_idx:	
  2256                           ; 1 bytes @ 0x4
  2257                           
  2258     0074                     yellow_seg4_backward@pwm_idx:	
  2259                           ; 1 bytes @ 0x4
  2260                           
  2261     0074                     yellow_seg5_backward@pwm_idx:	
  2262                           ; 1 bytes @ 0x4
  2263                           
  2264     0074                     yellow_seg6_backward@pwm_idx:	
  2265                           ; 1 bytes @ 0x4
  2266                           
  2267     0074                     yellow_seg7_backward@pwm_idx:	
  2268                           ; 1 bytes @ 0x4
  2269                           
  2270                           
  2271                           ; 1 bytes @ 0x4
  2272     0074                     	ds	1
  2273     0075                     ??_check_welcome_light:
  2274                           
  2275                           ; 1 bytes @ 0x5
  2276     0075                     	ds	2
  2277     0077                     ??_LED_main:
  2278     0077                     ??_main:	
  2279                           ; 1 bytes @ 0x7
  2280                           
  2281                           
  2282                           	psect	maintext
  2283     05C1                     __pmaintext:	
  2284                           ; 1 bytes @ 0x7
  2285 ;;
  2286 ;;Main: autosize = 0, tempsize = 0, incstack = 0, save=0
  2287 ;;
  2288 ;; *************** function _main *****************
  2289 ;; Defined at:
  2290 ;;		line 78 in file "main.c"
  2291 ;; Parameters:    Size  Location     Type
  2292 ;;		None
  2293 ;; Auto vars:     Size  Location     Type
  2294 ;;		None
  2295 ;; Return value:  Size  Location     Type
  2296 ;;                  2  178[None  ] int 
  2297 ;; Registers used:
  2298 ;;		wreg, fsr0l, fsr0h, status,2, status,0, pclath, cstack
  2299 ;; Tracked objects:
  2300 ;;		On entry : B1F/0
  2301 ;;		On exit  : 0/0
  2302 ;;		Unchanged: 0/0
  2303 ;; Data sizes:     COMMON   BANK0   BANK1   BANK2   BANK3   BANK4   BANK5   BANK6
  2304 ;;      Params:         0       0       0       0       0       0       0       0
  2305 ;;      Locals:         0       0       0       0       0       0       0       0
  2306 ;;      Temps:          0       0       0       0       0       0       0       0
  2307 ;;      Totals:         0       0       0       0       0       0       0       0
  2308 ;;Total ram usage:        0 bytes
  2309 ;; Hardware stack levels required when called: 8
  2310 ;; This function calls:
  2311 ;;		_LED_main
  2312 ;;		_SYSTEM_Initialize
  2313 ;;		_TMR0_SetInterruptHandler
  2314 ;;		_clear_no_call_warning_message
  2315 ;; This function is called by:
  2316 ;;		Startup code after reset
  2317 ;; This function uses a non-reentrant model
  2318 ;;
  2319                           
  2320     05C1                     _main:	
  2321                           ;psect for function _main
  2322                           
  2323     05C1                     l3136:	
  2324                           ;incstack = 0
  2325                           ; Regs used in _main: [wreg-fsr0h+status,2+status,0+pclath+cstack]
  2326                           
  2327                           
  2328                           ;main.c: 80:   SYSTEM_Initialize();
  2329     05C1  3185  25EF  3185   	fcall	_SYSTEM_Initialize
  2330                           
  2331                           ;main.c: 81:   TMR0_SetInterruptHandler(tmr0_10ms_even);
  2332     05C4  3034               	movlw	low _tmr0_10ms_even
  2333     05C5  00F0               	movwf	TMR0_SetInterruptHandler@InterruptHandler
  2334     05C6  3006               	movlw	high _tmr0_10ms_even
  2335     05C7  00F1               	movwf	TMR0_SetInterruptHandler@InterruptHandler+1
  2336     05C8  3186  26D7  3185   	fcall	_TMR0_SetInterruptHandler
  2337     05CB                     l3138:
  2338                           
  2339                           ;main.c: 84:   clear_no_call_warning_message();
  2340     05CB  3187  2729  3185   	fcall	_clear_no_call_warning_message
  2341     05CE                     l3140:
  2342                           
  2343                           ;main.c: 85:   LATCbits.LATC2 = 1;
  2344     05CE  0022               	movlb	2	; select bank2
  2345     05CF  150E               	bsf	14,2	;volatile
  2346     05D0                     l3142:
  2347                           
  2348                           ;main.c: 88:   (INTCONbits.GIE = 1);
  2349     05D0  178B               	bsf	11,7	;volatile
  2350     05D1                     l3144:
  2351                           
  2352                           ;main.c: 90:   (INTCONbits.PEIE = 1);
  2353     05D1  170B               	bsf	11,6	;volatile
  2354     05D2                     l3146:
  2355                           
  2356                           ;main.c: 94:     LED_main();
  2357     05D2  3181  2195  3185   	fcall	_LED_main
  2358     05D5  2DD2               	goto	l3146
  2359     05D6  3180  2813         	ljmp	start
  2360     05D8                     __end_of_main:
  2361                           
  2362                           	psect	text1
  2363     0729                     __ptext1:	
  2364 ;; *************** function _clear_no_call_warning_message *****************
  2365 ;; Defined at:
  2366 ;;		line 32 in file "LED.c"
  2367 ;; Parameters:    Size  Location     Type
  2368 ;;		None
  2369 ;; Auto vars:     Size  Location     Type
  2370 ;;  i               1    0        unsigned char 
  2371 ;; Return value:  Size  Location     Type
  2372 ;;                  1    wreg      void 
  2373 ;; Registers used:
  2374 ;;		status,2
  2375 ;; Tracked objects:
  2376 ;;		On entry : 0/0
  2377 ;;		On exit  : 0/0
  2378 ;;		Unchanged: 0/0
  2379 ;; Data sizes:     COMMON   BANK0   BANK1   BANK2   BANK3   BANK4   BANK5   BANK6
  2380 ;;      Params:         0       0       0       0       0       0       0       0
  2381 ;;      Locals:         0       0       0       0       0       0       0       0
  2382 ;;      Temps:          0       0       0       0       0       0       0       0
  2383 ;;      Totals:         0       0       0       0       0       0       0       0
  2384 ;;Total ram usage:        0 bytes
  2385 ;; Hardware stack levels used: 1
  2386 ;; Hardware stack levels required when called: 5
  2387 ;; This function calls:
  2388 ;;		_PIN_MANAGER_IOC
  2389 ;;		_PWM_all_off
  2390 ;;		_TMR0_ReadTimer
  2391 ;;		_TMR0_Reload
  2392 ;;		_TMR0_WriteTimer
  2393 ;;		_TMR2_HasOverflowOccured
  2394 ;;		_TMR2_LoadPeriodRegister
  2395 ;;		_TMR2_ReadTimer
  2396 ;;		_TMR2_StartTimer
  2397 ;;		_TMR2_StopTimer
  2398 ;;		_TMR2_WriteTimer
  2399 ;; This function is called by:
  2400 ;;		_main
  2401 ;; This function uses a non-reentrant model
  2402 ;;
  2403                           
  2404     0729                     _clear_no_call_warning_message:	
  2405                           ;psect for function _clear_no_call_warning_message
  2406                           
  2407     0729                     l3052:	
  2408                           ;incstack = 0
  2409                           ; Regs used in _clear_no_call_warning_message: [status,2]
  2410                           
  2411     0729                     l276:
  2412     0729  0008               	return
  2413     072A                     __end_of_clear_no_call_warning_message:
  2414                           
  2415                           	psect	text2
  2416     06DD                     __ptext2:	
  2417 ;; *************** function _TMR2_WriteTimer *****************
  2418 ;; Defined at:
  2419 ;;		line 100 in file "mcc_generated_files/tmr2.c"
  2420 ;; Parameters:    Size  Location     Type
  2421 ;;  timerVal        1    wreg     unsigned char 
  2422 ;; Auto vars:     Size  Location     Type
  2423 ;;  timerVal        1    0[COMMON] unsigned char 
  2424 ;; Return value:  Size  Location     Type
  2425 ;;                  1    wreg      void 
  2426 ;; Registers used:
  2427 ;;		wreg
  2428 ;; Tracked objects:
  2429 ;;		On entry : 0/0
  2430 ;;		On exit  : 0/0
  2431 ;;		Unchanged: 0/0
  2432 ;; Data sizes:     COMMON   BANK0   BANK1   BANK2   BANK3   BANK4   BANK5   BANK6
  2433 ;;      Params:         0       0       0       0       0       0       0       0
  2434 ;;      Locals:         1       0       0       0       0       0       0       0
  2435 ;;      Temps:          0       0       0       0       0       0       0       0
  2436 ;;      Totals:         1       0       0       0       0       0       0       0
  2437 ;;Total ram usage:        1 bytes
  2438 ;; Hardware stack levels used: 1
  2439 ;; Hardware stack levels required when called: 3
  2440 ;; This function calls:
  2441 ;;		Nothing
  2442 ;; This function is called by:
  2443 ;;		_clear_no_call_warning_message
  2444 ;; This function uses a non-reentrant model
  2445 ;;
  2446                           
  2447     06DD                     _TMR2_WriteTimer:	
  2448                           ;psect for function _TMR2_WriteTimer
  2449                           
  2450                           
  2451                           ;incstack = 0
  2452                           ; Regs used in _TMR2_WriteTimer: [wreg]
  2453                           ;TMR2_WriteTimer@timerVal stored from wreg
  2454     06DD  00F0               	movwf	TMR2_WriteTimer@timerVal
  2455     06DE                     l1756:
  2456                           
  2457                           ;mcc_generated_files/tmr2.c: 100: void TMR2_WriteTimer(uint8_t timerVal);mcc_generated_f
      +                          iles/tmr2.c: 101: {;mcc_generated_files/tmr2.c: 103:     TMR2 = timerVal;
  2458     06DE  0870               	movf	TMR2_WriteTimer@timerVal,w
  2459     06DF  0020               	movlb	0	; select bank0
  2460     06E0  009A               	movwf	26	;volatile
  2461     06E1                     l113:
  2462     06E1  0008               	return
  2463     06E2                     __end_of_TMR2_WriteTimer:
  2464                           
  2465                           	psect	text3
  2466     070F                     __ptext3:	
  2467 ;; *************** function _TMR2_StopTimer *****************
  2468 ;; Defined at:
  2469 ;;		line 85 in file "mcc_generated_files/tmr2.c"
  2470 ;; Parameters:    Size  Location     Type
  2471 ;;		None
  2472 ;; Auto vars:     Size  Location     Type
  2473 ;;		None
  2474 ;; Return value:  Size  Location     Type
  2475 ;;                  1    wreg      void 
  2476 ;; Registers used:
  2477 ;;		None
  2478 ;; Tracked objects:
  2479 ;;		On entry : 0/0
  2480 ;;		On exit  : 0/0
  2481 ;;		Unchanged: 0/0
  2482 ;; Data sizes:     COMMON   BANK0   BANK1   BANK2   BANK3   BANK4   BANK5   BANK6
  2483 ;;      Params:         0       0       0       0       0       0       0       0
  2484 ;;      Locals:         0       0       0       0       0       0       0       0
  2485 ;;      Temps:          0       0       0       0       0       0       0       0
  2486 ;;      Totals:         0       0       0       0       0       0       0       0
  2487 ;;Total ram usage:        0 bytes
  2488 ;; Hardware stack levels used: 1
  2489 ;; Hardware stack levels required when called: 3
  2490 ;; This function calls:
  2491 ;;		Nothing
  2492 ;; This function is called by:
  2493 ;;		_clear_no_call_warning_message
  2494 ;; This function uses a non-reentrant model
  2495 ;;
  2496                           
  2497     070F                     _TMR2_StopTimer:	
  2498                           ;psect for function _TMR2_StopTimer
  2499                           
  2500     070F                     l1750:	
  2501                           ;incstack = 0
  2502                           ; Regs used in _TMR2_StopTimer: []
  2503                           
  2504                           
  2505                           ;mcc_generated_files/tmr2.c: 88:     T2CONbits.TMR2ON = 0;
  2506     070F  0020               	movlb	0	; select bank0
  2507     0710  111C               	bcf	28,2	;volatile
  2508     0711                     l107:
  2509     0711  0008               	return
  2510     0712                     __end_of_TMR2_StopTimer:
  2511                           
  2512                           	psect	text4
  2513     0712                     __ptext4:	
  2514 ;; *************** function _TMR2_StartTimer *****************
  2515 ;; Defined at:
  2516 ;;		line 79 in file "mcc_generated_files/tmr2.c"
  2517 ;; Parameters:    Size  Location     Type
  2518 ;;		None
  2519 ;; Auto vars:     Size  Location     Type
  2520 ;;		None
  2521 ;; Return value:  Size  Location     Type
  2522 ;;                  1    wreg      void 
  2523 ;; Registers used:
  2524 ;;		None
  2525 ;; Tracked objects:
  2526 ;;		On entry : 0/0
  2527 ;;		On exit  : 0/0
  2528 ;;		Unchanged: 0/0
  2529 ;; Data sizes:     COMMON   BANK0   BANK1   BANK2   BANK3   BANK4   BANK5   BANK6
  2530 ;;      Params:         0       0       0       0       0       0       0       0
  2531 ;;      Locals:         0       0       0       0       0       0       0       0
  2532 ;;      Temps:          0       0       0       0       0       0       0       0
  2533 ;;      Totals:         0       0       0       0       0       0       0       0
  2534 ;;Total ram usage:        0 bytes
  2535 ;; Hardware stack levels used: 1
  2536 ;; Hardware stack levels required when called: 3
  2537 ;; This function calls:
  2538 ;;		Nothing
  2539 ;; This function is called by:
  2540 ;;		_clear_no_call_warning_message
  2541 ;; This function uses a non-reentrant model
  2542 ;;
  2543                           
  2544     0712                     _TMR2_StartTimer:	
  2545                           ;psect for function _TMR2_StartTimer
  2546                           
  2547     0712                     l1748:	
  2548                           ;incstack = 0
  2549                           ; Regs used in _TMR2_StartTimer: []
  2550                           
  2551                           
  2552                           ;mcc_generated_files/tmr2.c: 82:     T2CONbits.TMR2ON = 1;
  2553     0712  0020               	movlb	0	; select bank0
  2554     0713  151C               	bsf	28,2	;volatile
  2555     0714                     l104:
  2556     0714  0008               	return
  2557     0715                     __end_of_TMR2_StartTimer:
  2558                           
  2559                           	psect	text5
  2560     0715                     __ptext5:	
  2561 ;; *************** function _TMR2_ReadTimer *****************
  2562 ;; Defined at:
  2563 ;;		line 91 in file "mcc_generated_files/tmr2.c"
  2564 ;; Parameters:    Size  Location     Type
  2565 ;;		None
  2566 ;; Auto vars:     Size  Location     Type
  2567 ;;  readVal         1    0        unsigned char 
  2568 ;; Return value:  Size  Location     Type
  2569 ;;                  1    wreg      unsigned char 
  2570 ;; Registers used:
  2571 ;;		wreg
  2572 ;; Tracked objects:
  2573 ;;		On entry : 0/0
  2574 ;;		On exit  : 0/0
  2575 ;;		Unchanged: 0/0
  2576 ;; Data sizes:     COMMON   BANK0   BANK1   BANK2   BANK3   BANK4   BANK5   BANK6
  2577 ;;      Params:         0       0       0       0       0       0       0       0
  2578 ;;      Locals:         0       0       0       0       0       0       0       0
  2579 ;;      Temps:          0       0       0       0       0       0       0       0
  2580 ;;      Totals:         0       0       0       0       0       0       0       0
  2581 ;;Total ram usage:        0 bytes
  2582 ;; Hardware stack levels used: 1
  2583 ;; Hardware stack levels required when called: 3
  2584 ;; This function calls:
  2585 ;;		Nothing
  2586 ;; This function is called by:
  2587 ;;		_clear_no_call_warning_message
  2588 ;; This function uses a non-reentrant model
  2589 ;;
  2590                           
  2591     0715                     _TMR2_ReadTimer:	
  2592                           ;psect for function _TMR2_ReadTimer
  2593                           
  2594     0715                     l1752:	
  2595                           ;incstack = 0
  2596                           ; Regs used in _TMR2_ReadTimer: [wreg]
  2597                           
  2598     0715  0020               	movlb	0	; select bank0
  2599     0716  081A               	movf	26,w	;volatile
  2600     0717                     l110:
  2601     0717  0008               	return
  2602     0718                     __end_of_TMR2_ReadTimer:
  2603                           
  2604                           	psect	text6
  2605     06E2                     __ptext6:	
  2606 ;; *************** function _TMR2_LoadPeriodRegister *****************
  2607 ;; Defined at:
  2608 ;;		line 106 in file "mcc_generated_files/tmr2.c"
  2609 ;; Parameters:    Size  Location     Type
  2610 ;;  periodVal       1    wreg     unsigned char 
  2611 ;; Auto vars:     Size  Location     Type
  2612 ;;  periodVal       1    0[COMMON] unsigned char 
  2613 ;; Return value:  Size  Location     Type
  2614 ;;                  1    wreg      void 
  2615 ;; Registers used:
  2616 ;;		wreg
  2617 ;; Tracked objects:
  2618 ;;		On entry : 0/0
  2619 ;;		On exit  : 0/0
  2620 ;;		Unchanged: 0/0
  2621 ;; Data sizes:     COMMON   BANK0   BANK1   BANK2   BANK3   BANK4   BANK5   BANK6
  2622 ;;      Params:         0       0       0       0       0       0       0       0
  2623 ;;      Locals:         1       0       0       0       0       0       0       0
  2624 ;;      Temps:          0       0       0       0       0       0       0       0
  2625 ;;      Totals:         1       0       0       0       0       0       0       0
  2626 ;;Total ram usage:        1 bytes
  2627 ;; Hardware stack levels used: 1
  2628 ;; Hardware stack levels required when called: 3
  2629 ;; This function calls:
  2630 ;;		Nothing
  2631 ;; This function is called by:
  2632 ;;		_clear_no_call_warning_message
  2633 ;; This function uses a non-reentrant model
  2634 ;;
  2635                           
  2636     06E2                     _TMR2_LoadPeriodRegister:	
  2637                           ;psect for function _TMR2_LoadPeriodRegister
  2638                           
  2639                           
  2640                           ;incstack = 0
  2641                           ; Regs used in _TMR2_LoadPeriodRegister: [wreg]
  2642                           ;TMR2_LoadPeriodRegister@periodVal stored from wreg
  2643     06E2  00F0               	movwf	TMR2_LoadPeriodRegister@periodVal
  2644     06E3                     l1758:
  2645                           
  2646                           ;mcc_generated_files/tmr2.c: 106: void TMR2_LoadPeriodRegister(uint8_t periodVal);mcc_ge
      +                          nerated_files/tmr2.c: 107: {;mcc_generated_files/tmr2.c: 108:    PR2 = periodVal;
  2647     06E3  0870               	movf	TMR2_LoadPeriodRegister@periodVal,w
  2648     06E4  0020               	movlb	0	; select bank0
  2649     06E5  009B               	movwf	27	;volatile
  2650     06E6                     l116:
  2651     06E6  0008               	return
  2652     06E7                     __end_of_TMR2_LoadPeriodRegister:
  2653                           
  2654                           	psect	text7
  2655     066D                     __ptext7:	
  2656 ;; *************** function _TMR2_HasOverflowOccured *****************
  2657 ;; Defined at:
  2658 ;;		line 111 in file "mcc_generated_files/tmr2.c"
  2659 ;; Parameters:    Size  Location     Type
  2660 ;;		None
  2661 ;; Auto vars:     Size  Location     Type
  2662 ;;  status          1    0[COMMON] _Bool 
  2663 ;; Return value:  Size  Location     Type
  2664 ;;                  1    wreg      _Bool 
  2665 ;; Registers used:
  2666 ;;		wreg, status,2, status,0
  2667 ;; Tracked objects:
  2668 ;;		On entry : 0/0
  2669 ;;		On exit  : 0/0
  2670 ;;		Unchanged: 0/0
  2671 ;; Data sizes:     COMMON   BANK0   BANK1   BANK2   BANK3   BANK4   BANK5   BANK6
  2672 ;;      Params:         0       0       0       0       0       0       0       0
  2673 ;;      Locals:         1       0       0       0       0       0       0       0
  2674 ;;      Temps:          0       0       0       0       0       0       0       0
  2675 ;;      Totals:         1       0       0       0       0       0       0       0
  2676 ;;Total ram usage:        1 bytes
  2677 ;; Hardware stack levels used: 1
  2678 ;; Hardware stack levels required when called: 3
  2679 ;; This function calls:
  2680 ;;		Nothing
  2681 ;; This function is called by:
  2682 ;;		_clear_no_call_warning_message
  2683 ;; This function uses a non-reentrant model
  2684 ;;
  2685                           
  2686     066D                     _TMR2_HasOverflowOccured:	
  2687                           ;psect for function _TMR2_HasOverflowOccured
  2688                           
  2689     066D                     l1760:	
  2690                           ;incstack = 0
  2691                           ; Regs used in _TMR2_HasOverflowOccured: [wreg+status,2+status,0]
  2692                           
  2693                           
  2694                           ;mcc_generated_files/tmr2.c: 114:     _Bool status = PIR1bits.TMR2IF;
  2695     066D  3000               	movlw	0
  2696     066E  0020               	movlb	0	; select bank0
  2697     066F  1891               	btfsc	17,1	;volatile
  2698     0670  3001               	movlw	1
  2699     0671  00F0               	movwf	TMR2_HasOverflowOccured@status
  2700     0672                     l1762:
  2701                           
  2702                           ;mcc_generated_files/tmr2.c: 115:     if(status)
  2703     0672  0870               	movf	TMR2_HasOverflowOccured@status,w
  2704     0673  1903               	btfsc	3,2
  2705     0674  2E76               	goto	u541
  2706     0675  2E77               	goto	u540
  2707     0676                     u541:
  2708     0676  2E78               	goto	l120
  2709     0677                     u540:
  2710     0677                     l1764:
  2711                           
  2712                           ;mcc_generated_files/tmr2.c: 116:     {;mcc_generated_files/tmr2.c: 118:         PIR1bit
      +                          s.TMR2IF = 0;
  2713     0677  1091               	bcf	17,1	;volatile
  2714     0678                     l120:
  2715     0678  0008               	return
  2716     0679                     __end_of_TMR2_HasOverflowOccured:
  2717                           
  2718                           	psect	text8
  2719     06E7                     __ptext8:	
  2720 ;; *************** function _TMR0_WriteTimer *****************
  2721 ;; Defined at:
  2722 ;;		line 96 in file "mcc_generated_files/tmr0.c"
  2723 ;; Parameters:    Size  Location     Type
  2724 ;;  timerVal        1    wreg     unsigned char 
  2725 ;; Auto vars:     Size  Location     Type
  2726 ;;  timerVal        1    0[COMMON] unsigned char 
  2727 ;; Return value:  Size  Location     Type
  2728 ;;                  1    wreg      void 
  2729 ;; Registers used:
  2730 ;;		wreg
  2731 ;; Tracked objects:
  2732 ;;		On entry : 0/0
  2733 ;;		On exit  : 0/0
  2734 ;;		Unchanged: 0/0
  2735 ;; Data sizes:     COMMON   BANK0   BANK1   BANK2   BANK3   BANK4   BANK5   BANK6
  2736 ;;      Params:         0       0       0       0       0       0       0       0
  2737 ;;      Locals:         1       0       0       0       0       0       0       0
  2738 ;;      Temps:          0       0       0       0       0       0       0       0
  2739 ;;      Totals:         1       0       0       0       0       0       0       0
  2740 ;;Total ram usage:        1 bytes
  2741 ;; Hardware stack levels used: 1
  2742 ;; Hardware stack levels required when called: 3
  2743 ;; This function calls:
  2744 ;;		Nothing
  2745 ;; This function is called by:
  2746 ;;		_clear_no_call_warning_message
  2747 ;; This function uses a non-reentrant model
  2748 ;;
  2749                           
  2750     06E7                     _TMR0_WriteTimer:	
  2751                           ;psect for function _TMR0_WriteTimer
  2752                           
  2753                           
  2754                           ;incstack = 0
  2755                           ; Regs used in _TMR0_WriteTimer: [wreg]
  2756                           ;TMR0_WriteTimer@timerVal stored from wreg
  2757     06E7  00F0               	movwf	TMR0_WriteTimer@timerVal
  2758     06E8                     l1770:
  2759                           
  2760                           ;mcc_generated_files/tmr0.c: 96: void TMR0_WriteTimer(uint8_t timerVal);mcc_generated_fi
      +                          les/tmr0.c: 97: {;mcc_generated_files/tmr0.c: 99:     TMR0 = timerVal;
  2761     06E8  0870               	movf	TMR0_WriteTimer@timerVal,w
  2762     06E9  0020               	movlb	0	; select bank0
  2763     06EA  0095               	movwf	21	;volatile
  2764     06EB                     l150:
  2765     06EB  0008               	return
  2766     06EC                     __end_of_TMR0_WriteTimer:
  2767                           
  2768                           	psect	text9
  2769     06FB                     __ptext9:	
  2770 ;; *************** function _TMR0_Reload *****************
  2771 ;; Defined at:
  2772 ;;		line 102 in file "mcc_generated_files/tmr0.c"
  2773 ;; Parameters:    Size  Location     Type
  2774 ;;		None
  2775 ;; Auto vars:     Size  Location     Type
  2776 ;;		None
  2777 ;; Return value:  Size  Location     Type
  2778 ;;                  1    wreg      void 
  2779 ;; Registers used:
  2780 ;;		wreg
  2781 ;; Tracked objects:
  2782 ;;		On entry : 0/0
  2783 ;;		On exit  : 0/0
  2784 ;;		Unchanged: 0/0
  2785 ;; Data sizes:     COMMON   BANK0   BANK1   BANK2   BANK3   BANK4   BANK5   BANK6
  2786 ;;      Params:         0       0       0       0       0       0       0       0
  2787 ;;      Locals:         0       0       0       0       0       0       0       0
  2788 ;;      Temps:          0       0       0       0       0       0       0       0
  2789 ;;      Totals:         0       0       0       0       0       0       0       0
  2790 ;;Total ram usage:        0 bytes
  2791 ;; Hardware stack levels used: 1
  2792 ;; Hardware stack levels required when called: 3
  2793 ;; This function calls:
  2794 ;;		Nothing
  2795 ;; This function is called by:
  2796 ;;		_clear_no_call_warning_message
  2797 ;; This function uses a non-reentrant model
  2798 ;;
  2799                           
  2800     06FB                     _TMR0_Reload:	
  2801                           ;psect for function _TMR0_Reload
  2802                           
  2803     06FB                     l1772:	
  2804                           ;incstack = 0
  2805                           ; Regs used in _TMR0_Reload: [wreg]
  2806                           
  2807                           
  2808                           ;mcc_generated_files/tmr0.c: 105:     TMR0 = timer0ReloadVal;
  2809     06FB  087B               	movf	_timer0ReloadVal,w	;volatile
  2810     06FC  0020               	movlb	0	; select bank0
  2811     06FD  0095               	movwf	21	;volatile
  2812     06FE                     l153:
  2813     06FE  0008               	return
  2814     06FF                     __end_of_TMR0_Reload:
  2815                           
  2816                           	psect	text10
  2817     0718                     __ptext10:	
  2818 ;; *************** function _TMR0_ReadTimer *****************
  2819 ;; Defined at:
  2820 ;;		line 87 in file "mcc_generated_files/tmr0.c"
  2821 ;; Parameters:    Size  Location     Type
  2822 ;;		None
  2823 ;; Auto vars:     Size  Location     Type
  2824 ;;  readVal         1    0        unsigned char 
  2825 ;; Return value:  Size  Location     Type
  2826 ;;                  1    wreg      unsigned char 
  2827 ;; Registers used:
  2828 ;;		wreg
  2829 ;; Tracked objects:
  2830 ;;		On entry : 0/0
  2831 ;;		On exit  : 0/0
  2832 ;;		Unchanged: 0/0
  2833 ;; Data sizes:     COMMON   BANK0   BANK1   BANK2   BANK3   BANK4   BANK5   BANK6
  2834 ;;      Params:         0       0       0       0       0       0       0       0
  2835 ;;      Locals:         0       0       0       0       0       0       0       0
  2836 ;;      Temps:          0       0       0       0       0       0       0       0
  2837 ;;      Totals:         0       0       0       0       0       0       0       0
  2838 ;;Total ram usage:        0 bytes
  2839 ;; Hardware stack levels used: 1
  2840 ;; Hardware stack levels required when called: 3
  2841 ;; This function calls:
  2842 ;;		Nothing
  2843 ;; This function is called by:
  2844 ;;		_clear_no_call_warning_message
  2845 ;; This function uses a non-reentrant model
  2846 ;;
  2847                           
  2848     0718                     _TMR0_ReadTimer:	
  2849                           ;psect for function _TMR0_ReadTimer
  2850                           
  2851     0718                     l1766:	
  2852                           ;incstack = 0
  2853                           ; Regs used in _TMR0_ReadTimer: [wreg]
  2854                           
  2855     0718  0020               	movlb	0	; select bank0
  2856     0719  0815               	movf	21,w	;volatile
  2857     071A                     l147:
  2858     071A  0008               	return
  2859     071B                     __end_of_TMR0_ReadTimer:
  2860                           
  2861                           	psect	text11
  2862     06C3                     __ptext11:	
  2863 ;; *************** function _PWM_all_off *****************
  2864 ;; Defined at:
  2865 ;;		line 147 in file "LED.c"
  2866 ;; Parameters:    Size  Location     Type
  2867 ;;		None
  2868 ;; Auto vars:     Size  Location     Type
  2869 ;;		None
  2870 ;; Return value:  Size  Location     Type
  2871 ;;                  1    wreg      void 
  2872 ;; Registers used:
  2873 ;;		wreg, status,2, status,0, pclath, cstack
  2874 ;; Tracked objects:
  2875 ;;		On entry : 0/0
  2876 ;;		On exit  : 0/0
  2877 ;;		Unchanged: 0/0
  2878 ;; Data sizes:     COMMON   BANK0   BANK1   BANK2   BANK3   BANK4   BANK5   BANK6
  2879 ;;      Params:         0       0       0       0       0       0       0       0
  2880 ;;      Locals:         0       0       0       0       0       0       0       0
  2881 ;;      Temps:          0       0       0       0       0       0       0       0
  2882 ;;      Totals:         0       0       0       0       0       0       0       0
  2883 ;;Total ram usage:        0 bytes
  2884 ;; Hardware stack levels used: 1
  2885 ;; Hardware stack levels required when called: 4
  2886 ;; This function calls:
  2887 ;;		_EPWM1_LoadDutyValue
  2888 ;; This function is called by:
  2889 ;;		_clear_no_call_warning_message
  2890 ;; This function uses a non-reentrant model
  2891 ;;
  2892                           
  2893     06C3                     _PWM_all_off:	
  2894                           ;psect for function _PWM_all_off
  2895                           
  2896     06C3                     l2736:	
  2897                           ;incstack = 0
  2898                           ; Regs used in _PWM_all_off: [wreg+status,2+status,0+pclath+cstack]
  2899                           
  2900     06C3  3000               	movlw	0
  2901     06C4  00F0               	movwf	EPWM1_LoadDutyValue@dutyValue
  2902     06C5  00F1               	movwf	EPWM1_LoadDutyValue@dutyValue+1
  2903     06C6  3185  25D8  3186   	fcall	_EPWM1_LoadDutyValue
  2904     06C9                     l338:
  2905     06C9  0008               	return
  2906     06CA                     __end_of_PWM_all_off:
  2907                           
  2908                           	psect	text12
  2909     072A                     __ptext12:	
  2910 ;; *************** function _PIN_MANAGER_IOC *****************
  2911 ;; Defined at:
  2912 ;;		line 99 in file "mcc_generated_files/pin_manager.c"
  2913 ;; Parameters:    Size  Location     Type
  2914 ;;		None
  2915 ;; Auto vars:     Size  Location     Type
  2916 ;;		None
  2917 ;; Return value:  Size  Location     Type
  2918 ;;                  1    wreg      void 
  2919 ;; Registers used:
  2920 ;;		None
  2921 ;; Tracked objects:
  2922 ;;		On entry : 0/0
  2923 ;;		On exit  : 0/0
  2924 ;;		Unchanged: 0/0
  2925 ;; Data sizes:     COMMON   BANK0   BANK1   BANK2   BANK3   BANK4   BANK5   BANK6
  2926 ;;      Params:         0       0       0       0       0       0       0       0
  2927 ;;      Locals:         0       0       0       0       0       0       0       0
  2928 ;;      Temps:          0       0       0       0       0       0       0       0
  2929 ;;      Totals:         0       0       0       0       0       0       0       0
  2930 ;;Total ram usage:        0 bytes
  2931 ;; Hardware stack levels used: 1
  2932 ;; Hardware stack levels required when called: 3
  2933 ;; This function calls:
  2934 ;;		Nothing
  2935 ;; This function is called by:
  2936 ;;		_clear_no_call_warning_message
  2937 ;; This function uses a non-reentrant model
  2938 ;;
  2939                           
  2940     072A                     _PIN_MANAGER_IOC:	
  2941                           ;psect for function _PIN_MANAGER_IOC
  2942                           
  2943     072A                     l68:	
  2944                           ;incstack = 0
  2945                           ; Regs used in _PIN_MANAGER_IOC: []
  2946                           
  2947     072A  0008               	return
  2948     072B                     __end_of_PIN_MANAGER_IOC:
  2949                           
  2950                           	psect	text13
  2951     06D7                     __ptext13:	
  2952 ;; *************** function _TMR0_SetInterruptHandler *****************
  2953 ;; Defined at:
  2954 ;;		line 125 in file "mcc_generated_files/tmr0.c"
  2955 ;; Parameters:    Size  Location     Type
  2956 ;;  InterruptHan    2    0[COMMON] PTR FTN()void 
  2957 ;;		 -> tmr0_10ms_even(1), 
  2958 ;; Auto vars:     Size  Location     Type
  2959 ;;		None
  2960 ;; Return value:  Size  Location     Type
  2961 ;;                  1    wreg      void 
  2962 ;; Registers used:
  2963 ;;		wreg
  2964 ;; Tracked objects:
  2965 ;;		On entry : 0/0
  2966 ;;		On exit  : 0/0
  2967 ;;		Unchanged: 0/0
  2968 ;; Data sizes:     COMMON   BANK0   BANK1   BANK2   BANK3   BANK4   BANK5   BANK6
  2969 ;;      Params:         2       0       0       0       0       0       0       0
  2970 ;;      Locals:         0       0       0       0       0       0       0       0
  2971 ;;      Temps:          0       0       0       0       0       0       0       0
  2972 ;;      Totals:         2       0       0       0       0       0       0       0
  2973 ;;Total ram usage:        2 bytes
  2974 ;; Hardware stack levels used: 1
  2975 ;; Hardware stack levels required when called: 3
  2976 ;; This function calls:
  2977 ;;		Nothing
  2978 ;; This function is called by:
  2979 ;;		_main
  2980 ;; This function uses a non-reentrant model
  2981 ;;
  2982                           
  2983     06D7                     _TMR0_SetInterruptHandler:	
  2984                           ;psect for function _TMR0_SetInterruptHandler
  2985                           
  2986     06D7                     l3050:	
  2987                           ;incstack = 0
  2988                           ; Regs used in _TMR0_SetInterruptHandler: [wreg]
  2989                           
  2990                           
  2991                           ;mcc_generated_files/tmr0.c: 126:     TMR0_InterruptHandler = InterruptHandler;
  2992     06D7  0871               	movf	TMR0_SetInterruptHandler@InterruptHandler+1,w
  2993     06D8  0020               	movlb	0	; select bank0
  2994     06D9  00A7               	movwf	_TMR0_InterruptHandler+1
  2995     06DA  0870               	movf	TMR0_SetInterruptHandler@InterruptHandler,w
  2996     06DB  00A6               	movwf	_TMR0_InterruptHandler
  2997     06DC                     l160:
  2998     06DC  0008               	return
  2999     06DD                     __end_of_TMR0_SetInterruptHandler:
  3000                           
  3001                           	psect	text14
  3002     05EF                     __ptext14:	
  3003 ;; *************** function _SYSTEM_Initialize *****************
  3004 ;; Defined at:
  3005 ;;		line 50 in file "mcc_generated_files/mcc.c"
  3006 ;; Parameters:    Size  Location     Type
  3007 ;;		None
  3008 ;; Auto vars:     Size  Location     Type
  3009 ;;		None
  3010 ;; Return value:  Size  Location     Type
  3011 ;;                  1    wreg      void 
  3012 ;; Registers used:
  3013 ;;		wreg, status,2, status,0, pclath, cstack
  3014 ;; Tracked objects:
  3015 ;;		On entry : 0/0
  3016 ;;		On exit  : 0/0
  3017 ;;		Unchanged: 0/0
  3018 ;; Data sizes:     COMMON   BANK0   BANK1   BANK2   BANK3   BANK4   BANK5   BANK6
  3019 ;;      Params:         0       0       0       0       0       0       0       0
  3020 ;;      Locals:         0       0       0       0       0       0       0       0
  3021 ;;      Temps:          0       0       0       0       0       0       0       0
  3022 ;;      Totals:         0       0       0       0       0       0       0       0
  3023 ;;Total ram usage:        0 bytes
  3024 ;; Hardware stack levels used: 1
  3025 ;; Hardware stack levels required when called: 4
  3026 ;; This function calls:
  3027 ;;		_EPWM1_Initialize
  3028 ;;		_OSCILLATOR_Initialize
  3029 ;;		_PIN_MANAGER_Initialize
  3030 ;;		_TMR0_Initialize
  3031 ;;		_TMR2_Initialize
  3032 ;;		_WDT_Initialize
  3033 ;; This function is called by:
  3034 ;;		_main
  3035 ;; This function uses a non-reentrant model
  3036 ;;
  3037                           
  3038     05EF                     _SYSTEM_Initialize:	
  3039                           ;psect for function _SYSTEM_Initialize
  3040                           
  3041     05EF                     l2080:	
  3042                           ;incstack = 0
  3043                           ; Regs used in _SYSTEM_Initialize: [wreg+status,2+status,0+pclath+cstack]
  3044                           
  3045                           
  3046                           ;mcc_generated_files/mcc.c: 53:     PIN_MANAGER_Initialize();
  3047     05EF  3185  25A9  3185   	fcall	_PIN_MANAGER_Initialize
  3048                           
  3049                           ;mcc_generated_files/mcc.c: 54:     OSCILLATOR_Initialize();
  3050     05F2  3186  2679  3185   	fcall	_OSCILLATOR_Initialize
  3051                           
  3052                           ;mcc_generated_files/mcc.c: 55:     WDT_Initialize();
  3053     05F5  3186  26FF  3185   	fcall	_WDT_Initialize
  3054                           
  3055                           ;mcc_generated_files/mcc.c: 56:     EPWM1_Initialize();
  3056     05F8  3186  2644  3185   	fcall	_EPWM1_Initialize
  3057                           
  3058                           ;mcc_generated_files/mcc.c: 57:     TMR2_Initialize();
  3059     05FB  3186  269B  3185   	fcall	_TMR2_Initialize
  3060                           
  3061                           ;mcc_generated_files/mcc.c: 58:     TMR0_Initialize();
  3062     05FE  3186  2660  3185   	fcall	_TMR0_Initialize
  3063     0601                     l25:
  3064     0601  0008               	return
  3065     0602                     __end_of_SYSTEM_Initialize:
  3066                           
  3067                           	psect	text15
  3068     06FF                     __ptext15:	
  3069 ;; *************** function _WDT_Initialize *****************
  3070 ;; Defined at:
  3071 ;;		line 75 in file "mcc_generated_files/mcc.c"
  3072 ;; Parameters:    Size  Location     Type
  3073 ;;		None
  3074 ;; Auto vars:     Size  Location     Type
  3075 ;;		None
  3076 ;; Return value:  Size  Location     Type
  3077 ;;                  1    wreg      void 
  3078 ;; Registers used:
  3079 ;;		wreg
  3080 ;; Tracked objects:
  3081 ;;		On entry : 0/0
  3082 ;;		On exit  : 0/0
  3083 ;;		Unchanged: 0/0
  3084 ;; Data sizes:     COMMON   BANK0   BANK1   BANK2   BANK3   BANK4   BANK5   BANK6
  3085 ;;      Params:         0       0       0       0       0       0       0       0
  3086 ;;      Locals:         0       0       0       0       0       0       0       0
  3087 ;;      Temps:          0       0       0       0       0       0       0       0
  3088 ;;      Totals:         0       0       0       0       0       0       0       0
  3089 ;;Total ram usage:        0 bytes
  3090 ;; Hardware stack levels used: 1
  3091 ;; Hardware stack levels required when called: 3
  3092 ;; This function calls:
  3093 ;;		Nothing
  3094 ;; This function is called by:
  3095 ;;		_SYSTEM_Initialize
  3096 ;; This function uses a non-reentrant model
  3097 ;;
  3098                           
  3099     06FF                     _WDT_Initialize:	
  3100                           ;psect for function _WDT_Initialize
  3101                           
  3102     06FF                     l1716:	
  3103                           ;incstack = 0
  3104                           ; Regs used in _WDT_Initialize: [wreg]
  3105                           
  3106                           
  3107                           ;mcc_generated_files/mcc.c: 78:     WDTCON = 0x16;
  3108     06FF  3016               	movlw	22
  3109     0700  0021               	movlb	1	; select bank1
  3110     0701  0097               	movwf	23	;volatile
  3111     0702                     l34:
  3112     0702  0008               	return
  3113     0703                     __end_of_WDT_Initialize:
  3114                           
  3115                           	psect	text16
  3116     069B                     __ptext16:	
  3117 ;; *************** function _TMR2_Initialize *****************
  3118 ;; Defined at:
  3119 ;;		line 62 in file "mcc_generated_files/tmr2.c"
  3120 ;; Parameters:    Size  Location     Type
  3121 ;;		None
  3122 ;; Auto vars:     Size  Location     Type
  3123 ;;		None
  3124 ;; Return value:  Size  Location     Type
  3125 ;;                  1    wreg      void 
  3126 ;; Registers used:
  3127 ;;		wreg, status,2
  3128 ;; Tracked objects:
  3129 ;;		On entry : 0/0
  3130 ;;		On exit  : 0/0
  3131 ;;		Unchanged: 0/0
  3132 ;; Data sizes:     COMMON   BANK0   BANK1   BANK2   BANK3   BANK4   BANK5   BANK6
  3133 ;;      Params:         0       0       0       0       0       0       0       0
  3134 ;;      Locals:         0       0       0       0       0       0       0       0
  3135 ;;      Temps:          0       0       0       0       0       0       0       0
  3136 ;;      Totals:         0       0       0       0       0       0       0       0
  3137 ;;Total ram usage:        0 bytes
  3138 ;; Hardware stack levels used: 1
  3139 ;; Hardware stack levels required when called: 3
  3140 ;; This function calls:
  3141 ;;		Nothing
  3142 ;; This function is called by:
  3143 ;;		_SYSTEM_Initialize
  3144 ;; This function uses a non-reentrant model
  3145 ;;
  3146                           
  3147     069B                     _TMR2_Initialize:	
  3148                           ;psect for function _TMR2_Initialize
  3149                           
  3150     069B                     l1730:	
  3151                           ;incstack = 0
  3152                           ; Regs used in _TMR2_Initialize: [wreg+status,2]
  3153                           
  3154                           
  3155                           ;mcc_generated_files/tmr2.c: 67:     PR2 = 0xF9;
  3156     069B  30F9               	movlw	249
  3157     069C  0020               	movlb	0	; select bank0
  3158     069D  009B               	movwf	27	;volatile
  3159     069E                     l1732:
  3160                           
  3161                           ;mcc_generated_files/tmr2.c: 70:     TMR2 = 0x00;
  3162     069E  019A               	clrf	26	;volatile
  3163     069F                     l1734:
  3164                           
  3165                           ;mcc_generated_files/tmr2.c: 73:     PIR1bits.TMR2IF = 0;
  3166     069F  1091               	bcf	17,1	;volatile
  3167     06A0                     l1736:
  3168                           
  3169                           ;mcc_generated_files/tmr2.c: 76:     T2CON = 0x07;
  3170     06A0  3007               	movlw	7
  3171     06A1  009C               	movwf	28	;volatile
  3172     06A2                     l101:
  3173     06A2  0008               	return
  3174     06A3                     __end_of_TMR2_Initialize:
  3175                           
  3176                           	psect	text17
  3177     0660                     __ptext17:	
  3178 ;; *************** function _TMR0_Initialize *****************
  3179 ;; Defined at:
  3180 ;;		line 64 in file "mcc_generated_files/tmr0.c"
  3181 ;; Parameters:    Size  Location     Type
  3182 ;;		None
  3183 ;; Auto vars:     Size  Location     Type
  3184 ;;		None
  3185 ;; Return value:  Size  Location     Type
  3186 ;;                  1    wreg      void 
  3187 ;; Registers used:
  3188 ;;		wreg, status,2
  3189 ;; Tracked objects:
  3190 ;;		On entry : 0/0
  3191 ;;		On exit  : 0/0
  3192 ;;		Unchanged: 0/0
  3193 ;; Data sizes:     COMMON   BANK0   BANK1   BANK2   BANK3   BANK4   BANK5   BANK6
  3194 ;;      Params:         0       0       0       0       0       0       0       0
  3195 ;;      Locals:         0       0       0       0       0       0       0       0
  3196 ;;      Temps:          0       0       0       0       0       0       0       0
  3197 ;;      Totals:         0       0       0       0       0       0       0       0
  3198 ;;Total ram usage:        0 bytes
  3199 ;; Hardware stack levels used: 1
  3200 ;; Hardware stack levels required when called: 3
  3201 ;; This function calls:
  3202 ;;		Nothing
  3203 ;; This function is called by:
  3204 ;;		_SYSTEM_Initialize
  3205 ;; This function uses a non-reentrant model
  3206 ;;
  3207                           
  3208     0660                     _TMR0_Initialize:	
  3209                           ;psect for function _TMR0_Initialize
  3210                           
  3211     0660                     l1738:	
  3212                           ;incstack = 0
  3213                           ; Regs used in _TMR0_Initialize: [wreg+status,2]
  3214                           
  3215                           
  3216                           ;mcc_generated_files/tmr0.c: 69:     OPTION_REG = (uint8_t)((OPTION_REG & 0xC0) | (0xD4 
      +                          & 0x3F));
  3217     0660  0021               	movlb	1	; select bank1
  3218     0661  0815               	movf	21,w	;volatile
  3219     0662  39C0               	andlw	192
  3220     0663  3814               	iorlw	20
  3221     0664  0095               	movwf	21	;volatile
  3222     0665                     l1740:
  3223                           
  3224                           ;mcc_generated_files/tmr0.c: 72:     TMR0 = 0x06;
  3225     0665  3006               	movlw	6
  3226     0666  0020               	movlb	0	; select bank0
  3227     0667  0095               	movwf	21	;volatile
  3228     0668                     l1742:
  3229                           
  3230                           ;mcc_generated_files/tmr0.c: 75:     timer0ReloadVal= 6;
  3231     0668  3006               	movlw	6
  3232     0669  00FB               	movwf	_timer0ReloadVal	;volatile
  3233     066A                     l1744:
  3234                           
  3235                           ;mcc_generated_files/tmr0.c: 78:     INTCONbits.TMR0IF = 0;
  3236     066A  110B               	bcf	11,2	;volatile
  3237     066B                     l1746:
  3238                           
  3239                           ;mcc_generated_files/tmr0.c: 81:     INTCONbits.TMR0IE = 1;
  3240     066B  168B               	bsf	11,5	;volatile
  3241     066C                     l144:
  3242     066C  0008               	return
  3243     066D                     __end_of_TMR0_Initialize:
  3244                           
  3245                           	psect	text18
  3246     05A9                     __ptext18:	
  3247 ;; *************** function _PIN_MANAGER_Initialize *****************
  3248 ;; Defined at:
  3249 ;;		line 55 in file "mcc_generated_files/pin_manager.c"
  3250 ;; Parameters:    Size  Location     Type
  3251 ;;		None
  3252 ;; Auto vars:     Size  Location     Type
  3253 ;;		None
  3254 ;; Return value:  Size  Location     Type
  3255 ;;                  1    wreg      void 
  3256 ;; Registers used:
  3257 ;;		wreg, status,2
  3258 ;; Tracked objects:
  3259 ;;		On entry : 0/0
  3260 ;;		On exit  : 0/0
  3261 ;;		Unchanged: 0/0
  3262 ;; Data sizes:     COMMON   BANK0   BANK1   BANK2   BANK3   BANK4   BANK5   BANK6
  3263 ;;      Params:         0       0       0       0       0       0       0       0
  3264 ;;      Locals:         0       0       0       0       0       0       0       0
  3265 ;;      Temps:          0       0       0       0       0       0       0       0
  3266 ;;      Totals:         0       0       0       0       0       0       0       0
  3267 ;;Total ram usage:        0 bytes
  3268 ;; Hardware stack levels used: 1
  3269 ;; Hardware stack levels required when called: 3
  3270 ;; This function calls:
  3271 ;;		Nothing
  3272 ;; This function is called by:
  3273 ;;		_SYSTEM_Initialize
  3274 ;; This function uses a non-reentrant model
  3275 ;;
  3276                           
  3277     05A9                     _PIN_MANAGER_Initialize:	
  3278                           ;psect for function _PIN_MANAGER_Initialize
  3279                           
  3280     05A9                     l1692:	
  3281                           ;incstack = 0
  3282                           ; Regs used in _PIN_MANAGER_Initialize: [wreg+status,2]
  3283                           
  3284                           
  3285                           ;mcc_generated_files/pin_manager.c: 60:     LATE = 0x00;
  3286     05A9  0022               	movlb	2	; select bank2
  3287     05AA  0190               	clrf	16	;volatile
  3288                           
  3289                           ;mcc_generated_files/pin_manager.c: 61:     LATA = 0x00;
  3290     05AB  018C               	clrf	12	;volatile
  3291                           
  3292                           ;mcc_generated_files/pin_manager.c: 62:     LATB = 0x00;
  3293     05AC  018D               	clrf	13	;volatile
  3294                           
  3295                           ;mcc_generated_files/pin_manager.c: 63:     LATC = 0x00;
  3296     05AD  018E               	clrf	14	;volatile
  3297     05AE                     l1694:
  3298                           
  3299                           ;mcc_generated_files/pin_manager.c: 68:     TRISE = 0x08;
  3300     05AE  3008               	movlw	8
  3301     05AF  0021               	movlb	1	; select bank1
  3302     05B0  0090               	movwf	16	;volatile
  3303     05B1                     l1696:
  3304                           
  3305                           ;mcc_generated_files/pin_manager.c: 69:     TRISA = 0x00;
  3306     05B1  018C               	clrf	12	;volatile
  3307                           
  3308                           ;mcc_generated_files/pin_manager.c: 70:     TRISB = 0xFF;
  3309     05B2  30FF               	movlw	255
  3310     05B3  008D               	movwf	13	;volatile
  3311                           
  3312                           ;mcc_generated_files/pin_manager.c: 71:     TRISC = 0xE0;
  3313     05B4  30E0               	movlw	224
  3314     05B5  008E               	movwf	14	;volatile
  3315     05B6                     l1698:
  3316                           
  3317                           ;mcc_generated_files/pin_manager.c: 76:     ANSELB = 0x00;
  3318     05B6  0023               	movlb	3	; select bank3
  3319     05B7  018D               	clrf	13	;volatile
  3320     05B8                     l1700:
  3321                           
  3322                           ;mcc_generated_files/pin_manager.c: 77:     ANSELA = 0x00;
  3323     05B8  018C               	clrf	12	;volatile
  3324     05B9                     l1702:
  3325                           
  3326                           ;mcc_generated_files/pin_manager.c: 82:     WPUE = 0x00;
  3327     05B9  0024               	movlb	4	; select bank4
  3328     05BA  0190               	clrf	16	;volatile
  3329     05BB                     l1704:
  3330                           
  3331                           ;mcc_generated_files/pin_manager.c: 83:     WPUB = 0x00;
  3332     05BB  018D               	clrf	13	;volatile
  3333     05BC                     l1706:
  3334                           
  3335                           ;mcc_generated_files/pin_manager.c: 84:     OPTION_REGbits.nWPUEN = 1;
  3336     05BC  0021               	movlb	1	; select bank1
  3337     05BD  1795               	bsf	21,7	;volatile
  3338     05BE                     l1708:
  3339                           
  3340                           ;mcc_generated_files/pin_manager.c: 90:     APFCON = 0x00;
  3341     05BE  0022               	movlb	2	; select bank2
  3342     05BF  019D               	clrf	29	;volatile
  3343     05C0                     l65:
  3344     05C0  0008               	return
  3345     05C1                     __end_of_PIN_MANAGER_Initialize:
  3346                           
  3347                           	psect	text19
  3348     0679                     __ptext19:	
  3349 ;; *************** function _OSCILLATOR_Initialize *****************
  3350 ;; Defined at:
  3351 ;;		line 61 in file "mcc_generated_files/mcc.c"
  3352 ;; Parameters:    Size  Location     Type
  3353 ;;		None
  3354 ;; Auto vars:     Size  Location     Type
  3355 ;;		None
  3356 ;; Return value:  Size  Location     Type
  3357 ;;                  1    wreg      void 
  3358 ;; Registers used:
  3359 ;;		wreg, status,2
  3360 ;; Tracked objects:
  3361 ;;		On entry : 0/0
  3362 ;;		On exit  : 0/0
  3363 ;;		Unchanged: 0/0
  3364 ;; Data sizes:     COMMON   BANK0   BANK1   BANK2   BANK3   BANK4   BANK5   BANK6
  3365 ;;      Params:         0       0       0       0       0       0       0       0
  3366 ;;      Locals:         0       0       0       0       0       0       0       0
  3367 ;;      Temps:          0       0       0       0       0       0       0       0
  3368 ;;      Totals:         0       0       0       0       0       0       0       0
  3369 ;;Total ram usage:        0 bytes
  3370 ;; Hardware stack levels used: 1
  3371 ;; Hardware stack levels required when called: 3
  3372 ;; This function calls:
  3373 ;;		Nothing
  3374 ;; This function is called by:
  3375 ;;		_SYSTEM_Initialize
  3376 ;; This function uses a non-reentrant model
  3377 ;;
  3378                           
  3379     0679                     _OSCILLATOR_Initialize:	
  3380                           ;psect for function _OSCILLATOR_Initialize
  3381                           
  3382     0679                     l1710:	
  3383                           ;incstack = 0
  3384                           ; Regs used in _OSCILLATOR_Initialize: [wreg+status,2]
  3385                           
  3386                           
  3387                           ;mcc_generated_files/mcc.c: 64:     OSCCON = 0x70;
  3388     0679  3070               	movlw	112
  3389     067A  0021               	movlb	1	; select bank1
  3390     067B  0099               	movwf	25	;volatile
  3391     067C                     l1712:
  3392                           
  3393                           ;mcc_generated_files/mcc.c: 66:     OSCTUNE = 0x00;
  3394     067C  0198               	clrf	24	;volatile
  3395     067D                     l1714:
  3396                           
  3397                           ;mcc_generated_files/mcc.c: 68:     BORCON = 0x00;
  3398     067D  0022               	movlb	2	; select bank2
  3399     067E  0196               	clrf	22	;volatile
  3400     067F                     l28:	
  3401                           ;mcc_generated_files/mcc.c: 71:     {;mcc_generated_files/mcc.c: 72:     }
  3402                           
  3403                           
  3404                           ;mcc_generated_files/mcc.c: 70:     while(PLLR == 0)
  3405     067F  0021               	movlb	1	; select bank1
  3406     0680  1F1A               	btfss	26,6	;volatile
  3407     0681  2E83               	goto	u531
  3408     0682  2E84               	goto	u530
  3409     0683                     u531:
  3410     0683  2E7F               	goto	l28
  3411     0684                     u530:
  3412     0684                     l31:
  3413     0684  0008               	return
  3414     0685                     __end_of_OSCILLATOR_Initialize:
  3415                           
  3416                           	psect	text20
  3417     0644                     __ptext20:	
  3418 ;; *************** function _EPWM1_Initialize *****************
  3419 ;; Defined at:
  3420 ;;		line 64 in file "mcc_generated_files/epwm1.c"
  3421 ;; Parameters:    Size  Location     Type
  3422 ;;		None
  3423 ;; Auto vars:     Size  Location     Type
  3424 ;;		None
  3425 ;; Return value:  Size  Location     Type
  3426 ;;                  1    wreg      void 
  3427 ;; Registers used:
  3428 ;;		wreg, status,2, status,0
  3429 ;; Tracked objects:
  3430 ;;		On entry : 0/0
  3431 ;;		On exit  : 0/0
  3432 ;;		Unchanged: 0/0
  3433 ;; Data sizes:     COMMON   BANK0   BANK1   BANK2   BANK3   BANK4   BANK5   BANK6
  3434 ;;      Params:         0       0       0       0       0       0       0       0
  3435 ;;      Locals:         0       0       0       0       0       0       0       0
  3436 ;;      Temps:          0       0       0       0       0       0       0       0
  3437 ;;      Totals:         0       0       0       0       0       0       0       0
  3438 ;;Total ram usage:        0 bytes
  3439 ;; Hardware stack levels used: 1
  3440 ;; Hardware stack levels required when called: 3
  3441 ;; This function calls:
  3442 ;;		Nothing
  3443 ;; This function is called by:
  3444 ;;		_SYSTEM_Initialize
  3445 ;; This function uses a non-reentrant model
  3446 ;;
  3447                           
  3448     0644                     _EPWM1_Initialize:	
  3449                           ;psect for function _EPWM1_Initialize
  3450                           
  3451     0644                     l1718:	
  3452                           ;incstack = 0
  3453                           ; Regs used in _EPWM1_Initialize: [wreg+status,2+status,0]
  3454                           
  3455                           
  3456                           ;mcc_generated_files/epwm1.c: 69:  CCP1CON = 0x3C;
  3457     0644  303C               	movlw	60
  3458     0645  0025               	movlb	5	; select bank5
  3459     0646  0093               	movwf	19	;volatile
  3460     0647                     l1720:
  3461                           
  3462                           ;mcc_generated_files/epwm1.c: 72:  ECCP1AS = 0x00;
  3463     0647  0195               	clrf	21	;volatile
  3464     0648                     l1722:
  3465                           
  3466                           ;mcc_generated_files/epwm1.c: 75:  PWM1CON = 0x80;
  3467     0648  3080               	movlw	128
  3468     0649  0094               	movwf	20	;volatile
  3469     064A                     l1724:
  3470                           
  3471                           ;mcc_generated_files/epwm1.c: 78:  PSTR1CON = 0x01;
  3472     064A  3001               	movlw	1
  3473     064B  0096               	movwf	22	;volatile
  3474     064C                     l1726:
  3475                           
  3476                           ;mcc_generated_files/epwm1.c: 81:  CCPR1H = 0x00;
  3477     064C  0192               	clrf	18	;volatile
  3478                           
  3479                           ;mcc_generated_files/epwm1.c: 84:  CCPR1L = 0xF9;
  3480     064D  30F9               	movlw	249
  3481     064E  0091               	movwf	17	;volatile
  3482     064F                     l1728:
  3483                           
  3484                           ;mcc_generated_files/epwm1.c: 87:  CCPTMRS0bits.C1TSEL = 0x0;
  3485     064F  30FC               	movlw	-4
  3486     0650  059E               	andwf	30,f	;volatile
  3487     0651                     l85:
  3488     0651  0008               	return
  3489     0652                     __end_of_EPWM1_Initialize:
  3490                           
  3491                           	psect	text21
  3492     0195                     __ptext21:	
  3493 ;; *************** function _LED_main *****************
  3494 ;; Defined at:
  3495 ;;		line 715 in file "LED.c"
  3496 ;; Parameters:    Size  Location     Type
  3497 ;;		None
  3498 ;; Auto vars:     Size  Location     Type
  3499 ;;		None
  3500 ;; Return value:  Size  Location     Type
  3501 ;;                  1    wreg      void 
  3502 ;; Registers used:
  3503 ;;		wreg, fsr0l, fsr0h, status,2, status,0, pclath, cstack
  3504 ;; Tracked objects:
  3505 ;;		On entry : 0/0
  3506 ;;		On exit  : 0/0
  3507 ;;		Unchanged: 0/0
  3508 ;; Data sizes:     COMMON   BANK0   BANK1   BANK2   BANK3   BANK4   BANK5   BANK6
  3509 ;;      Params:         0       0       0       0       0       0       0       0
  3510 ;;      Locals:         0       0       0       0       0       0       0       0
  3511 ;;      Temps:          0       0       0       0       0       0       0       0
  3512 ;;      Totals:         0       0       0       0       0       0       0       0
  3513 ;;Total ram usage:        0 bytes
  3514 ;; Hardware stack levels used: 1
  3515 ;; Hardware stack levels required when called: 7
  3516 ;; This function calls:
  3517 ;;		_DRL_on
  3518 ;;		_POS_on
  3519 ;;		_all_led_off
  3520 ;;		_check_POS_P2
  3521 ;;		_check_test_mode
  3522 ;;		_check_welcome_light
  3523 ;;		_check_welcome_signal
  3524 ;;		_debounce_IO
  3525 ;;		_turn_on_turn_signals
  3526 ;;		_turn_signals_state_update
  3527 ;; This function is called by:
  3528 ;;		_main
  3529 ;; This function uses a non-reentrant model
  3530 ;;
  3531                           
  3532     0195                     _LED_main:	
  3533                           ;psect for function _LED_main
  3534                           
  3535     0195                     l3086:	
  3536                           ;incstack = 0
  3537                           ; Regs used in _LED_main: [wreg-fsr0h+status,2+status,0+pclath+cstack]
  3538                           
  3539                           
  3540                           ;LED.c: 717:   if (f1ms) {
  3541     0195  0020               	movlb	0	; select bank0
  3542     0196  0830               	movf	_f1ms,w
  3543     0197  1903               	btfsc	3,2
  3544     0198  299A               	goto	u1801
  3545     0199  299B               	goto	u1800
  3546     019A                     u1801:
  3547     019A  29AB               	goto	l3100
  3548     019B                     u1800:
  3549     019B                     l3088:
  3550                           
  3551                           ;LED.c: 718:     f1ms = 0;
  3552     019B  01B0               	clrf	_f1ms
  3553     019C                     l3090:
  3554                           
  3555                           ;LED.c: 719:     debounce_IO();
  3556     019C  3181  21EC  3181   	fcall	_debounce_IO
  3557     019F                     l3092:
  3558                           
  3559                           ;LED.c: 720:     turn_signals_state_update();
  3560     019F  3182  2230  3181   	fcall	_turn_signals_state_update
  3561     01A2                     l3094:
  3562                           
  3563                           ;LED.c: 721:     check_welcome_signal();
  3564     01A2  3186  2614  3181   	fcall	_check_welcome_signal
  3565     01A5                     l3096:
  3566                           
  3567                           ;LED.c: 722:     check_test_mode();
  3568     01A5  3186  2652  3181   	fcall	_check_test_mode
  3569     01A8                     l3098:
  3570                           
  3571                           ;LED.c: 723:     check_POS_P2();
  3572     01A8  3186  2685  3181   	fcall	_check_POS_P2
  3573     01AB                     l3100:
  3574                           
  3575                           ;LED.c: 727:   if (!fWelcome_light_disable && !ORB.TURN) {
  3576     01AB  0020               	movlb	0	; select bank0
  3577     01AC  082E               	movf	_fWelcome_light_disable,w
  3578     01AD  1D03               	btfss	3,2
  3579     01AE  29B0               	goto	u1811
  3580     01AF  29B1               	goto	u1810
  3581     01B0                     u1811:
  3582     01B0  29BE               	goto	l3108
  3583     01B1                     u1810:
  3584     01B1                     l3102:
  3585     01B1  187A               	btfsc	_ORB,0
  3586     01B2  29B4               	goto	u1821
  3587     01B3  29B5               	goto	u1820
  3588     01B4                     u1821:
  3589     01B4  29BE               	goto	l3108
  3590     01B5                     u1820:
  3591     01B5                     l3104:
  3592                           
  3593                           ;LED.c: 728:     if (fWelcome_light) {
  3594     01B5  0879               	movf	_fWelcome_light,w
  3595     01B6  1903               	btfsc	3,2
  3596     01B7  29B9               	goto	u1831
  3597     01B8  29BA               	goto	u1830
  3598     01B9                     u1831:
  3599     01B9  29C0               	goto	l3110
  3600     01BA                     u1830:
  3601     01BA                     l3106:
  3602                           
  3603                           ;LED.c: 729:       check_welcome_light();
  3604     01BA  3180  202E  3181   	fcall	_check_welcome_light
  3605     01BD  29C0               	goto	l3110
  3606     01BE                     l3108:
  3607                           
  3608                           ;LED.c: 732:     eWelcome_step = WELCOME_STEP_0;
  3609     01BE  01AF               	clrf	_eWelcome_step
  3610                           
  3611                           ;LED.c: 733:     fWelcome_light = 0;
  3612     01BF  01F9               	clrf	_fWelcome_light
  3613     01C0                     l3110:
  3614                           
  3615                           ;LED.c: 737:   if (!fturn_light_disable) {
  3616     01C0  0020               	movlb	0	; select bank0
  3617     01C1  082C               	movf	_fturn_light_disable,w
  3618     01C2  1D03               	btfss	3,2
  3619     01C3  29C5               	goto	u1841
  3620     01C4  29C6               	goto	u1840
  3621     01C5                     u1841:
  3622     01C5  29CA               	goto	l3114
  3623     01C6                     u1840:
  3624     01C6                     l3112:
  3625                           
  3626                           ;LED.c: 738:     turn_on_turn_signals();
  3627     01C6  3181  2105  3181   	fcall	_turn_on_turn_signals
  3628                           
  3629                           ;LED.c: 739:   } else {
  3630     01C9  29CB               	goto	l3116
  3631     01CA                     l3114:
  3632                           
  3633                           ;LED.c: 740:     eTurn_step = TURN_STEP_0;
  3634     01CA  01AB               	clrf	_eTurn_step
  3635     01CB                     l3116:
  3636                           
  3637                           ;LED.c: 744:   if (fturn_off_600ms && !fWelcome_light) {
  3638     01CB  0020               	movlb	0	; select bank0
  3639     01CC  0829               	movf	_fturn_off_600ms,w
  3640     01CD  1903               	btfsc	3,2
  3641     01CE  29D0               	goto	u1851
  3642     01CF  29D1               	goto	u1850
  3643     01D0                     u1851:
  3644     01D0  29EB               	goto	l596
  3645     01D1                     u1850:
  3646     01D1                     l3118:
  3647     01D1  0879               	movf	_fWelcome_light,w
  3648     01D2  1D03               	btfss	3,2
  3649     01D3  29D5               	goto	u1861
  3650     01D4  29D6               	goto	u1860
  3651     01D5                     u1861:
  3652     01D5  29EB               	goto	l596
  3653     01D6                     u1860:
  3654     01D6                     l3120:
  3655                           
  3656                           ;LED.c: 745:     if (ORB.DRL) {
  3657     01D6  1CFA               	btfss	_ORB,1
  3658     01D7  29D9               	goto	u1871
  3659     01D8  29DA               	goto	u1870
  3660     01D9                     u1871:
  3661     01D9  29DE               	goto	l592
  3662     01DA                     u1870:
  3663     01DA                     l3122:
  3664                           
  3665                           ;LED.c: 746:       DRL_on();
  3666     01DA  3185  258F  3181   	fcall	_DRL_on
  3667                           
  3668                           ;LED.c: 747:     } else if (ORB.POS) {
  3669     01DD  29EB               	goto	l596
  3670     01DE                     l592:
  3671     01DE  1D7A               	btfss	_ORB,2
  3672     01DF  29E1               	goto	u1881
  3673     01E0  29E2               	goto	u1880
  3674     01E1                     u1881:
  3675     01E1  29E6               	goto	l3126
  3676     01E2                     u1880:
  3677     01E2                     l3124:
  3678                           
  3679                           ;LED.c: 748:       POS_on();
  3680     01E2  3185  2575  3181   	fcall	_POS_on
  3681                           
  3682                           ;LED.c: 749:     } else {
  3683     01E5  29EB               	goto	l596
  3684     01E6                     l3126:
  3685                           
  3686                           ;LED.c: 750:       all_led_off();
  3687     01E6  3186  2691  3181   	fcall	_all_led_off
  3688     01E9                     l3128:
  3689                           
  3690                           ;LED.c: 751:       fWelcome_light_disable = 0;
  3691     01E9  0020               	movlb	0	; select bank0
  3692     01EA  01AE               	clrf	_fWelcome_light_disable
  3693     01EB                     l596:
  3694     01EB  0008               	return
  3695     01EC                     __end_of_LED_main:
  3696                           
  3697                           	psect	text22
  3698     0230                     __ptext22:	
  3699 ;; *************** function _turn_signals_state_update *****************
  3700 ;; Defined at:
  3701 ;;		line 86 in file "LED.c"
  3702 ;; Parameters:    Size  Location     Type
  3703 ;;		None
  3704 ;; Auto vars:     Size  Location     Type
  3705 ;;		None
  3706 ;; Return value:  Size  Location     Type
  3707 ;;                  1    wreg      void 
  3708 ;; Registers used:
  3709 ;;		wreg, status,2, status,0, pclath, cstack
  3710 ;; Tracked objects:
  3711 ;;		On entry : 0/0
  3712 ;;		On exit  : 0/0
  3713 ;;		Unchanged: 0/0
  3714 ;; Data sizes:     COMMON   BANK0   BANK1   BANK2   BANK3   BANK4   BANK5   BANK6
  3715 ;;      Params:         0       0       0       0       0       0       0       0
  3716 ;;      Locals:         0       0       0       0       0       0       0       0
  3717 ;;      Temps:          1       0       0       0       0       0       0       0
  3718 ;;      Totals:         1       0       0       0       0       0       0       0
  3719 ;;Total ram usage:        1 bytes
  3720 ;; Hardware stack levels used: 1
  3721 ;; Hardware stack levels required when called: 6
  3722 ;; This function calls:
  3723 ;;		_all_led_off
  3724 ;; This function is called by:
  3725 ;;		_LED_main
  3726 ;; This function uses a non-reentrant model
  3727 ;;
  3728                           
  3729     0230                     _turn_signals_state_update:	
  3730                           ;psect for function _turn_signals_state_update
  3731                           
  3732     0230                     l2770:	
  3733                           ;incstack = 0
  3734                           ; Regs used in _turn_signals_state_update: [wreg+status,2+status,0+pclath+cstack]
  3735                           
  3736                           
  3737                           ;LED.c: 87:   if (ORB.TURN) {
  3738     0230  1C7A               	btfss	_ORB,0
  3739     0231  2A33               	goto	u1561
  3740     0232  2A34               	goto	u1560
  3741     0233                     u1561:
  3742     0233  2A3A               	goto	l2776
  3743     0234                     u1560:
  3744     0234                     l2772:
  3745                           
  3746                           ;LED.c: 88:     fturn_state = 1;
  3747     0234  0020               	movlb	0	; select bank0
  3748     0235  01AD               	clrf	_fturn_state
  3749     0236  0AAD               	incf	_fturn_state,f
  3750     0237                     l2774:
  3751                           
  3752                           ;LED.c: 89:     fturn_off_600ms = 0;
  3753     0237  01A9               	clrf	_fturn_off_600ms
  3754                           
  3755                           ;LED.c: 90:     fturn_light_disable = 0;
  3756     0238  01AC               	clrf	_fturn_light_disable
  3757                           
  3758                           ;LED.c: 91:   } else {
  3759     0239  2A64               	goto	l299
  3760     023A                     l2776:
  3761                           
  3762                           ;LED.c: 93:     if (fturn_state) {
  3763     023A  0020               	movlb	0	; select bank0
  3764     023B  082D               	movf	_fturn_state,w
  3765     023C  1903               	btfsc	3,2
  3766     023D  2A3F               	goto	u1571
  3767     023E  2A40               	goto	u1570
  3768     023F                     u1571:
  3769     023F  2A51               	goto	l2786
  3770     0240                     u1570:
  3771     0240                     l2778:
  3772                           
  3773                           ;LED.c: 94:       all_led_off();
  3774     0240  3186  2691  3182   	fcall	_all_led_off
  3775     0243                     l2780:
  3776                           
  3777                           ;LED.c: 95:       turn_off_cnt = 0;
  3778     0243  0020               	movlb	0	; select bank0
  3779     0244  01A4               	clrf	_turn_off_cnt
  3780     0245  01A5               	clrf	_turn_off_cnt+1
  3781     0246                     l2782:
  3782                           
  3783                           ;LED.c: 96:       if (turn_fall_edge_cnt < 250) {
  3784     0246  30FA               	movlw	250
  3785     0247  022A               	subwf	_turn_fall_edge_cnt,w
  3786     0248  1803               	skipnc
  3787     0249  2A4B               	goto	u1581
  3788     024A  2A4C               	goto	u1580
  3789     024B                     u1581:
  3790     024B  2A61               	goto	l2790
  3791     024C                     u1580:
  3792     024C                     l2784:
  3793                           
  3794                           ;LED.c: 97:         turn_fall_edge_cnt++;
  3795     024C  3001               	movlw	1
  3796     024D  00F4               	movwf	??_turn_signals_state_update
  3797     024E  0874               	movf	??_turn_signals_state_update,w
  3798     024F  07AA               	addwf	_turn_fall_edge_cnt,f
  3799     0250  2A61               	goto	l2790
  3800     0251                     l2786:
  3801                           
  3802                           ;LED.c: 100:       if (turn_off_cnt < 600) {
  3803     0251  3002               	movlw	2
  3804     0252  0225               	subwf	_turn_off_cnt+1,w
  3805     0253  3058               	movlw	88
  3806     0254  1903               	skipnz
  3807     0255  0224               	subwf	_turn_off_cnt,w
  3808     0256  1803               	skipnc
  3809     0257  2A59               	goto	u1591
  3810     0258  2A5A               	goto	u1590
  3811     0259                     u1591:
  3812     0259  2A5F               	goto	l297
  3813     025A                     u1590:
  3814     025A                     l2788:
  3815                           
  3816                           ;LED.c: 101:         turn_off_cnt++;
  3817     025A  3001               	movlw	1
  3818     025B  07A4               	addwf	_turn_off_cnt,f
  3819     025C  3000               	movlw	0
  3820     025D  3DA5               	addwfc	_turn_off_cnt+1,f
  3821                           
  3822                           ;LED.c: 102:       } else {
  3823     025E  2A61               	goto	l2790
  3824     025F                     l297:
  3825                           
  3826                           ;LED.c: 103:         fturn_off_600ms = 1;
  3827     025F  01A9               	clrf	_fturn_off_600ms
  3828     0260  0AA9               	incf	_fturn_off_600ms,f
  3829     0261                     l2790:
  3830                           
  3831                           ;LED.c: 106:     fturn_state = 0;
  3832     0261  01AD               	clrf	_fturn_state
  3833     0262                     l2792:
  3834                           
  3835                           ;LED.c: 107:     fturn_light_disable = 1;
  3836     0262  01AC               	clrf	_fturn_light_disable
  3837     0263  0AAC               	incf	_fturn_light_disable,f
  3838     0264                     l299:
  3839     0264  0008               	return
  3840     0265                     __end_of_turn_signals_state_update:
  3841                           
  3842                           	psect	text23
  3843     0105                     __ptext23:	
  3844 ;; *************** function _turn_on_turn_signals *****************
  3845 ;; Defined at:
  3846 ;;		line 497 in file "LED.c"
  3847 ;; Parameters:    Size  Location     Type
  3848 ;;		None
  3849 ;; Auto vars:     Size  Location     Type
  3850 ;;		None
  3851 ;; Return value:  Size  Location     Type
  3852 ;;                  1    wreg      void 
  3853 ;; Registers used:
  3854 ;;		wreg, fsr0l, fsr0h, status,2, status,0, pclath, cstack
  3855 ;; Tracked objects:
  3856 ;;		On entry : 0/0
  3857 ;;		On exit  : 0/0
  3858 ;;		Unchanged: 0/0
  3859 ;; Data sizes:     COMMON   BANK0   BANK1   BANK2   BANK3   BANK4   BANK5   BANK6
  3860 ;;      Params:         0       0       0       0       0       0       0       0
  3861 ;;      Locals:         0       0       0       0       0       0       0       0
  3862 ;;      Temps:          2       0       0       0       0       0       0       0
  3863 ;;      Totals:         2       0       0       0       0       0       0       0
  3864 ;;Total ram usage:        2 bytes
  3865 ;; Hardware stack levels used: 1
  3866 ;; Hardware stack levels required when called: 6
  3867 ;; This function calls:
  3868 ;;		_all_led_off
  3869 ;; This function is called by:
  3870 ;;		_LED_main
  3871 ;; This function uses a non-reentrant model
  3872 ;;
  3873                           
  3874     0105                     _turn_on_turn_signals:	
  3875                           ;psect for function _turn_on_turn_signals
  3876                           
  3877     0105                     l2846:	
  3878                           ;incstack = 0
  3879                           ; Regs used in _turn_on_turn_signals: [wreg-fsr0h+status,2+status,0+pclath+cstack]
  3880                           
  3881                           
  3882                           ;LED.c: 499:   switch (eTurn_step) {
  3883     0105  2971               	goto	l2910
  3884     0106                     l531:	
  3885                           ;LED.c: 501:   case TURN_STEP_0:
  3886                           
  3887                           
  3888                           ;LED.c: 502:     if (ORB.TURN) {
  3889     0106  1C7A               	btfss	_ORB,0
  3890     0107  2909               	goto	u1681
  3891     0108  290A               	goto	u1680
  3892     0109                     u1681:
  3893     0109  2994               	goto	l548
  3894     010A                     u1680:
  3895     010A                     l2848:
  3896                           
  3897                           ;LED.c: 503:       all_led_off();
  3898     010A  3186  2691  3181   	fcall	_all_led_off
  3899     010D                     l2850:
  3900                           
  3901                           ;LED.c: 504:       eTurn_step++;
  3902     010D  3001               	movlw	1
  3903     010E  00F4               	movwf	??_turn_on_turn_signals
  3904     010F  0874               	movf	??_turn_on_turn_signals,w
  3905     0110  0020               	movlb	0	; select bank0
  3906     0111  07AB               	addwf	_eTurn_step,f
  3907     0112                     l2852:
  3908                           
  3909                           ;LED.c: 505:       LATAbits.LATA0 = 1;
  3910     0112  0022               	movlb	2	; select bank2
  3911     0113  140C               	bsf	12,0	;volatile
  3912     0114                     l2854:
  3913                           
  3914                           ;LED.c: 506:       LATCbits.LATC0 = 1;
  3915     0114  140E               	bsf	14,0	;volatile
  3916     0115                     l2856:
  3917                           
  3918                           ;LED.c: 507:       turn_1ms_cnt = 0;
  3919     0115  01F7               	clrf	_turn_1ms_cnt
  3920     0116  01F8               	clrf	_turn_1ms_cnt+1
  3921     0117  2994               	goto	l548
  3922     0118                     l2858:
  3923                           
  3924                           ;LED.c: 512:     if (turn_1ms_cnt >= tDelay_ms) {
  3925     0118  087D               	movf	_tDelay_ms+1,w
  3926     0119  0278               	subwf	_turn_1ms_cnt+1,w
  3927     011A  1D03               	skipz
  3928     011B  291E               	goto	u1695
  3929     011C  087C               	movf	_tDelay_ms,w
  3930     011D  0277               	subwf	_turn_1ms_cnt,w
  3931     011E                     u1695:
  3932     011E  1C03               	skipc
  3933     011F  2921               	goto	u1691
  3934     0120  2922               	goto	u1690
  3935     0121                     u1691:
  3936     0121  2994               	goto	l548
  3937     0122                     u1690:
  3938     0122                     l2860:
  3939                           
  3940                           ;LED.c: 513:       LATAbits.LATA1 = 1;
  3941     0122  0022               	movlb	2	; select bank2
  3942     0123  148C               	bsf	12,1	;volatile
  3943     0124                     l2862:
  3944                           
  3945                           ;LED.c: 514:       eTurn_step++;
  3946     0124  3001               	movlw	1
  3947     0125  00F4               	movwf	??_turn_on_turn_signals
  3948     0126  0874               	movf	??_turn_on_turn_signals,w
  3949     0127  0020               	movlb	0	; select bank0
  3950     0128  07AB               	addwf	_eTurn_step,f
  3951     0129  2915               	goto	l2856
  3952     012A                     l2866:
  3953                           
  3954                           ;LED.c: 520:     if (turn_1ms_cnt >= tDelay_ms) {
  3955     012A  087D               	movf	_tDelay_ms+1,w
  3956     012B  0278               	subwf	_turn_1ms_cnt+1,w
  3957     012C  1D03               	skipz
  3958     012D  2930               	goto	u1705
  3959     012E  087C               	movf	_tDelay_ms,w
  3960     012F  0277               	subwf	_turn_1ms_cnt,w
  3961     0130                     u1705:
  3962     0130  1C03               	skipc
  3963     0131  2933               	goto	u1701
  3964     0132  2934               	goto	u1700
  3965     0133                     u1701:
  3966     0133  2994               	goto	l548
  3967     0134                     u1700:
  3968     0134                     l2868:
  3969                           
  3970                           ;LED.c: 521:       LATAbits.LATA2 = 1;
  3971     0134  0022               	movlb	2	; select bank2
  3972     0135  150C               	bsf	12,2	;volatile
  3973                           
  3974                           ;LED.c: 522:       LATAbits.LATA6 = 1;
  3975     0136  170C               	bsf	12,6	;volatile
  3976     0137  2924               	goto	l2862
  3977     0138                     l2874:
  3978                           
  3979                           ;LED.c: 529:     if (turn_1ms_cnt >= tDelay_ms) {
  3980     0138  087D               	movf	_tDelay_ms+1,w
  3981     0139  0278               	subwf	_turn_1ms_cnt+1,w
  3982     013A  1D03               	skipz
  3983     013B  293E               	goto	u1715
  3984     013C  087C               	movf	_tDelay_ms,w
  3985     013D  0277               	subwf	_turn_1ms_cnt,w
  3986     013E                     u1715:
  3987     013E  1C03               	skipc
  3988     013F  2941               	goto	u1711
  3989     0140  2942               	goto	u1710
  3990     0141                     u1711:
  3991     0141  2994               	goto	l548
  3992     0142                     u1710:
  3993     0142                     l2876:
  3994                           
  3995                           ;LED.c: 530:       LATAbits.LATA3 = 1;
  3996     0142  0022               	movlb	2	; select bank2
  3997     0143  158C               	bsf	12,3	;volatile
  3998     0144  2924               	goto	l2862
  3999     0145                     l2882:
  4000                           
  4001                           ;LED.c: 537:     if (turn_1ms_cnt >= tDelay_ms) {
  4002     0145  087D               	movf	_tDelay_ms+1,w
  4003     0146  0278               	subwf	_turn_1ms_cnt+1,w
  4004     0147  1D03               	skipz
  4005     0148  294B               	goto	u1725
  4006     0149  087C               	movf	_tDelay_ms,w
  4007     014A  0277               	subwf	_turn_1ms_cnt,w
  4008     014B                     u1725:
  4009     014B  1C03               	skipc
  4010     014C  294E               	goto	u1721
  4011     014D  294F               	goto	u1720
  4012     014E                     u1721:
  4013     014E  2994               	goto	l548
  4014     014F                     u1720:
  4015     014F                     l2884:
  4016                           
  4017                           ;LED.c: 538:       LATAbits.LATA4 = 1;
  4018     014F  0022               	movlb	2	; select bank2
  4019     0150  160C               	bsf	12,4	;volatile
  4020                           
  4021                           ;LED.c: 539:       LATAbits.LATA7 = 1;
  4022     0151  178C               	bsf	12,7	;volatile
  4023     0152  2924               	goto	l2862
  4024     0153                     l2890:
  4025                           
  4026                           ;LED.c: 546:     if (turn_1ms_cnt >= tDelay_ms) {
  4027     0153  087D               	movf	_tDelay_ms+1,w
  4028     0154  0278               	subwf	_turn_1ms_cnt+1,w
  4029     0155  1D03               	skipz
  4030     0156  2959               	goto	u1735
  4031     0157  087C               	movf	_tDelay_ms,w
  4032     0158  0277               	subwf	_turn_1ms_cnt,w
  4033     0159                     u1735:
  4034     0159  1C03               	skipc
  4035     015A  295C               	goto	u1731
  4036     015B  295D               	goto	u1730
  4037     015C                     u1731:
  4038     015C  2994               	goto	l548
  4039     015D                     u1730:
  4040     015D                     l2892:
  4041                           
  4042                           ;LED.c: 547:       LATAbits.LATA5 = 1;
  4043     015D  0022               	movlb	2	; select bank2
  4044     015E  168C               	bsf	12,5	;volatile
  4045     015F  2924               	goto	l2862
  4046     0160                     l2898:
  4047                           
  4048                           ;LED.c: 554:     if (turn_1ms_cnt >= tDelay_ms) {
  4049     0160  087D               	movf	_tDelay_ms+1,w
  4050     0161  0278               	subwf	_turn_1ms_cnt+1,w
  4051     0162  1D03               	skipz
  4052     0163  2966               	goto	u1745
  4053     0164  087C               	movf	_tDelay_ms,w
  4054     0165  0277               	subwf	_turn_1ms_cnt,w
  4055     0166                     u1745:
  4056     0166  1C03               	skipc
  4057     0167  2969               	goto	u1741
  4058     0168  296A               	goto	u1740
  4059     0169                     u1741:
  4060     0169  2994               	goto	l548
  4061     016A                     u1740:
  4062     016A                     l2900:
  4063                           
  4064                           ;LED.c: 555:       LATCbits.LATC1 = 1;
  4065     016A  0022               	movlb	2	; select bank2
  4066     016B  148E               	bsf	14,1	;volatile
  4067     016C  2924               	goto	l2862
  4068     016D                     l2906:
  4069                           
  4070                           ;LED.c: 566:     eTurn_step = TURN_STEP_0;
  4071     016D  01AB               	clrf	_eTurn_step
  4072                           
  4073                           ;LED.c: 567:     turn_1ms_cnt = 0;
  4074     016E  01F7               	clrf	_turn_1ms_cnt
  4075     016F  01F8               	clrf	_turn_1ms_cnt+1
  4076                           
  4077                           ;LED.c: 568:     break;
  4078     0170  2994               	goto	l548
  4079     0171                     l2910:
  4080     0171  0020               	movlb	0	; select bank0
  4081     0172  082B               	movf	_eTurn_step,w
  4082     0173  00F4               	movwf	??_turn_on_turn_signals
  4083     0174  01F5               	clrf	??_turn_on_turn_signals+1
  4084                           
  4085                           ; Switch on 2 bytes has been partitioned into a top level switch of size 1, and 1 sub-sw
      +                          itches
  4086                           ; Switch size 1, requested type "simple"
  4087                           ; Number of cases is 1, Range of values is 0 to 0
  4088                           ; switch strategies available:
  4089                           ; Name         Instructions Cycles
  4090                           ; simple_byte            4     3 (average)
  4091                           ; direct_byte            8     6 (fixed)
  4092                           ; jumptable            260     6 (fixed)
  4093                           ;	Chosen strategy is simple_byte
  4094     0175  0875               	movf	??_turn_on_turn_signals+1,w
  4095     0176  3A00               	xorlw	0	; case 0
  4096     0177  1903               	skipnz
  4097     0178  297A               	goto	l3208
  4098     0179  296D               	goto	l2906
  4099     017A                     l3208:
  4100                           
  4101                           ; Switch size 1, requested type "simple"
  4102                           ; Number of cases is 8, Range of values is 0 to 7
  4103                           ; switch strategies available:
  4104                           ; Name         Instructions Cycles
  4105                           ; direct_byte           22     6 (fixed)
  4106                           ; simple_byte           25    13 (average)
  4107                           ; jumptable            260     6 (fixed)
  4108                           ;	Chosen strategy is simple_byte
  4109     017A  0874               	movf	??_turn_on_turn_signals,w
  4110     017B  3A00               	xorlw	0	; case 0
  4111     017C  1903               	skipnz
  4112     017D  2906               	goto	l531
  4113     017E  3A01               	xorlw	1	; case 1
  4114     017F  1903               	skipnz
  4115     0180  2918               	goto	l2858
  4116     0181  3A03               	xorlw	3	; case 2
  4117     0182  1903               	skipnz
  4118     0183  292A               	goto	l2866
  4119     0184  3A01               	xorlw	1	; case 3
  4120     0185  1903               	skipnz
  4121     0186  2938               	goto	l2874
  4122     0187  3A07               	xorlw	7	; case 4
  4123     0188  1903               	skipnz
  4124     0189  2945               	goto	l2882
  4125     018A  3A01               	xorlw	1	; case 5
  4126     018B  1903               	skipnz
  4127     018C  2953               	goto	l2890
  4128     018D  3A03               	xorlw	3	; case 6
  4129     018E  1903               	skipnz
  4130     018F  2960               	goto	l2898
  4131     0190  3A01               	xorlw	1	; case 7
  4132     0191  1903               	skipnz
  4133     0192  2994               	goto	l548
  4134     0193  296D               	goto	l2906
  4135     0194                     l548:
  4136     0194  0008               	return
  4137     0195                     __end_of_turn_on_turn_signals:
  4138                           
  4139                           	psect	text24
  4140     01EC                     __ptext24:	
  4141 ;; *************** function _debounce_IO *****************
  4142 ;; Defined at:
  4143 ;;		line 57 in file "LED.c"
  4144 ;; Parameters:    Size  Location     Type
  4145 ;;		None
  4146 ;; Auto vars:     Size  Location     Type
  4147 ;;  temp            1    0[COMMON] unsigned char 
  4148 ;; Return value:  Size  Location     Type
  4149 ;;                  1    wreg      void 
  4150 ;; Registers used:
  4151 ;;		wreg, status,2, status,0, pclath, cstack
  4152 ;; Tracked objects:
  4153 ;;		On entry : 0/0
  4154 ;;		On exit  : 0/0
  4155 ;;		Unchanged: 0/0
  4156 ;; Data sizes:     COMMON   BANK0   BANK1   BANK2   BANK3   BANK4   BANK5   BANK6
  4157 ;;      Params:         0       0       0       0       0       0       0       0
  4158 ;;      Locals:         1       0       0       0       0       0       0       0
  4159 ;;      Temps:          0       0       0       0       0       0       0       0
  4160 ;;      Totals:         1       0       0       0       0       0       0       0
  4161 ;;Total ram usage:        1 bytes
  4162 ;; Hardware stack levels used: 1
  4163 ;; Hardware stack levels required when called: 4
  4164 ;; This function calls:
  4165 ;;		_is_DRL
  4166 ;;		_is_POS
  4167 ;;		_is_WELCOME
  4168 ;;		_is_test
  4169 ;;		_is_turn_signals
  4170 ;;		_is_white
  4171 ;; This function is called by:
  4172 ;;		_LED_main
  4173 ;; This function uses a non-reentrant model
  4174 ;;
  4175                           
  4176     01EC                     _debounce_IO:	
  4177                           ;psect for function _debounce_IO
  4178                           
  4179     01EC                     l2738:	
  4180                           ;incstack = 0
  4181                           ; Regs used in _debounce_IO: [wreg+status,2+status,0+pclath+cstack]
  4182                           
  4183                           
  4184                           ;LED.c: 58:   static sflag TRB = {0};;LED.c: 59:   uint8_t temp = 0;
  4185     01EC  01F0               	clrf	debounce_IO@temp
  4186     01ED                     l2740:
  4187                           
  4188                           ;LED.c: 60:   if (is_turn_signals()) {
  4189     01ED  3187  2703  3181   	fcall	_is_turn_signals
  4190     01F0  3A00               	xorlw	0
  4191     01F1  1903               	skipnz
  4192     01F2  29F4               	goto	u1491
  4193     01F3  29F5               	goto	u1490
  4194     01F4                     u1491:
  4195     01F4  29F6               	goto	l2744
  4196     01F5                     u1490:
  4197     01F5                     l2742:
  4198                           
  4199                           ;LED.c: 61:     temp |= 0x01;;
  4200     01F5  1470               	bsf	debounce_IO@temp,0
  4201     01F6                     l2744:
  4202                           
  4203                           ;LED.c: 63:   if (is_DRL()) {
  4204     01F6  3187  270B  3181   	fcall	_is_DRL
  4205     01F9  3A00               	xorlw	0
  4206     01FA  1903               	skipnz
  4207     01FB  29FD               	goto	u1501
  4208     01FC  29FE               	goto	u1500
  4209     01FD                     u1501:
  4210     01FD  29FF               	goto	l2748
  4211     01FE                     u1500:
  4212     01FE                     l2746:
  4213                           
  4214                           ;LED.c: 64:     temp |= (0x01<<1);
  4215     01FE  14F0               	bsf	debounce_IO@temp,1
  4216     01FF                     l2748:
  4217                           
  4218                           ;LED.c: 66:   if (is_POS()) {
  4219     01FF  3186  26F6  3181   	fcall	_is_POS
  4220     0202  3A00               	xorlw	0
  4221     0203  1903               	skipnz
  4222     0204  2A06               	goto	u1511
  4223     0205  2A07               	goto	u1510
  4224     0206                     u1511:
  4225     0206  2A08               	goto	l2752
  4226     0207                     u1510:
  4227     0207                     l2750:
  4228                           
  4229                           ;LED.c: 67:     temp |= (0x01<<2);
  4230     0207  1570               	bsf	debounce_IO@temp,2
  4231     0208                     l2752:
  4232                           
  4233                           ;LED.c: 69:   if (is_white()) {
  4234     0208  3186  26EC  3181   	fcall	_is_white
  4235     020B  3A00               	xorlw	0
  4236     020C  1903               	skipnz
  4237     020D  2A0F               	goto	u1521
  4238     020E  2A10               	goto	u1520
  4239     020F                     u1521:
  4240     020F  2A11               	goto	l2756
  4241     0210                     u1520:
  4242     0210                     l2754:
  4243                           
  4244                           ;LED.c: 70:     temp |= (0x01<<3);
  4245     0210  15F0               	bsf	debounce_IO@temp,3
  4246     0211                     l2756:
  4247                           
  4248                           ;LED.c: 72:   if (is_test()) {
  4249     0211  3187  2707  3181   	fcall	_is_test
  4250     0214  3A00               	xorlw	0
  4251     0215  1903               	skipnz
  4252     0216  2A18               	goto	u1531
  4253     0217  2A19               	goto	u1530
  4254     0218                     u1531:
  4255     0218  2A1A               	goto	l2760
  4256     0219                     u1530:
  4257     0219                     l2758:
  4258                           
  4259                           ;LED.c: 73:     temp |= (0x01<<4);
  4260     0219  1670               	bsf	debounce_IO@temp,4
  4261     021A                     l2760:
  4262                           
  4263                           ;LED.c: 75:   if (is_WELCOME()) {
  4264     021A  3186  26F1  3181   	fcall	_is_WELCOME
  4265     021D  3A00               	xorlw	0
  4266     021E  1903               	skipnz
  4267     021F  2A21               	goto	u1541
  4268     0220  2A22               	goto	u1540
  4269     0221                     u1541:
  4270     0221  2A23               	goto	l2764
  4271     0222                     u1540:
  4272     0222                     l2762:
  4273                           
  4274                           ;LED.c: 76:     temp |= (0x01<<5);
  4275     0222  16F0               	bsf	debounce_IO@temp,5
  4276     0223                     l2764:
  4277                           
  4278                           ;LED.c: 78:   if (temp ^ TRB.Byte) {
  4279     0223  0020               	movlb	0	; select bank0
  4280     0224  0828               	movf	debounce_IO@TRB,w
  4281     0225  0670               	xorwf	debounce_IO@temp,w
  4282     0226  1903               	btfsc	3,2
  4283     0227  2A29               	goto	u1551
  4284     0228  2A2A               	goto	u1550
  4285     0229                     u1551:
  4286     0229  2A2D               	goto	l2768
  4287     022A                     u1550:
  4288     022A                     l2766:
  4289                           
  4290                           ;LED.c: 79:     TRB.Byte = temp;
  4291     022A  0870               	movf	debounce_IO@temp,w
  4292     022B  00A8               	movwf	debounce_IO@TRB
  4293                           
  4294                           ;LED.c: 80:   } else {
  4295     022C  2A2F               	goto	l289
  4296     022D                     l2768:
  4297                           
  4298                           ;LED.c: 81:     ORB.Byte = temp;
  4299     022D  0870               	movf	debounce_IO@temp,w
  4300     022E  00FA               	movwf	_ORB
  4301     022F                     l289:
  4302     022F  0008               	return
  4303     0230                     __end_of_debounce_IO:
  4304                           
  4305                           	psect	text25
  4306     06EC                     __ptext25:	
  4307 ;; *************** function _is_white *****************
  4308 ;; Defined at:
  4309 ;;		line 187 in file "LED.c"
  4310 ;; Parameters:    Size  Location     Type
  4311 ;;		None
  4312 ;; Auto vars:     Size  Location     Type
  4313 ;;		None
  4314 ;; Return value:  Size  Location     Type
  4315 ;;                  1    wreg      _Bool 
  4316 ;; Registers used:
  4317 ;;		wreg, status,2, status,0
  4318 ;; Tracked objects:
  4319 ;;		On entry : 0/0
  4320 ;;		On exit  : 0/0
  4321 ;;		Unchanged: 0/0
  4322 ;; Data sizes:     COMMON   BANK0   BANK1   BANK2   BANK3   BANK4   BANK5   BANK6
  4323 ;;      Params:         0       0       0       0       0       0       0       0
  4324 ;;      Locals:         0       0       0       0       0       0       0       0
  4325 ;;      Temps:          0       0       0       0       0       0       0       0
  4326 ;;      Totals:         0       0       0       0       0       0       0       0
  4327 ;;Total ram usage:        0 bytes
  4328 ;; Hardware stack levels used: 1
  4329 ;; Hardware stack levels required when called: 3
  4330 ;; This function calls:
  4331 ;;		Nothing
  4332 ;; This function is called by:
  4333 ;;		_debounce_IO
  4334 ;; This function uses a non-reentrant model
  4335 ;;
  4336                           
  4337     06EC                     _is_white:	
  4338                           ;psect for function _is_white
  4339                           
  4340     06EC                     l2282:	
  4341                           ;incstack = 0
  4342                           ; Regs used in _is_white: [wreg+status,2+status,0]
  4343                           
  4344     06EC  0020               	movlb	0	; select bank0
  4345     06ED  0E0E               	swapf	14,w	;volatile
  4346     06EE  0C89               	rrf	9,f
  4347     06EF  3901               	andlw	1
  4348     06F0                     l358:
  4349     06F0  0008               	return
  4350     06F1                     __end_of_is_white:
  4351                           
  4352                           	psect	text26
  4353     0703                     __ptext26:	
  4354 ;; *************** function _is_turn_signals *****************
  4355 ;; Defined at:
  4356 ;;		line 188 in file "LED.c"
  4357 ;; Parameters:    Size  Location     Type
  4358 ;;		None
  4359 ;; Auto vars:     Size  Location     Type
  4360 ;;		None
  4361 ;; Return value:  Size  Location     Type
  4362 ;;                  1    wreg      _Bool 
  4363 ;; Registers used:
  4364 ;;		wreg, status,2, status,0
  4365 ;; Tracked objects:
  4366 ;;		On entry : 0/0
  4367 ;;		On exit  : 0/0
  4368 ;;		Unchanged: 0/0
  4369 ;; Data sizes:     COMMON   BANK0   BANK1   BANK2   BANK3   BANK4   BANK5   BANK6
  4370 ;;      Params:         0       0       0       0       0       0       0       0
  4371 ;;      Locals:         0       0       0       0       0       0       0       0
  4372 ;;      Temps:          0       0       0       0       0       0       0       0
  4373 ;;      Totals:         0       0       0       0       0       0       0       0
  4374 ;;Total ram usage:        0 bytes
  4375 ;; Hardware stack levels used: 1
  4376 ;; Hardware stack levels required when called: 3
  4377 ;; This function calls:
  4378 ;;		Nothing
  4379 ;; This function is called by:
  4380 ;;		_debounce_IO
  4381 ;; This function uses a non-reentrant model
  4382 ;;
  4383                           
  4384     0703                     _is_turn_signals:	
  4385                           ;psect for function _is_turn_signals
  4386                           
  4387     0703                     l2270:	
  4388                           ;incstack = 0
  4389                           ; Regs used in _is_turn_signals: [wreg+status,2+status,0]
  4390                           
  4391     0703  0020               	movlb	0	; select bank0
  4392     0704  0C0D               	rrf	13,w	;volatile
  4393     0705  3901               	andlw	1
  4394     0706                     l361:
  4395     0706  0008               	return
  4396     0707                     __end_of_is_turn_signals:
  4397                           
  4398                           	psect	text27
  4399     0707                     __ptext27:	
  4400 ;; *************** function _is_test *****************
  4401 ;; Defined at:
  4402 ;;		line 189 in file "LED.c"
  4403 ;; Parameters:    Size  Location     Type
  4404 ;;		None
  4405 ;; Auto vars:     Size  Location     Type
  4406 ;;		None
  4407 ;; Return value:  Size  Location     Type
  4408 ;;                  1    wreg      _Bool 
  4409 ;; Registers used:
  4410 ;;		wreg, status,2, status,0
  4411 ;; Tracked objects:
  4412 ;;		On entry : 0/0
  4413 ;;		On exit  : 0/0
  4414 ;;		Unchanged: 0/0
  4415 ;; Data sizes:     COMMON   BANK0   BANK1   BANK2   BANK3   BANK4   BANK5   BANK6
  4416 ;;      Params:         0       0       0       0       0       0       0       0
  4417 ;;      Locals:         0       0       0       0       0       0       0       0
  4418 ;;      Temps:          0       0       0       0       0       0       0       0
  4419 ;;      Totals:         0       0       0       0       0       0       0       0
  4420 ;;Total ram usage:        0 bytes
  4421 ;; Hardware stack levels used: 1
  4422 ;; Hardware stack levels required when called: 3
  4423 ;; This function calls:
  4424 ;;		Nothing
  4425 ;; This function is called by:
  4426 ;;		_debounce_IO
  4427 ;; This function uses a non-reentrant model
  4428 ;;
  4429                           
  4430     0707                     _is_test:	
  4431                           ;psect for function _is_test
  4432                           
  4433     0707                     l2286:	
  4434                           ;incstack = 0
  4435                           ; Regs used in _is_test: [wreg+status,2+status,0]
  4436                           
  4437     0707  0020               	movlb	0	; select bank0
  4438     0708  080D               	movf	13,w	;volatile
  4439     0709  3901               	andlw	1
  4440     070A                     l364:
  4441     070A  0008               	return
  4442     070B                     __end_of_is_test:
  4443                           
  4444                           	psect	text28
  4445     06F1                     __ptext28:	
  4446 ;; *************** function _is_WELCOME *****************
  4447 ;; Defined at:
  4448 ;;		line 192 in file "LED.c"
  4449 ;; Parameters:    Size  Location     Type
  4450 ;;		None
  4451 ;; Auto vars:     Size  Location     Type
  4452 ;;		None
  4453 ;; Return value:  Size  Location     Type
  4454 ;;                  1    wreg      _Bool 
  4455 ;; Registers used:
  4456 ;;		wreg, status,2, status,0
  4457 ;; Tracked objects:
  4458 ;;		On entry : 0/0
  4459 ;;		On exit  : 0/0
  4460 ;;		Unchanged: 0/0
  4461 ;; Data sizes:     COMMON   BANK0   BANK1   BANK2   BANK3   BANK4   BANK5   BANK6
  4462 ;;      Params:         0       0       0       0       0       0       0       0
  4463 ;;      Locals:         0       0       0       0       0       0       0       0
  4464 ;;      Temps:          0       0       0       0       0       0       0       0
  4465 ;;      Totals:         0       0       0       0       0       0       0       0
  4466 ;;Total ram usage:        0 bytes
  4467 ;; Hardware stack levels used: 1
  4468 ;; Hardware stack levels required when called: 3
  4469 ;; This function calls:
  4470 ;;		Nothing
  4471 ;; This function is called by:
  4472 ;;		_debounce_IO
  4473 ;; This function uses a non-reentrant model
  4474 ;;
  4475                           
  4476     06F1                     _is_WELCOME:	
  4477                           ;psect for function _is_WELCOME
  4478                           
  4479     06F1                     l2290:	
  4480                           ;incstack = 0
  4481                           ; Regs used in _is_WELCOME: [wreg+status,2+status,0]
  4482                           
  4483     06F1  0020               	movlb	0	; select bank0
  4484     06F2  0C0D               	rrf	13,w	;volatile
  4485     06F3  0C89               	rrf	9,f
  4486     06F4  3901               	andlw	1
  4487     06F5                     l373:
  4488     06F5  0008               	return
  4489     06F6                     __end_of_is_WELCOME:
  4490                           
  4491                           	psect	text29
  4492     06F6                     __ptext29:	
  4493 ;; *************** function _is_POS *****************
  4494 ;; Defined at:
  4495 ;;		line 191 in file "LED.c"
  4496 ;; Parameters:    Size  Location     Type
  4497 ;;		None
  4498 ;; Auto vars:     Size  Location     Type
  4499 ;;		None
  4500 ;; Return value:  Size  Location     Type
  4501 ;;                  1    wreg      _Bool 
  4502 ;; Registers used:
  4503 ;;		wreg, status,2, status,0
  4504 ;; Tracked objects:
  4505 ;;		On entry : 0/0
  4506 ;;		On exit  : 0/0
  4507 ;;		Unchanged: 0/0
  4508 ;; Data sizes:     COMMON   BANK0   BANK1   BANK2   BANK3   BANK4   BANK5   BANK6
  4509 ;;      Params:         0       0       0       0       0       0       0       0
  4510 ;;      Locals:         0       0       0       0       0       0       0       0
  4511 ;;      Temps:          0       0       0       0       0       0       0       0
  4512 ;;      Totals:         0       0       0       0       0       0       0       0
  4513 ;;Total ram usage:        0 bytes
  4514 ;; Hardware stack levels used: 1
  4515 ;; Hardware stack levels required when called: 3
  4516 ;; This function calls:
  4517 ;;		Nothing
  4518 ;; This function is called by:
  4519 ;;		_debounce_IO
  4520 ;; This function uses a non-reentrant model
  4521 ;;
  4522                           
  4523     06F6                     _is_POS:	
  4524                           ;psect for function _is_POS
  4525                           
  4526     06F6                     l2278:	
  4527                           ;incstack = 0
  4528                           ; Regs used in _is_POS: [wreg+status,2+status,0]
  4529                           
  4530     06F6  0020               	movlb	0	; select bank0
  4531     06F7  0E0D               	swapf	13,w	;volatile
  4532     06F8  0C89               	rrf	9,f
  4533     06F9  3901               	andlw	1
  4534     06FA                     l370:
  4535     06FA  0008               	return
  4536     06FB                     __end_of_is_POS:
  4537                           
  4538                           	psect	text30
  4539     070B                     __ptext30:	
  4540 ;; *************** function _is_DRL *****************
  4541 ;; Defined at:
  4542 ;;		line 190 in file "LED.c"
  4543 ;; Parameters:    Size  Location     Type
  4544 ;;		None
  4545 ;; Auto vars:     Size  Location     Type
  4546 ;;		None
  4547 ;; Return value:  Size  Location     Type
  4548 ;;                  1    wreg      _Bool 
  4549 ;; Registers used:
  4550 ;;		wreg, status,2, status,0
  4551 ;; Tracked objects:
  4552 ;;		On entry : 0/0
  4553 ;;		On exit  : 0/0
  4554 ;;		Unchanged: 0/0
  4555 ;; Data sizes:     COMMON   BANK0   BANK1   BANK2   BANK3   BANK4   BANK5   BANK6
  4556 ;;      Params:         0       0       0       0       0       0       0       0
  4557 ;;      Locals:         0       0       0       0       0       0       0       0
  4558 ;;      Temps:          0       0       0       0       0       0       0       0
  4559 ;;      Totals:         0       0       0       0       0       0       0       0
  4560 ;;Total ram usage:        0 bytes
  4561 ;; Hardware stack levels used: 1
  4562 ;; Hardware stack levels required when called: 3
  4563 ;; This function calls:
  4564 ;;		Nothing
  4565 ;; This function is called by:
  4566 ;;		_debounce_IO
  4567 ;; This function uses a non-reentrant model
  4568 ;;
  4569                           
  4570     070B                     _is_DRL:	
  4571                           ;psect for function _is_DRL
  4572                           
  4573     070B                     l2274:	
  4574                           ;incstack = 0
  4575                           ; Regs used in _is_DRL: [wreg+status,2+status,0]
  4576                           
  4577     070B  0020               	movlb	0	; select bank0
  4578     070C  0E0D               	swapf	13,w	;volatile
  4579     070D  3901               	andlw	1
  4580     070E                     l367:
  4581     070E  0008               	return
  4582     070F                     __end_of_is_DRL:
  4583                           
  4584                           	psect	text31
  4585     0614                     __ptext31:	
  4586 ;; *************** function _check_welcome_signal *****************
  4587 ;; Defined at:
  4588 ;;		line 111 in file "LED.c"
  4589 ;; Parameters:    Size  Location     Type
  4590 ;;		None
  4591 ;; Auto vars:     Size  Location     Type
  4592 ;;		None
  4593 ;; Return value:  Size  Location     Type
  4594 ;;                  1    wreg      void 
  4595 ;; Registers used:
  4596 ;;		wreg, status,2, status,0
  4597 ;; Tracked objects:
  4598 ;;		On entry : 0/0
  4599 ;;		On exit  : 0/0
  4600 ;;		Unchanged: 0/0
  4601 ;; Data sizes:     COMMON   BANK0   BANK1   BANK2   BANK3   BANK4   BANK5   BANK6
  4602 ;;      Params:         0       0       0       0       0       0       0       0
  4603 ;;      Locals:         0       0       0       0       0       0       0       0
  4604 ;;      Temps:          0       0       0       0       0       0       0       0
  4605 ;;      Totals:         0       0       0       0       0       0       0       0
  4606 ;;Total ram usage:        0 bytes
  4607 ;; Hardware stack levels used: 1
  4608 ;; Hardware stack levels required when called: 3
  4609 ;; This function calls:
  4610 ;;		Nothing
  4611 ;; This function is called by:
  4612 ;;		_LED_main
  4613 ;; This function uses a non-reentrant model
  4614 ;;
  4615                           
  4616     0614                     _check_welcome_signal:	
  4617                           ;psect for function _check_welcome_signal
  4618                           
  4619     0614                     l2794:	
  4620                           ;incstack = 0
  4621                           ; Regs used in _check_welcome_signal: [wreg+status,2+status,0]
  4622                           
  4623                           
  4624                           ;LED.c: 113:   if (fturn_off_600ms) {
  4625     0614  0020               	movlb	0	; select bank0
  4626     0615  0829               	movf	_fturn_off_600ms,w
  4627     0616  1903               	btfsc	3,2
  4628     0617  2E19               	goto	u1601
  4629     0618  2E1A               	goto	u1600
  4630     0619                     u1601:
  4631     0619  2E23               	goto	l304
  4632     061A                     u1600:
  4633     061A                     l2796:
  4634                           
  4635                           ;LED.c: 114:     if (turn_fall_edge_cnt == 2) {
  4636     061A  3002               	movlw	2
  4637     061B  062A               	xorwf	_turn_fall_edge_cnt,w
  4638     061C  1D03               	btfss	3,2
  4639     061D  2E1F               	goto	u1611
  4640     061E  2E20               	goto	u1610
  4641     061F                     u1611:
  4642     061F  2E22               	goto	l2800
  4643     0620                     u1610:
  4644     0620                     l2798:
  4645                           
  4646                           ;LED.c: 115:       fWelcome_light = 1;
  4647     0620  01F9               	clrf	_fWelcome_light
  4648     0621  0AF9               	incf	_fWelcome_light,f
  4649     0622                     l2800:
  4650                           
  4651                           ;LED.c: 117:     turn_fall_edge_cnt = 0;
  4652     0622  01AA               	clrf	_turn_fall_edge_cnt
  4653     0623                     l304:
  4654     0623  0008               	return
  4655     0624                     __end_of_check_welcome_signal:
  4656                           
  4657                           	psect	text32
  4658     002E                     __ptext32:	
  4659 ;; *************** function _check_welcome_light *****************
  4660 ;; Defined at:
  4661 ;;		line 573 in file "LED.c"
  4662 ;; Parameters:    Size  Location     Type
  4663 ;;		None
  4664 ;; Auto vars:     Size  Location     Type
  4665 ;;		None
  4666 ;; Return value:  Size  Location     Type
  4667 ;;                  1    wreg      void 
  4668 ;; Registers used:
  4669 ;;		wreg, fsr0l, fsr0h, status,2, status,0, pclath, cstack
  4670 ;; Tracked objects:
  4671 ;;		On entry : 0/0
  4672 ;;		On exit  : 0/0
  4673 ;;		Unchanged: 0/0
  4674 ;; Data sizes:     COMMON   BANK0   BANK1   BANK2   BANK3   BANK4   BANK5   BANK6
  4675 ;;      Params:         0       0       0       0       0       0       0       0
  4676 ;;      Locals:         0       0       0       0       0       0       0       0
  4677 ;;      Temps:          2       0       0       0       0       0       0       0
  4678 ;;      Totals:         2       0       0       0       0       0       0       0
  4679 ;;Total ram usage:        2 bytes
  4680 ;; Hardware stack levels used: 1
  4681 ;; Hardware stack levels required when called: 6
  4682 ;; This function calls:
  4683 ;;		_all_led_off
  4684 ;;		_delay_ms
  4685 ;;		_white_fad_out
  4686 ;;		_yellow_seg1_backward
  4687 ;;		_yellow_seg1_forward
  4688 ;;		_yellow_seg2_backward
  4689 ;;		_yellow_seg2_forward
  4690 ;;		_yellow_seg3_backward
  4691 ;;		_yellow_seg3_forward
  4692 ;;		_yellow_seg4_backward
  4693 ;;		_yellow_seg4_forward
  4694 ;;		_yellow_seg5_backward
  4695 ;;		_yellow_seg5_forward
  4696 ;;		_yellow_seg6_backward
  4697 ;;		_yellow_seg6_forward
  4698 ;;		_yellow_seg7_backward
  4699 ;;		_yellow_seg7_forward
  4700 ;;		_yellow_to_white
  4701 ;; This function is called by:
  4702 ;;		_LED_main
  4703 ;; This function uses a non-reentrant model
  4704 ;;
  4705                           
  4706     002E                     _check_welcome_light:	
  4707                           ;psect for function _check_welcome_light
  4708                           
  4709     002E                     l2918:	
  4710                           ;incstack = 0
  4711                           ; Regs used in _check_welcome_light: [wreg-fsr0h+status,2+status,0+pclath+cstack]
  4712                           
  4713                           
  4714                           ;LED.c: 575:   switch (eWelcome_step) {
  4715     002E  28B1               	goto	l3034
  4716     002F                     l2920:
  4717                           
  4718                           ;LED.c: 577:     all_led_off();
  4719     002F  3186  2691  3180   	fcall	_all_led_off
  4720     0032                     l2922:
  4721                           
  4722                           ;LED.c: 578:     eWelcome_step++;
  4723     0032  3001               	movlw	1
  4724     0033  00F5               	movwf	??_check_welcome_light
  4725     0034  0875               	movf	??_check_welcome_light,w
  4726     0035  0020               	movlb	0	; select bank0
  4727     0036  07AF               	addwf	_eWelcome_step,f
  4728     0037                     l2924:
  4729                           
  4730                           ;LED.c: 579:     welcome_1ms_cnt = 0;
  4731     0037  3000               	movlw	0
  4732     0038  00A3               	movwf	_welcome_1ms_cnt+3
  4733     0039  3000               	movlw	0
  4734     003A  00A2               	movwf	_welcome_1ms_cnt+2
  4735     003B  3000               	movlw	0
  4736     003C  00A1               	movwf	_welcome_1ms_cnt+1
  4737     003D  3000               	movlw	0
  4738     003E  00A0               	movwf	_welcome_1ms_cnt
  4739                           
  4740                           ;LED.c: 580:     break;
  4741     003F  2904               	goto	l582
  4742     0040                     l2926:
  4743                           
  4744                           ;LED.c: 584:     yellow_seg1_forward();
  4745     0040  3185  2501  3180   	fcall	_yellow_seg1_forward
  4746     0043                     l2928:
  4747                           
  4748                           ;LED.c: 585:     eWelcome_step++;
  4749     0043  3001               	movlw	1
  4750     0044  00F5               	movwf	??_check_welcome_light
  4751     0045  0875               	movf	??_check_welcome_light,w
  4752     0046  0020               	movlb	0	; select bank0
  4753     0047  07AF               	addwf	_eWelcome_step,f
  4754                           
  4755                           ;LED.c: 586:     break;
  4756     0048  2904               	goto	l582
  4757     0049                     l2930:
  4758                           
  4759                           ;LED.c: 589:     yellow_seg2_forward();
  4760     0049  3184  24A5  3180   	fcall	_yellow_seg2_forward
  4761     004C  2843               	goto	l2928
  4762     004D                     l2934:
  4763                           
  4764                           ;LED.c: 594:     yellow_seg3_forward();
  4765     004D  3183  232C  3180   	fcall	_yellow_seg3_forward
  4766     0050  2843               	goto	l2928
  4767     0051                     l2938:
  4768                           
  4769                           ;LED.c: 599:     yellow_seg4_forward();
  4770     0051  3184  2449  3180   	fcall	_yellow_seg4_forward
  4771     0054  2843               	goto	l2928
  4772     0055                     l2942:
  4773                           
  4774                           ;LED.c: 603:     yellow_seg5_forward();
  4775     0055  3182  22CA  3180   	fcall	_yellow_seg5_forward
  4776     0058  2843               	goto	l2928
  4777     0059                     l2946:
  4778                           
  4779                           ;LED.c: 607:     yellow_seg6_forward();
  4780     0059  3183  23ED  3180   	fcall	_yellow_seg6_forward
  4781     005C  2843               	goto	l2928
  4782     005D                     l2950:
  4783                           
  4784                           ;LED.c: 611:     yellow_seg7_forward();
  4785     005D  3182  2299  3180   	fcall	_yellow_seg7_forward
  4786     0060  2843               	goto	l2928
  4787     0061                     l2954:
  4788                           
  4789                           ;LED.c: 619:     yellow_seg1_backward();
  4790     0061  3183  238E  3180   	fcall	_yellow_seg1_backward
  4791     0064  2843               	goto	l2928
  4792     0065                     l2958:
  4793                           
  4794                           ;LED.c: 624:     yellow_seg2_backward();
  4795     0065  3184  24D3  3180   	fcall	_yellow_seg2_backward
  4796     0068  2843               	goto	l2928
  4797     0069                     l2962:
  4798                           
  4799                           ;LED.c: 629:     yellow_seg3_backward();
  4800     0069  3183  235D  3180   	fcall	_yellow_seg3_backward
  4801     006C  2843               	goto	l2928
  4802     006D                     l2966:
  4803                           
  4804                           ;LED.c: 633:     yellow_seg4_backward();
  4805     006D  3184  2477  3180   	fcall	_yellow_seg4_backward
  4806     0070  2843               	goto	l2928
  4807     0071                     l2970:
  4808                           
  4809                           ;LED.c: 637:     yellow_seg5_backward();
  4810     0071  3182  22FB  3180   	fcall	_yellow_seg5_backward
  4811     0074  2843               	goto	l2928
  4812     0075                     l2974:
  4813                           
  4814                           ;LED.c: 641:     yellow_seg6_backward();
  4815     0075  3184  241B  3180   	fcall	_yellow_seg6_backward
  4816     0078  2843               	goto	l2928
  4817     0079                     l2978:
  4818                           
  4819                           ;LED.c: 646:     yellow_seg7_backward();
  4820     0079  3183  23BF  3180   	fcall	_yellow_seg7_backward
  4821                           
  4822                           ;LED.c: 647:     delay_ms(250);
  4823     007C  30FA               	movlw	250
  4824     007D  00F0               	movwf	delay_ms@ms
  4825     007E  3000               	movlw	0
  4826     007F  00F1               	movwf	delay_ms@ms+1
  4827     0080  3185  255A  3180   	fcall	_delay_ms
  4828     0083  2843               	goto	l2928
  4829     0084                     l3010:
  4830                           
  4831                           ;LED.c: 688:     yellow_to_white();
  4832     0084  3182  2265  3180   	fcall	_yellow_to_white
  4833     0087  2843               	goto	l2928
  4834     0088                     l576:	
  4835                           ;LED.c: 693:   case WELCOME_STEP_23:
  4836                           
  4837                           
  4838                           ;LED.c: 695:     if (ORB.TURN || ORB.DRL || ORB.POS) {
  4839     0088  187A               	btfsc	_ORB,0
  4840     0089  288B               	goto	u1751
  4841     008A  288C               	goto	u1750
  4842     008B                     u1751:
  4843     008B  2894               	goto	l3018
  4844     008C                     u1750:
  4845     008C                     l3014:
  4846     008C  18FA               	btfsc	_ORB,1
  4847     008D  288F               	goto	u1761
  4848     008E  2890               	goto	u1760
  4849     008F                     u1761:
  4850     008F  2894               	goto	l3018
  4851     0090                     u1760:
  4852     0090                     l3016:
  4853     0090  1D7A               	btfss	_ORB,2
  4854     0091  2893               	goto	u1771
  4855     0092  2894               	goto	u1770
  4856     0093                     u1771:
  4857     0093  289A               	goto	l3024
  4858     0094                     u1770:
  4859     0094                     l3018:
  4860                           
  4861                           ;LED.c: 696:       fWelcome_light = 0;
  4862     0094  01F9               	clrf	_fWelcome_light
  4863     0095                     l3020:
  4864                           
  4865                           ;LED.c: 697:       fWelcome_light_disable = 1;
  4866     0095  01AE               	clrf	_fWelcome_light_disable
  4867     0096  0AAE               	incf	_fWelcome_light_disable,f
  4868     0097                     l3022:
  4869                           
  4870                           ;LED.c: 698:       all_led_off();
  4871     0097  3186  2691  3180   	fcall	_all_led_off
  4872     009A                     l3024:
  4873                           
  4874                           ;LED.c: 701:     if (welcome_1ms_cnt >= 15000) {
  4875     009A  0020               	movlb	0	; select bank0
  4876     009B  0823               	movf	_welcome_1ms_cnt+3,w
  4877     009C  1D03               	btfss	3,2
  4878     009D  28A9               	goto	u1780
  4879     009E  0822               	movf	_welcome_1ms_cnt+2,w
  4880     009F  1D03               	btfss	3,2
  4881     00A0  28A9               	goto	u1780
  4882     00A1  3098               	movlw	152
  4883     00A2  0220               	subwf	_welcome_1ms_cnt,w
  4884     00A3  303A               	movlw	58
  4885     00A4  3B21               	subwfb	_welcome_1ms_cnt+1,w
  4886     00A5  1C03               	btfss	3,0
  4887     00A6  28A8               	goto	u1781
  4888     00A7  28A9               	goto	u1780
  4889     00A8                     u1781:
  4890     00A8  2904               	goto	l582
  4891     00A9                     u1780:
  4892     00A9                     l3026:
  4893                           
  4894                           ;LED.c: 703:       fWelcome_light = 0;
  4895     00A9  01F9               	clrf	_fWelcome_light
  4896     00AA                     l3028:
  4897                           
  4898                           ;LED.c: 704:       fWelcome_light_disable = 1;
  4899     00AA  0020               	movlb	0	; select bank0
  4900     00AB  01AE               	clrf	_fWelcome_light_disable
  4901     00AC  0AAE               	incf	_fWelcome_light_disable,f
  4902     00AD                     l3030:
  4903                           
  4904                           ;LED.c: 705:       white_fad_out();
  4905     00AD  3185  252F  3180   	fcall	_white_fad_out
  4906     00B0  2904               	goto	l582
  4907     00B1                     l3034:
  4908     00B1  0020               	movlb	0	; select bank0
  4909     00B2  082F               	movf	_eWelcome_step,w
  4910     00B3  00F5               	movwf	??_check_welcome_light
  4911     00B4  01F6               	clrf	??_check_welcome_light+1
  4912                           
  4913                           ; Switch on 2 bytes has been partitioned into a top level switch of size 1, and 1 sub-sw
      +                          itches
  4914                           ; Switch size 1, requested type "simple"
  4915                           ; Number of cases is 1, Range of values is 0 to 0
  4916                           ; switch strategies available:
  4917                           ; Name         Instructions Cycles
  4918                           ; simple_byte            4     3 (average)
  4919                           ; direct_byte            8     6 (fixed)
  4920                           ; jumptable            260     6 (fixed)
  4921                           ;	Chosen strategy is simple_byte
  4922     00B5  0876               	movf	??_check_welcome_light+1,w
  4923     00B6  3A00               	xorlw	0	; case 0
  4924     00B7  1903               	skipnz
  4925     00B8  28BA               	goto	l3210
  4926     00B9  2904               	goto	l582
  4927     00BA                     l3210:
  4928                           
  4929                           ; Switch size 1, requested type "simple"
  4930                           ; Number of cases is 24, Range of values is 0 to 23
  4931                           ; switch strategies available:
  4932                           ; Name         Instructions Cycles
  4933                           ; direct_byte           54     6 (fixed)
  4934                           ; simple_byte           73    37 (average)
  4935                           ; jumptable            260     6 (fixed)
  4936                           ;	Chosen strategy is simple_byte
  4937     00BA  0875               	movf	??_check_welcome_light,w
  4938     00BB  3A00               	xorlw	0	; case 0
  4939     00BC  1903               	skipnz
  4940     00BD  282F               	goto	l2920
  4941     00BE  3A01               	xorlw	1	; case 1
  4942     00BF  1903               	skipnz
  4943     00C0  2840               	goto	l2926
  4944     00C1  3A03               	xorlw	3	; case 2
  4945     00C2  1903               	skipnz
  4946     00C3  2849               	goto	l2930
  4947     00C4  3A01               	xorlw	1	; case 3
  4948     00C5  1903               	skipnz
  4949     00C6  284D               	goto	l2934
  4950     00C7  3A07               	xorlw	7	; case 4
  4951     00C8  1903               	skipnz
  4952     00C9  2851               	goto	l2938
  4953     00CA  3A01               	xorlw	1	; case 5
  4954     00CB  1903               	skipnz
  4955     00CC  2855               	goto	l2942
  4956     00CD  3A03               	xorlw	3	; case 6
  4957     00CE  1903               	skipnz
  4958     00CF  2859               	goto	l2946
  4959     00D0  3A01               	xorlw	1	; case 7
  4960     00D1  1903               	skipnz
  4961     00D2  285D               	goto	l2950
  4962     00D3  3A0F               	xorlw	15	; case 8
  4963     00D4  1903               	skipnz
  4964     00D5  2861               	goto	l2954
  4965     00D6  3A01               	xorlw	1	; case 9
  4966     00D7  1903               	skipnz
  4967     00D8  2865               	goto	l2958
  4968     00D9  3A03               	xorlw	3	; case 10
  4969     00DA  1903               	skipnz
  4970     00DB  2869               	goto	l2962
  4971     00DC  3A01               	xorlw	1	; case 11
  4972     00DD  1903               	skipnz
  4973     00DE  286D               	goto	l2966
  4974     00DF  3A07               	xorlw	7	; case 12
  4975     00E0  1903               	skipnz
  4976     00E1  2871               	goto	l2970
  4977     00E2  3A01               	xorlw	1	; case 13
  4978     00E3  1903               	skipnz
  4979     00E4  2875               	goto	l2974
  4980     00E5  3A03               	xorlw	3	; case 14
  4981     00E6  1903               	skipnz
  4982     00E7  2879               	goto	l2978
  4983     00E8  3A01               	xorlw	1	; case 15
  4984     00E9  1903               	skipnz
  4985     00EA  2840               	goto	l2926
  4986     00EB  3A1F               	xorlw	31	; case 16
  4987     00EC  1903               	skipnz
  4988     00ED  2849               	goto	l2930
  4989     00EE  3A01               	xorlw	1	; case 17
  4990     00EF  1903               	skipnz
  4991     00F0  284D               	goto	l2934
  4992     00F1  3A03               	xorlw	3	; case 18
  4993     00F2  1903               	skipnz
  4994     00F3  2851               	goto	l2938
  4995     00F4  3A01               	xorlw	1	; case 19
  4996     00F5  1903               	skipnz
  4997     00F6  2855               	goto	l2942
  4998     00F7  3A07               	xorlw	7	; case 20
  4999     00F8  1903               	skipnz
  5000     00F9  2859               	goto	l2946
  5001     00FA  3A01               	xorlw	1	; case 21
  5002     00FB  1903               	skipnz
  5003     00FC  285D               	goto	l2950
  5004     00FD  3A03               	xorlw	3	; case 22
  5005     00FE  1903               	skipnz
  5006     00FF  2884               	goto	l3010
  5007     0100  3A01               	xorlw	1	; case 23
  5008     0101  1903               	skipnz
  5009     0102  2888               	goto	l576
  5010     0103  2904               	goto	l582
  5011     0104                     l582:
  5012     0104  0008               	return
  5013     0105                     __end_of_check_welcome_light:
  5014                           
  5015                           	psect	text33
  5016     0265                     __ptext33:	
  5017 ;; *************** function _yellow_to_white *****************
  5018 ;; Defined at:
  5019 ;;		line 218 in file "LED.c"
  5020 ;; Parameters:    Size  Location     Type
  5021 ;;		None
  5022 ;; Auto vars:     Size  Location     Type
  5023 ;;  ii              1    3[COMMON] unsigned char 
  5024 ;;  pwm_idx         1    4[COMMON] char 
  5025 ;; Return value:  Size  Location     Type
  5026 ;;                  1    wreg      void 
  5027 ;; Registers used:
  5028 ;;		wreg, status,2, status,0, pclath, cstack
  5029 ;; Tracked objects:
  5030 ;;		On entry : 0/0
  5031 ;;		On exit  : 0/0
  5032 ;;		Unchanged: 0/0
  5033 ;; Data sizes:     COMMON   BANK0   BANK1   BANK2   BANK3   BANK4   BANK5   BANK6
  5034 ;;      Params:         0       0       0       0       0       0       0       0
  5035 ;;      Locals:         2       0       0       0       0       0       0       0
  5036 ;;      Temps:          1       0       0       0       0       0       0       0
  5037 ;;      Totals:         3       0       0       0       0       0       0       0
  5038 ;;Total ram usage:        3 bytes
  5039 ;; Hardware stack levels used: 1
  5040 ;; Hardware stack levels required when called: 4
  5041 ;; This function calls:
  5042 ;;		_all_white_led_turn_off
  5043 ;;		_all_white_led_turn_on
  5044 ;;		_all_yellow_led_turn_off
  5045 ;;		_all_yellow_led_turn_on
  5046 ;;		_delay_us
  5047 ;; This function is called by:
  5048 ;;		_check_welcome_light
  5049 ;; This function uses a non-reentrant model
  5050 ;;
  5051                           
  5052     0265                     _yellow_to_white:	
  5053                           ;psect for function _yellow_to_white
  5054                           
  5055     0265                     l2312:	
  5056                           ;incstack = 0
  5057                           ; Regs used in _yellow_to_white: [wreg+status,2+status,0+pclath+cstack]
  5058                           
  5059                           
  5060                           ;LED.c: 219:   for (int8_t pwm_idx = 10; pwm_idx >= 0; pwm_idx--) {
  5061     0265  300A               	movlw	10
  5062     0266  00F4               	movwf	yellow_to_white@pwm_idx
  5063     0267                     l392:
  5064                           
  5065                           ;LED.c: 220:     if (PORTBbits.RB1)
  5066     0267  0020               	movlb	0	; select bank0
  5067     0268  1C8D               	btfss	13,1	;volatile
  5068     0269  2A6B               	goto	u1011
  5069     026A  2A6C               	goto	u1010
  5070     026B                     u1011:
  5071     026B  2A6D               	goto	l2320
  5072     026C                     u1010:
  5073     026C  2A95               	goto	l2344
  5074     026D                     l2320:
  5075                           
  5076                           ;LED.c: 222:     for (uint8_t ii = 0; ii < 50; ii++) {
  5077     026D  01F3               	clrf	yellow_to_white@ii
  5078     026E                     l2326:
  5079                           
  5080                           ;LED.c: 223:       all_yellow_led_turn_on();
  5081     026E  3186  26B3  3182   	fcall	_all_yellow_led_turn_on
  5082     0271                     l2328:
  5083                           
  5084                           ;LED.c: 224:       all_white_led_turn_off();
  5085     0271  3187  2724  3182   	fcall	_all_white_led_turn_off
  5086     0274                     l2330:
  5087                           
  5088                           ;LED.c: 225:       delay_us(pwm_idx);
  5089     0274  0874               	movf	yellow_to_white@pwm_idx,w
  5090     0275  3186  2602  3182   	fcall	_delay_us
  5091     0278                     l2332:
  5092                           
  5093                           ;LED.c: 226:       all_yellow_led_turn_off();
  5094     0278  3186  26CA  3182   	fcall	_all_yellow_led_turn_off
  5095     027B                     l2334:
  5096                           
  5097                           ;LED.c: 227:       all_white_led_turn_on();
  5098     027B  3187  2721  3182   	fcall	_all_white_led_turn_on
  5099                           
  5100                           ;LED.c: 228:       delay_us(10 - pwm_idx);
  5101     027E  0874               	movf	yellow_to_white@pwm_idx,w
  5102     027F  3C0A               	sublw	10
  5103     0280  3186  2602  3182   	fcall	_delay_us
  5104     0283                     l2336:
  5105                           
  5106                           ;LED.c: 229:     }
  5107     0283  3001               	movlw	1
  5108     0284  00F2               	movwf	??_yellow_to_white
  5109     0285  0872               	movf	??_yellow_to_white,w
  5110     0286  07F3               	addwf	yellow_to_white@ii,f
  5111     0287                     l2338:
  5112     0287  3032               	movlw	50
  5113     0288  0273               	subwf	yellow_to_white@ii,w
  5114     0289  1C03               	skipc
  5115     028A  2A8C               	goto	u1021
  5116     028B  2A8D               	goto	u1020
  5117     028C                     u1021:
  5118     028C  2A6E               	goto	l2326
  5119     028D                     u1020:
  5120     028D                     l2340:
  5121                           
  5122                           ;LED.c: 230:   }
  5123     028D  30FF               	movlw	255
  5124     028E  00F2               	movwf	??_yellow_to_white
  5125     028F  0872               	movf	??_yellow_to_white,w
  5126     0290  07F4               	addwf	yellow_to_white@pwm_idx,f
  5127     0291                     l2342:
  5128     0291  1FF4               	btfss	yellow_to_white@pwm_idx,7
  5129     0292  2A94               	goto	u1031
  5130     0293  2A95               	goto	u1030
  5131     0294                     u1031:
  5132     0294  2A67               	goto	l392
  5133     0295                     u1030:
  5134     0295                     l2344:
  5135                           
  5136                           ;LED.c: 231:   all_white_led_turn_on();
  5137     0295  3187  2721  3182   	fcall	_all_white_led_turn_on
  5138     0298                     l397:
  5139     0298  0008               	return
  5140     0299                     __end_of_yellow_to_white:
  5141                           
  5142                           	psect	text34
  5143     0299                     __ptext34:	
  5144 ;; *************** function _yellow_seg7_forward *****************
  5145 ;; Defined at:
  5146 ;;		line 347 in file "LED.c"
  5147 ;; Parameters:    Size  Location     Type
  5148 ;;		None
  5149 ;; Auto vars:     Size  Location     Type
  5150 ;;  ii              1    3[COMMON] unsigned char 
  5151 ;;  pwm_idx         1    4[COMMON] char 
  5152 ;; Return value:  Size  Location     Type
  5153 ;;                  1    wreg      void 
  5154 ;; Registers used:
  5155 ;;		wreg, status,2, status,0, pclath, cstack
  5156 ;; Tracked objects:
  5157 ;;		On entry : 0/0
  5158 ;;		On exit  : 0/0
  5159 ;;		Unchanged: 0/0
  5160 ;; Data sizes:     COMMON   BANK0   BANK1   BANK2   BANK3   BANK4   BANK5   BANK6
  5161 ;;      Params:         0       0       0       0       0       0       0       0
  5162 ;;      Locals:         2       0       0       0       0       0       0       0
  5163 ;;      Temps:          1       0       0       0       0       0       0       0
  5164 ;;      Totals:         3       0       0       0       0       0       0       0
  5165 ;;Total ram usage:        3 bytes
  5166 ;; Hardware stack levels used: 1
  5167 ;; Hardware stack levels required when called: 4
  5168 ;; This function calls:
  5169 ;;		_delay_us
  5170 ;; This function is called by:
  5171 ;;		_check_welcome_light
  5172 ;; This function uses a non-reentrant model
  5173 ;;
  5174                           
  5175     0299                     _yellow_seg7_forward:	
  5176                           ;psect for function _yellow_seg7_forward
  5177                           
  5178     0299                     l2534:	
  5179                           ;incstack = 0
  5180                           ; Regs used in _yellow_seg7_forward: [wreg+status,2+status,0+pclath+cstack]
  5181                           
  5182                           
  5183                           ;LED.c: 348:   for (int8_t pwm_idx = 1; pwm_idx <= 10; pwm_idx++) {
  5184     0299  01F4               	clrf	yellow_seg7_forward@pwm_idx
  5185     029A  0AF4               	incf	yellow_seg7_forward@pwm_idx,f
  5186     029B                     l456:
  5187                           
  5188                           ;LED.c: 349:     if (PORTBbits.RB1)
  5189     029B  0020               	movlb	0	; select bank0
  5190     029C  1C8D               	btfss	13,1	;volatile
  5191     029D  2A9F               	goto	u1251
  5192     029E  2AA0               	goto	u1250
  5193     029F                     u1251:
  5194     029F  2AA1               	goto	l2542
  5195     02A0                     u1250:
  5196     02A0  2AC6               	goto	l457
  5197     02A1                     l2542:
  5198                           
  5199                           ;LED.c: 351:     for (uint8_t ii = 0; ii < 7; ii++) {
  5200     02A1  01F3               	clrf	yellow_seg7_forward@ii
  5201     02A2                     l459:
  5202                           
  5203                           ;LED.c: 352:       LATAbits.LATA0 = 1;
  5204     02A2  0022               	movlb	2	; select bank2
  5205     02A3  140C               	bsf	12,0	;volatile
  5206                           
  5207                           ;LED.c: 353:       LATCbits.LATC0 = 1;
  5208     02A4  140E               	bsf	14,0	;volatile
  5209     02A5                     l2548:
  5210                           
  5211                           ;LED.c: 354:       delay_us(pwm_idx);
  5212     02A5  0874               	movf	yellow_seg7_forward@pwm_idx,w
  5213     02A6  3186  2602  3182   	fcall	_delay_us
  5214     02A9                     l2550:
  5215                           
  5216                           ;LED.c: 355:       LATAbits.LATA0 = 0;
  5217     02A9  0022               	movlb	2	; select bank2
  5218     02AA  100C               	bcf	12,0	;volatile
  5219     02AB                     l2552:
  5220                           
  5221                           ;LED.c: 356:       LATCbits.LATC0 = 0;
  5222     02AB  100E               	bcf	14,0	;volatile
  5223                           
  5224                           ;LED.c: 357:       delay_us(10 - pwm_idx);
  5225     02AC  0874               	movf	yellow_seg7_forward@pwm_idx,w
  5226     02AD  3C0A               	sublw	10
  5227     02AE  3186  2602  3182   	fcall	_delay_us
  5228     02B1                     l2554:
  5229                           
  5230                           ;LED.c: 358:     }
  5231     02B1  3001               	movlw	1
  5232     02B2  00F2               	movwf	??_yellow_seg7_forward
  5233     02B3  0872               	movf	??_yellow_seg7_forward,w
  5234     02B4  07F3               	addwf	yellow_seg7_forward@ii,f
  5235     02B5                     l2556:
  5236     02B5  3007               	movlw	7
  5237     02B6  0273               	subwf	yellow_seg7_forward@ii,w
  5238     02B7  1C03               	skipc
  5239     02B8  2ABA               	goto	u1261
  5240     02B9  2ABB               	goto	u1260
  5241     02BA                     u1261:
  5242     02BA  2AA2               	goto	l459
  5243     02BB                     u1260:
  5244     02BB                     l2558:
  5245                           
  5246                           ;LED.c: 359:   }
  5247     02BB  3001               	movlw	1
  5248     02BC  00F2               	movwf	??_yellow_seg7_forward
  5249     02BD  0872               	movf	??_yellow_seg7_forward,w
  5250     02BE  07F4               	addwf	yellow_seg7_forward@pwm_idx,f
  5251     02BF                     l2560:
  5252     02BF  0874               	movf	yellow_seg7_forward@pwm_idx,w
  5253     02C0  3A80               	xorlw	128
  5254     02C1  3E75               	addlw	-139
  5255     02C2  1C03               	skipc
  5256     02C3  2AC5               	goto	u1271
  5257     02C4  2AC6               	goto	u1270
  5258     02C5                     u1271:
  5259     02C5  2A9B               	goto	l456
  5260     02C6                     u1270:
  5261     02C6                     l457:
  5262                           
  5263                           ;LED.c: 360:   LATAbits.LATA0 = 1;
  5264     02C6  0022               	movlb	2	; select bank2
  5265     02C7  140C               	bsf	12,0	;volatile
  5266                           
  5267                           ;LED.c: 361:   LATCbits.LATC0 = 1;
  5268     02C8  140E               	bsf	14,0	;volatile
  5269     02C9                     l461:
  5270     02C9  0008               	return
  5271     02CA                     __end_of_yellow_seg7_forward:
  5272                           
  5273                           	psect	text35
  5274     03BF                     __ptext35:	
  5275 ;; *************** function _yellow_seg7_backward *****************
  5276 ;; Defined at:
  5277 ;;		line 464 in file "LED.c"
  5278 ;; Parameters:    Size  Location     Type
  5279 ;;		None
  5280 ;; Auto vars:     Size  Location     Type
  5281 ;;  ii              1    3[COMMON] unsigned char 
  5282 ;;  pwm_idx         1    4[COMMON] char 
  5283 ;; Return value:  Size  Location     Type
  5284 ;;                  1    wreg      void 
  5285 ;; Registers used:
  5286 ;;		wreg, status,2, status,0, pclath, cstack
  5287 ;; Tracked objects:
  5288 ;;		On entry : 0/0
  5289 ;;		On exit  : 0/0
  5290 ;;		Unchanged: 0/0
  5291 ;; Data sizes:     COMMON   BANK0   BANK1   BANK2   BANK3   BANK4   BANK5   BANK6
  5292 ;;      Params:         0       0       0       0       0       0       0       0
  5293 ;;      Locals:         2       0       0       0       0       0       0       0
  5294 ;;      Temps:          1       0       0       0       0       0       0       0
  5295 ;;      Totals:         3       0       0       0       0       0       0       0
  5296 ;;Total ram usage:        3 bytes
  5297 ;; Hardware stack levels used: 1
  5298 ;; Hardware stack levels required when called: 4
  5299 ;; This function calls:
  5300 ;;		_delay_us
  5301 ;; This function is called by:
  5302 ;;		_check_welcome_light
  5303 ;; This function uses a non-reentrant model
  5304 ;;
  5305                           
  5306     03BF                     _yellow_seg7_backward:	
  5307                           ;psect for function _yellow_seg7_backward
  5308                           
  5309     03BF                     l2712:	
  5310                           ;incstack = 0
  5311                           ; Regs used in _yellow_seg7_backward: [wreg+status,2+status,0+pclath+cstack]
  5312                           
  5313                           
  5314                           ;LED.c: 465:   for (int8_t pwm_idx = 10; pwm_idx > 0; pwm_idx--) {
  5315     03BF  300A               	movlw	10
  5316     03C0  00F4               	movwf	yellow_seg7_backward@pwm_idx
  5317     03C1                     l512:
  5318                           
  5319                           ;LED.c: 466:     if (PORTBbits.RB1)
  5320     03C1  0020               	movlb	0	; select bank0
  5321     03C2  1C8D               	btfss	13,1	;volatile
  5322     03C3  2BC5               	goto	u1461
  5323     03C4  2BC6               	goto	u1460
  5324     03C5                     u1461:
  5325     03C5  2BC7               	goto	l2718
  5326     03C6                     u1460:
  5327     03C6  2BEA               	goto	l513
  5328     03C7                     l2718:
  5329                           
  5330                           ;LED.c: 468:     for (uint8_t ii = 0; ii < 7; ii++) {
  5331     03C7  01F3               	clrf	yellow_seg7_backward@ii
  5332     03C8                     l515:
  5333                           
  5334                           ;LED.c: 469:       LATCbits.LATC1 = 1;
  5335     03C8  0022               	movlb	2	; select bank2
  5336     03C9  148E               	bsf	14,1	;volatile
  5337     03CA                     l2724:
  5338                           
  5339                           ;LED.c: 470:       delay_us(pwm_idx);
  5340     03CA  0874               	movf	yellow_seg7_backward@pwm_idx,w
  5341     03CB  3186  2602  3183   	fcall	_delay_us
  5342     03CE                     l2726:
  5343                           
  5344                           ;LED.c: 471:       LATCbits.LATC1 = 0;
  5345     03CE  0022               	movlb	2	; select bank2
  5346     03CF  108E               	bcf	14,1	;volatile
  5347                           
  5348                           ;LED.c: 472:       delay_us(10 - pwm_idx);
  5349     03D0  0874               	movf	yellow_seg7_backward@pwm_idx,w
  5350     03D1  3C0A               	sublw	10
  5351     03D2  3186  2602  3183   	fcall	_delay_us
  5352     03D5                     l2728:
  5353                           
  5354                           ;LED.c: 473:     }
  5355     03D5  3001               	movlw	1
  5356     03D6  00F2               	movwf	??_yellow_seg7_backward
  5357     03D7  0872               	movf	??_yellow_seg7_backward,w
  5358     03D8  07F3               	addwf	yellow_seg7_backward@ii,f
  5359     03D9                     l2730:
  5360     03D9  3007               	movlw	7
  5361     03DA  0273               	subwf	yellow_seg7_backward@ii,w
  5362     03DB  1C03               	skipc
  5363     03DC  2BDE               	goto	u1471
  5364     03DD  2BDF               	goto	u1470
  5365     03DE                     u1471:
  5366     03DE  2BC8               	goto	l515
  5367     03DF                     u1470:
  5368     03DF                     l2732:
  5369                           
  5370                           ;LED.c: 474:   }
  5371     03DF  30FF               	movlw	255
  5372     03E0  00F2               	movwf	??_yellow_seg7_backward
  5373     03E1  0872               	movf	??_yellow_seg7_backward,w
  5374     03E2  07F4               	addwf	yellow_seg7_backward@pwm_idx,f
  5375     03E3                     l2734:
  5376     03E3  0874               	movf	yellow_seg7_backward@pwm_idx,w
  5377     03E4  3A80               	xorlw	128
  5378     03E5  3E7F               	addlw	-129
  5379     03E6  1803               	skipnc
  5380     03E7  2BE9               	goto	u1481
  5381     03E8  2BEA               	goto	u1480
  5382     03E9                     u1481:
  5383     03E9  2BC1               	goto	l512
  5384     03EA                     u1480:
  5385     03EA                     l513:
  5386                           
  5387                           ;LED.c: 475:   LATCbits.LATC1 = 0;
  5388     03EA  0022               	movlb	2	; select bank2
  5389     03EB  108E               	bcf	14,1	;volatile
  5390     03EC                     l517:
  5391     03EC  0008               	return
  5392     03ED                     __end_of_yellow_seg7_backward:
  5393                           
  5394                           	psect	text36
  5395     03ED                     __ptext36:	
  5396 ;; *************** function _yellow_seg6_forward *****************
  5397 ;; Defined at:
  5398 ;;		line 332 in file "LED.c"
  5399 ;; Parameters:    Size  Location     Type
  5400 ;;		None
  5401 ;; Auto vars:     Size  Location     Type
  5402 ;;  ii              1    3[COMMON] unsigned char 
  5403 ;;  pwm_idx         1    4[COMMON] char 
  5404 ;; Return value:  Size  Location     Type
  5405 ;;                  1    wreg      void 
  5406 ;; Registers used:
  5407 ;;		wreg, status,2, status,0, pclath, cstack
  5408 ;; Tracked objects:
  5409 ;;		On entry : 0/0
  5410 ;;		On exit  : 0/0
  5411 ;;		Unchanged: 0/0
  5412 ;; Data sizes:     COMMON   BANK0   BANK1   BANK2   BANK3   BANK4   BANK5   BANK6
  5413 ;;      Params:         0       0       0       0       0       0       0       0
  5414 ;;      Locals:         2       0       0       0       0       0       0       0
  5415 ;;      Temps:          1       0       0       0       0       0       0       0
  5416 ;;      Totals:         3       0       0       0       0       0       0       0
  5417 ;;Total ram usage:        3 bytes
  5418 ;; Hardware stack levels used: 1
  5419 ;; Hardware stack levels required when called: 4
  5420 ;; This function calls:
  5421 ;;		_delay_us
  5422 ;; This function is called by:
  5423 ;;		_check_welcome_light
  5424 ;; This function uses a non-reentrant model
  5425 ;;
  5426                           
  5427     03ED                     _yellow_seg6_forward:	
  5428                           ;psect for function _yellow_seg6_forward
  5429                           
  5430     03ED                     l2508:	
  5431                           ;incstack = 0
  5432                           ; Regs used in _yellow_seg6_forward: [wreg+status,2+status,0+pclath+cstack]
  5433                           
  5434                           
  5435                           ;LED.c: 333:   for (int8_t pwm_idx = 1; pwm_idx <= 10; pwm_idx++) {
  5436     03ED  01F4               	clrf	yellow_seg6_forward@pwm_idx
  5437     03EE  0AF4               	incf	yellow_seg6_forward@pwm_idx,f
  5438     03EF                     l448:
  5439                           
  5440                           ;LED.c: 334:     if (PORTBbits.RB1)
  5441     03EF  0020               	movlb	0	; select bank0
  5442     03F0  1C8D               	btfss	13,1	;volatile
  5443     03F1  2BF3               	goto	u1221
  5444     03F2  2BF4               	goto	u1220
  5445     03F3                     u1221:
  5446     03F3  2BF5               	goto	l2516
  5447     03F4                     u1220:
  5448     03F4  2C18               	goto	l449
  5449     03F5                     l2516:
  5450                           
  5451                           ;LED.c: 336:     for (uint8_t ii = 0; ii < 7; ii++) {
  5452     03F5  01F3               	clrf	yellow_seg6_forward@ii
  5453     03F6                     l451:
  5454                           
  5455                           ;LED.c: 337:       LATAbits.LATA1 = 1;
  5456     03F6  0022               	movlb	2	; select bank2
  5457     03F7  148C               	bsf	12,1	;volatile
  5458     03F8                     l2522:
  5459                           
  5460                           ;LED.c: 338:       delay_us(pwm_idx);
  5461     03F8  0874               	movf	yellow_seg6_forward@pwm_idx,w
  5462     03F9  3186  2602  3183   	fcall	_delay_us
  5463     03FC                     l2524:
  5464                           
  5465                           ;LED.c: 339:       LATAbits.LATA1 = 0;
  5466     03FC  0022               	movlb	2	; select bank2
  5467     03FD  108C               	bcf	12,1	;volatile
  5468                           
  5469                           ;LED.c: 340:       delay_us(10 - pwm_idx);
  5470     03FE  0874               	movf	yellow_seg6_forward@pwm_idx,w
  5471     03FF  3C0A               	sublw	10
  5472     0400  3186  2602  3183   	fcall	_delay_us
  5473     0403                     l2526:
  5474                           
  5475                           ;LED.c: 341:     }
  5476     0403  3001               	movlw	1
  5477     0404  00F2               	movwf	??_yellow_seg6_forward
  5478     0405  0872               	movf	??_yellow_seg6_forward,w
  5479     0406  07F3               	addwf	yellow_seg6_forward@ii,f
  5480     0407                     l2528:
  5481     0407  3007               	movlw	7
  5482     0408  0273               	subwf	yellow_seg6_forward@ii,w
  5483     0409  1C03               	skipc
  5484     040A  2C0C               	goto	u1231
  5485     040B  2C0D               	goto	u1230
  5486     040C                     u1231:
  5487     040C  2BF6               	goto	l451
  5488     040D                     u1230:
  5489     040D                     l2530:
  5490                           
  5491                           ;LED.c: 342:   }
  5492     040D  3001               	movlw	1
  5493     040E  00F2               	movwf	??_yellow_seg6_forward
  5494     040F  0872               	movf	??_yellow_seg6_forward,w
  5495     0410  07F4               	addwf	yellow_seg6_forward@pwm_idx,f
  5496     0411                     l2532:
  5497     0411  0874               	movf	yellow_seg6_forward@pwm_idx,w
  5498     0412  3A80               	xorlw	128
  5499     0413  3E75               	addlw	-139
  5500     0414  1C03               	skipc
  5501     0415  2C17               	goto	u1241
  5502     0416  2C18               	goto	u1240
  5503     0417                     u1241:
  5504     0417  2BEF               	goto	l448
  5505     0418                     u1240:
  5506     0418                     l449:
  5507                           
  5508                           ;LED.c: 343:   LATAbits.LATA1 = 1;
  5509     0418  0022               	movlb	2	; select bank2
  5510     0419  148C               	bsf	12,1	;volatile
  5511     041A                     l453:
  5512     041A  0008               	return
  5513     041B                     __end_of_yellow_seg6_forward:
  5514                           
  5515                           	psect	text37
  5516     041B                     __ptext37:	
  5517 ;; *************** function _yellow_seg6_backward *****************
  5518 ;; Defined at:
  5519 ;;		line 449 in file "LED.c"
  5520 ;; Parameters:    Size  Location     Type
  5521 ;;		None
  5522 ;; Auto vars:     Size  Location     Type
  5523 ;;  ii              1    3[COMMON] unsigned char 
  5524 ;;  pwm_idx         1    4[COMMON] char 
  5525 ;; Return value:  Size  Location     Type
  5526 ;;                  1    wreg      void 
  5527 ;; Registers used:
  5528 ;;		wreg, status,2, status,0, pclath, cstack
  5529 ;; Tracked objects:
  5530 ;;		On entry : 0/0
  5531 ;;		On exit  : 0/0
  5532 ;;		Unchanged: 0/0
  5533 ;; Data sizes:     COMMON   BANK0   BANK1   BANK2   BANK3   BANK4   BANK5   BANK6
  5534 ;;      Params:         0       0       0       0       0       0       0       0
  5535 ;;      Locals:         2       0       0       0       0       0       0       0
  5536 ;;      Temps:          1       0       0       0       0       0       0       0
  5537 ;;      Totals:         3       0       0       0       0       0       0       0
  5538 ;;Total ram usage:        3 bytes
  5539 ;; Hardware stack levels used: 1
  5540 ;; Hardware stack levels required when called: 4
  5541 ;; This function calls:
  5542 ;;		_delay_us
  5543 ;; This function is called by:
  5544 ;;		_check_welcome_light
  5545 ;; This function uses a non-reentrant model
  5546 ;;
  5547                           
  5548     041B                     _yellow_seg6_backward:	
  5549                           ;psect for function _yellow_seg6_backward
  5550                           
  5551     041B                     l2688:	
  5552                           ;incstack = 0
  5553                           ; Regs used in _yellow_seg6_backward: [wreg+status,2+status,0+pclath+cstack]
  5554                           
  5555                           
  5556                           ;LED.c: 450:   for (int8_t pwm_idx = 10; pwm_idx > 0; pwm_idx--) {
  5557     041B  300A               	movlw	10
  5558     041C  00F4               	movwf	yellow_seg6_backward@pwm_idx
  5559     041D                     l504:
  5560                           
  5561                           ;LED.c: 451:     if (PORTBbits.RB1)
  5562     041D  0020               	movlb	0	; select bank0
  5563     041E  1C8D               	btfss	13,1	;volatile
  5564     041F  2C21               	goto	u1431
  5565     0420  2C22               	goto	u1430
  5566     0421                     u1431:
  5567     0421  2C23               	goto	l2694
  5568     0422                     u1430:
  5569     0422  2C46               	goto	l505
  5570     0423                     l2694:
  5571                           
  5572                           ;LED.c: 453:     for (uint8_t ii = 0; ii < 7; ii++) {
  5573     0423  01F3               	clrf	yellow_seg6_backward@ii
  5574     0424                     l507:
  5575                           
  5576                           ;LED.c: 454:       LATAbits.LATA5 = 1;
  5577     0424  0022               	movlb	2	; select bank2
  5578     0425  168C               	bsf	12,5	;volatile
  5579     0426                     l2700:
  5580                           
  5581                           ;LED.c: 455:       delay_us(pwm_idx);
  5582     0426  0874               	movf	yellow_seg6_backward@pwm_idx,w
  5583     0427  3186  2602  3184   	fcall	_delay_us
  5584     042A                     l2702:
  5585                           
  5586                           ;LED.c: 456:       LATAbits.LATA5 = 0;
  5587     042A  0022               	movlb	2	; select bank2
  5588     042B  128C               	bcf	12,5	;volatile
  5589                           
  5590                           ;LED.c: 457:       delay_us(10 - pwm_idx);
  5591     042C  0874               	movf	yellow_seg6_backward@pwm_idx,w
  5592     042D  3C0A               	sublw	10
  5593     042E  3186  2602  3184   	fcall	_delay_us
  5594     0431                     l2704:
  5595                           
  5596                           ;LED.c: 458:     }
  5597     0431  3001               	movlw	1
  5598     0432  00F2               	movwf	??_yellow_seg6_backward
  5599     0433  0872               	movf	??_yellow_seg6_backward,w
  5600     0434  07F3               	addwf	yellow_seg6_backward@ii,f
  5601     0435                     l2706:
  5602     0435  3007               	movlw	7
  5603     0436  0273               	subwf	yellow_seg6_backward@ii,w
  5604     0437  1C03               	skipc
  5605     0438  2C3A               	goto	u1441
  5606     0439  2C3B               	goto	u1440
  5607     043A                     u1441:
  5608     043A  2C24               	goto	l507
  5609     043B                     u1440:
  5610     043B                     l2708:
  5611                           
  5612                           ;LED.c: 459:   }
  5613     043B  30FF               	movlw	255
  5614     043C  00F2               	movwf	??_yellow_seg6_backward
  5615     043D  0872               	movf	??_yellow_seg6_backward,w
  5616     043E  07F4               	addwf	yellow_seg6_backward@pwm_idx,f
  5617     043F                     l2710:
  5618     043F  0874               	movf	yellow_seg6_backward@pwm_idx,w
  5619     0440  3A80               	xorlw	128
  5620     0441  3E7F               	addlw	-129
  5621     0442  1803               	skipnc
  5622     0443  2C45               	goto	u1451
  5623     0444  2C46               	goto	u1450
  5624     0445                     u1451:
  5625     0445  2C1D               	goto	l504
  5626     0446                     u1450:
  5627     0446                     l505:
  5628                           
  5629                           ;LED.c: 460:   LATAbits.LATA5 = 0;
  5630     0446  0022               	movlb	2	; select bank2
  5631     0447  128C               	bcf	12,5	;volatile
  5632     0448                     l509:
  5633     0448  0008               	return
  5634     0449                     __end_of_yellow_seg6_backward:
  5635                           
  5636                           	psect	text38
  5637     02CA                     __ptext38:	
  5638 ;; *************** function _yellow_seg5_forward *****************
  5639 ;; Defined at:
  5640 ;;		line 314 in file "LED.c"
  5641 ;; Parameters:    Size  Location     Type
  5642 ;;		None
  5643 ;; Auto vars:     Size  Location     Type
  5644 ;;  ii              1    3[COMMON] unsigned char 
  5645 ;;  pwm_idx         1    4[COMMON] char 
  5646 ;; Return value:  Size  Location     Type
  5647 ;;                  1    wreg      void 
  5648 ;; Registers used:
  5649 ;;		wreg, status,2, status,0, pclath, cstack
  5650 ;; Tracked objects:
  5651 ;;		On entry : 0/0
  5652 ;;		On exit  : 0/0
  5653 ;;		Unchanged: 0/0
  5654 ;; Data sizes:     COMMON   BANK0   BANK1   BANK2   BANK3   BANK4   BANK5   BANK6
  5655 ;;      Params:         0       0       0       0       0       0       0       0
  5656 ;;      Locals:         2       0       0       0       0       0       0       0
  5657 ;;      Temps:          1       0       0       0       0       0       0       0
  5658 ;;      Totals:         3       0       0       0       0       0       0       0
  5659 ;;Total ram usage:        3 bytes
  5660 ;; Hardware stack levels used: 1
  5661 ;; Hardware stack levels required when called: 4
  5662 ;; This function calls:
  5663 ;;		_delay_us
  5664 ;; This function is called by:
  5665 ;;		_check_welcome_light
  5666 ;; This function uses a non-reentrant model
  5667 ;;
  5668                           
  5669     02CA                     _yellow_seg5_forward:	
  5670                           ;psect for function _yellow_seg5_forward
  5671                           
  5672     02CA                     l2480:	
  5673                           ;incstack = 0
  5674                           ; Regs used in _yellow_seg5_forward: [wreg+status,2+status,0+pclath+cstack]
  5675                           
  5676                           
  5677                           ;LED.c: 315:   for (int8_t pwm_idx = 1; pwm_idx <= 10; pwm_idx++) {
  5678     02CA  01F4               	clrf	yellow_seg5_forward@pwm_idx
  5679     02CB  0AF4               	incf	yellow_seg5_forward@pwm_idx,f
  5680     02CC                     l440:
  5681                           
  5682                           ;LED.c: 316:     if (PORTBbits.RB1)
  5683     02CC  0020               	movlb	0	; select bank0
  5684     02CD  1C8D               	btfss	13,1	;volatile
  5685     02CE  2AD0               	goto	u1191
  5686     02CF  2AD1               	goto	u1190
  5687     02D0                     u1191:
  5688     02D0  2AD2               	goto	l2488
  5689     02D1                     u1190:
  5690     02D1  2AF7               	goto	l441
  5691     02D2                     l2488:
  5692                           
  5693                           ;LED.c: 318:     for (uint8_t ii = 0; ii < 7; ii++) {
  5694     02D2  01F3               	clrf	yellow_seg5_forward@ii
  5695     02D3                     l443:
  5696                           
  5697                           ;LED.c: 319:       LATAbits.LATA2 = 1;
  5698     02D3  0022               	movlb	2	; select bank2
  5699     02D4  150C               	bsf	12,2	;volatile
  5700                           
  5701                           ;LED.c: 320:       LATAbits.LATA6 = 1;
  5702     02D5  170C               	bsf	12,6	;volatile
  5703     02D6                     l2494:
  5704                           
  5705                           ;LED.c: 321:       delay_us(pwm_idx);
  5706     02D6  0874               	movf	yellow_seg5_forward@pwm_idx,w
  5707     02D7  3186  2602  3182   	fcall	_delay_us
  5708     02DA                     l2496:
  5709                           
  5710                           ;LED.c: 322:       LATAbits.LATA2 = 0;
  5711     02DA  0022               	movlb	2	; select bank2
  5712     02DB  110C               	bcf	12,2	;volatile
  5713     02DC                     l2498:
  5714                           
  5715                           ;LED.c: 323:       LATAbits.LATA6 = 0;
  5716     02DC  130C               	bcf	12,6	;volatile
  5717                           
  5718                           ;LED.c: 324:       delay_us(10 - pwm_idx);
  5719     02DD  0874               	movf	yellow_seg5_forward@pwm_idx,w
  5720     02DE  3C0A               	sublw	10
  5721     02DF  3186  2602  3182   	fcall	_delay_us
  5722     02E2                     l2500:
  5723                           
  5724                           ;LED.c: 325:     }
  5725     02E2  3001               	movlw	1
  5726     02E3  00F2               	movwf	??_yellow_seg5_forward
  5727     02E4  0872               	movf	??_yellow_seg5_forward,w
  5728     02E5  07F3               	addwf	yellow_seg5_forward@ii,f
  5729     02E6                     l2502:
  5730     02E6  3007               	movlw	7
  5731     02E7  0273               	subwf	yellow_seg5_forward@ii,w
  5732     02E8  1C03               	skipc
  5733     02E9  2AEB               	goto	u1201
  5734     02EA  2AEC               	goto	u1200
  5735     02EB                     u1201:
  5736     02EB  2AD3               	goto	l443
  5737     02EC                     u1200:
  5738     02EC                     l2504:
  5739                           
  5740                           ;LED.c: 326:   }
  5741     02EC  3001               	movlw	1
  5742     02ED  00F2               	movwf	??_yellow_seg5_forward
  5743     02EE  0872               	movf	??_yellow_seg5_forward,w
  5744     02EF  07F4               	addwf	yellow_seg5_forward@pwm_idx,f
  5745     02F0                     l2506:
  5746     02F0  0874               	movf	yellow_seg5_forward@pwm_idx,w
  5747     02F1  3A80               	xorlw	128
  5748     02F2  3E75               	addlw	-139
  5749     02F3  1C03               	skipc
  5750     02F4  2AF6               	goto	u1211
  5751     02F5  2AF7               	goto	u1210
  5752     02F6                     u1211:
  5753     02F6  2ACC               	goto	l440
  5754     02F7                     u1210:
  5755     02F7                     l441:
  5756                           
  5757                           ;LED.c: 327:   LATAbits.LATA2 = 1;
  5758     02F7  0022               	movlb	2	; select bank2
  5759     02F8  150C               	bsf	12,2	;volatile
  5760                           
  5761                           ;LED.c: 328:   LATAbits.LATA6 = 1;
  5762     02F9  170C               	bsf	12,6	;volatile
  5763     02FA                     l445:
  5764     02FA  0008               	return
  5765     02FB                     __end_of_yellow_seg5_forward:
  5766                           
  5767                           	psect	text39
  5768     02FB                     __ptext39:	
  5769 ;; *************** function _yellow_seg5_backward *****************
  5770 ;; Defined at:
  5771 ;;		line 431 in file "LED.c"
  5772 ;; Parameters:    Size  Location     Type
  5773 ;;		None
  5774 ;; Auto vars:     Size  Location     Type
  5775 ;;  ii              1    3[COMMON] unsigned char 
  5776 ;;  pwm_idx         1    4[COMMON] char 
  5777 ;; Return value:  Size  Location     Type
  5778 ;;                  1    wreg      void 
  5779 ;; Registers used:
  5780 ;;		wreg, status,2, status,0, pclath, cstack
  5781 ;; Tracked objects:
  5782 ;;		On entry : 0/0
  5783 ;;		On exit  : 0/0
  5784 ;;		Unchanged: 0/0
  5785 ;; Data sizes:     COMMON   BANK0   BANK1   BANK2   BANK3   BANK4   BANK5   BANK6
  5786 ;;      Params:         0       0       0       0       0       0       0       0
  5787 ;;      Locals:         2       0       0       0       0       0       0       0
  5788 ;;      Temps:          1       0       0       0       0       0       0       0
  5789 ;;      Totals:         3       0       0       0       0       0       0       0
  5790 ;;Total ram usage:        3 bytes
  5791 ;; Hardware stack levels used: 1
  5792 ;; Hardware stack levels required when called: 4
  5793 ;; This function calls:
  5794 ;;		_delay_us
  5795 ;; This function is called by:
  5796 ;;		_check_welcome_light
  5797 ;; This function uses a non-reentrant model
  5798 ;;
  5799                           
  5800     02FB                     _yellow_seg5_backward:	
  5801                           ;psect for function _yellow_seg5_backward
  5802                           
  5803     02FB                     l2662:	
  5804                           ;incstack = 0
  5805                           ; Regs used in _yellow_seg5_backward: [wreg+status,2+status,0+pclath+cstack]
  5806                           
  5807                           
  5808                           ;LED.c: 432:   for (int8_t pwm_idx = 10; pwm_idx > 0; pwm_idx--) {
  5809     02FB  300A               	movlw	10
  5810     02FC  00F4               	movwf	yellow_seg5_backward@pwm_idx
  5811     02FD                     l496:
  5812                           
  5813                           ;LED.c: 433:     if (PORTBbits.RB1)
  5814     02FD  0020               	movlb	0	; select bank0
  5815     02FE  1C8D               	btfss	13,1	;volatile
  5816     02FF  2B01               	goto	u1401
  5817     0300  2B02               	goto	u1400
  5818     0301                     u1401:
  5819     0301  2B03               	goto	l2668
  5820     0302                     u1400:
  5821     0302  2B28               	goto	l497
  5822     0303                     l2668:
  5823                           
  5824                           ;LED.c: 435:     for (uint8_t ii = 0; ii < 7; ii++) {
  5825     0303  01F3               	clrf	yellow_seg5_backward@ii
  5826     0304                     l499:
  5827                           
  5828                           ;LED.c: 436:       LATAbits.LATA4 = 1;
  5829     0304  0022               	movlb	2	; select bank2
  5830     0305  160C               	bsf	12,4	;volatile
  5831                           
  5832                           ;LED.c: 437:       LATAbits.LATA7 = 1;
  5833     0306  178C               	bsf	12,7	;volatile
  5834     0307                     l2674:
  5835                           
  5836                           ;LED.c: 438:       delay_us(pwm_idx);
  5837     0307  0874               	movf	yellow_seg5_backward@pwm_idx,w
  5838     0308  3186  2602  3182   	fcall	_delay_us
  5839     030B                     l2676:
  5840                           
  5841                           ;LED.c: 439:       LATAbits.LATA4 = 0;
  5842     030B  0022               	movlb	2	; select bank2
  5843     030C  120C               	bcf	12,4	;volatile
  5844     030D                     l2678:
  5845                           
  5846                           ;LED.c: 440:       LATAbits.LATA7 = 0;
  5847     030D  138C               	bcf	12,7	;volatile
  5848                           
  5849                           ;LED.c: 441:       delay_us(10 - pwm_idx);
  5850     030E  0874               	movf	yellow_seg5_backward@pwm_idx,w
  5851     030F  3C0A               	sublw	10
  5852     0310  3186  2602  3182   	fcall	_delay_us
  5853     0313                     l2680:
  5854                           
  5855                           ;LED.c: 442:     }
  5856     0313  3001               	movlw	1
  5857     0314  00F2               	movwf	??_yellow_seg5_backward
  5858     0315  0872               	movf	??_yellow_seg5_backward,w
  5859     0316  07F3               	addwf	yellow_seg5_backward@ii,f
  5860     0317                     l2682:
  5861     0317  3007               	movlw	7
  5862     0318  0273               	subwf	yellow_seg5_backward@ii,w
  5863     0319  1C03               	skipc
  5864     031A  2B1C               	goto	u1411
  5865     031B  2B1D               	goto	u1410
  5866     031C                     u1411:
  5867     031C  2B04               	goto	l499
  5868     031D                     u1410:
  5869     031D                     l2684:
  5870                           
  5871                           ;LED.c: 443:   }
  5872     031D  30FF               	movlw	255
  5873     031E  00F2               	movwf	??_yellow_seg5_backward
  5874     031F  0872               	movf	??_yellow_seg5_backward,w
  5875     0320  07F4               	addwf	yellow_seg5_backward@pwm_idx,f
  5876     0321                     l2686:
  5877     0321  0874               	movf	yellow_seg5_backward@pwm_idx,w
  5878     0322  3A80               	xorlw	128
  5879     0323  3E7F               	addlw	-129
  5880     0324  1803               	skipnc
  5881     0325  2B27               	goto	u1421
  5882     0326  2B28               	goto	u1420
  5883     0327                     u1421:
  5884     0327  2AFD               	goto	l496
  5885     0328                     u1420:
  5886     0328                     l497:
  5887                           
  5888                           ;LED.c: 444:   LATAbits.LATA4 = 0;
  5889     0328  0022               	movlb	2	; select bank2
  5890     0329  120C               	bcf	12,4	;volatile
  5891                           
  5892                           ;LED.c: 445:   LATAbits.LATA7 = 0;
  5893     032A  138C               	bcf	12,7	;volatile
  5894     032B                     l501:
  5895     032B  0008               	return
  5896     032C                     __end_of_yellow_seg5_backward:
  5897                           
  5898                           	psect	text40
  5899     0449                     __ptext40:	
  5900 ;; *************** function _yellow_seg4_forward *****************
  5901 ;; Defined at:
  5902 ;;		line 299 in file "LED.c"
  5903 ;; Parameters:    Size  Location     Type
  5904 ;;		None
  5905 ;; Auto vars:     Size  Location     Type
  5906 ;;  ii              1    3[COMMON] unsigned char 
  5907 ;;  pwm_idx         1    4[COMMON] char 
  5908 ;; Return value:  Size  Location     Type
  5909 ;;                  1    wreg      void 
  5910 ;; Registers used:
  5911 ;;		wreg, status,2, status,0, pclath, cstack
  5912 ;; Tracked objects:
  5913 ;;		On entry : 0/0
  5914 ;;		On exit  : 0/0
  5915 ;;		Unchanged: 0/0
  5916 ;; Data sizes:     COMMON   BANK0   BANK1   BANK2   BANK3   BANK4   BANK5   BANK6
  5917 ;;      Params:         0       0       0       0       0       0       0       0
  5918 ;;      Locals:         2       0       0       0       0       0       0       0
  5919 ;;      Temps:          1       0       0       0       0       0       0       0
  5920 ;;      Totals:         3       0       0       0       0       0       0       0
  5921 ;;Total ram usage:        3 bytes
  5922 ;; Hardware stack levels used: 1
  5923 ;; Hardware stack levels required when called: 4
  5924 ;; This function calls:
  5925 ;;		_delay_us
  5926 ;; This function is called by:
  5927 ;;		_check_welcome_light
  5928 ;; This function uses a non-reentrant model
  5929 ;;
  5930                           
  5931     0449                     _yellow_seg4_forward:	
  5932                           ;psect for function _yellow_seg4_forward
  5933                           
  5934     0449                     l2454:	
  5935                           ;incstack = 0
  5936                           ; Regs used in _yellow_seg4_forward: [wreg+status,2+status,0+pclath+cstack]
  5937                           
  5938                           
  5939                           ;LED.c: 300:   for (int8_t pwm_idx = 1; pwm_idx <= 10; pwm_idx++) {
  5940     0449  01F4               	clrf	yellow_seg4_forward@pwm_idx
  5941     044A  0AF4               	incf	yellow_seg4_forward@pwm_idx,f
  5942     044B                     l432:
  5943                           
  5944                           ;LED.c: 301:     if (PORTBbits.RB1)
  5945     044B  0020               	movlb	0	; select bank0
  5946     044C  1C8D               	btfss	13,1	;volatile
  5947     044D  2C4F               	goto	u1161
  5948     044E  2C50               	goto	u1160
  5949     044F                     u1161:
  5950     044F  2C51               	goto	l2462
  5951     0450                     u1160:
  5952     0450  2C74               	goto	l433
  5953     0451                     l2462:
  5954                           
  5955                           ;LED.c: 303:     for (uint8_t ii = 0; ii < 7; ii++) {
  5956     0451  01F3               	clrf	yellow_seg4_forward@ii
  5957     0452                     l435:
  5958                           
  5959                           ;LED.c: 304:       LATAbits.LATA3 = 1;
  5960     0452  0022               	movlb	2	; select bank2
  5961     0453  158C               	bsf	12,3	;volatile
  5962     0454                     l2468:
  5963                           
  5964                           ;LED.c: 305:       delay_us(pwm_idx);
  5965     0454  0874               	movf	yellow_seg4_forward@pwm_idx,w
  5966     0455  3186  2602  3184   	fcall	_delay_us
  5967     0458                     l2470:
  5968                           
  5969                           ;LED.c: 306:       LATAbits.LATA3 = 0;
  5970     0458  0022               	movlb	2	; select bank2
  5971     0459  118C               	bcf	12,3	;volatile
  5972                           
  5973                           ;LED.c: 307:       delay_us(10 - pwm_idx);
  5974     045A  0874               	movf	yellow_seg4_forward@pwm_idx,w
  5975     045B  3C0A               	sublw	10
  5976     045C  3186  2602  3184   	fcall	_delay_us
  5977     045F                     l2472:
  5978                           
  5979                           ;LED.c: 308:     }
  5980     045F  3001               	movlw	1
  5981     0460  00F2               	movwf	??_yellow_seg4_forward
  5982     0461  0872               	movf	??_yellow_seg4_forward,w
  5983     0462  07F3               	addwf	yellow_seg4_forward@ii,f
  5984     0463                     l2474:
  5985     0463  3007               	movlw	7
  5986     0464  0273               	subwf	yellow_seg4_forward@ii,w
  5987     0465  1C03               	skipc
  5988     0466  2C68               	goto	u1171
  5989     0467  2C69               	goto	u1170
  5990     0468                     u1171:
  5991     0468  2C52               	goto	l435
  5992     0469                     u1170:
  5993     0469                     l2476:
  5994                           
  5995                           ;LED.c: 309:   }
  5996     0469  3001               	movlw	1
  5997     046A  00F2               	movwf	??_yellow_seg4_forward
  5998     046B  0872               	movf	??_yellow_seg4_forward,w
  5999     046C  07F4               	addwf	yellow_seg4_forward@pwm_idx,f
  6000     046D                     l2478:
  6001     046D  0874               	movf	yellow_seg4_forward@pwm_idx,w
  6002     046E  3A80               	xorlw	128
  6003     046F  3E75               	addlw	-139
  6004     0470  1C03               	skipc
  6005     0471  2C73               	goto	u1181
  6006     0472  2C74               	goto	u1180
  6007     0473                     u1181:
  6008     0473  2C4B               	goto	l432
  6009     0474                     u1180:
  6010     0474                     l433:
  6011                           
  6012                           ;LED.c: 310:   LATAbits.LATA3 = 1;
  6013     0474  0022               	movlb	2	; select bank2
  6014     0475  158C               	bsf	12,3	;volatile
  6015     0476                     l437:
  6016     0476  0008               	return
  6017     0477                     __end_of_yellow_seg4_forward:
  6018                           
  6019                           	psect	text41
  6020     0477                     __ptext41:	
  6021 ;; *************** function _yellow_seg4_backward *****************
  6022 ;; Defined at:
  6023 ;;		line 416 in file "LED.c"
  6024 ;; Parameters:    Size  Location     Type
  6025 ;;		None
  6026 ;; Auto vars:     Size  Location     Type
  6027 ;;  ii              1    3[COMMON] unsigned char 
  6028 ;;  pwm_idx         1    4[COMMON] char 
  6029 ;; Return value:  Size  Location     Type
  6030 ;;                  1    wreg      void 
  6031 ;; Registers used:
  6032 ;;		wreg, status,2, status,0, pclath, cstack
  6033 ;; Tracked objects:
  6034 ;;		On entry : 0/0
  6035 ;;		On exit  : 0/0
  6036 ;;		Unchanged: 0/0
  6037 ;; Data sizes:     COMMON   BANK0   BANK1   BANK2   BANK3   BANK4   BANK5   BANK6
  6038 ;;      Params:         0       0       0       0       0       0       0       0
  6039 ;;      Locals:         2       0       0       0       0       0       0       0
  6040 ;;      Temps:          1       0       0       0       0       0       0       0
  6041 ;;      Totals:         3       0       0       0       0       0       0       0
  6042 ;;Total ram usage:        3 bytes
  6043 ;; Hardware stack levels used: 1
  6044 ;; Hardware stack levels required when called: 4
  6045 ;; This function calls:
  6046 ;;		_delay_us
  6047 ;; This function is called by:
  6048 ;;		_check_welcome_light
  6049 ;; This function uses a non-reentrant model
  6050 ;;
  6051                           
  6052     0477                     _yellow_seg4_backward:	
  6053                           ;psect for function _yellow_seg4_backward
  6054                           
  6055     0477                     l2638:	
  6056                           ;incstack = 0
  6057                           ; Regs used in _yellow_seg4_backward: [wreg+status,2+status,0+pclath+cstack]
  6058                           
  6059                           
  6060                           ;LED.c: 417:   for (int8_t pwm_idx = 10; pwm_idx > 0; pwm_idx--) {
  6061     0477  300A               	movlw	10
  6062     0478  00F4               	movwf	yellow_seg4_backward@pwm_idx
  6063     0479                     l488:
  6064                           
  6065                           ;LED.c: 418:     if (PORTBbits.RB1)
  6066     0479  0020               	movlb	0	; select bank0
  6067     047A  1C8D               	btfss	13,1	;volatile
  6068     047B  2C7D               	goto	u1371
  6069     047C  2C7E               	goto	u1370
  6070     047D                     u1371:
  6071     047D  2C7F               	goto	l2644
  6072     047E                     u1370:
  6073     047E  2CA2               	goto	l489
  6074     047F                     l2644:
  6075                           
  6076                           ;LED.c: 420:     for (uint8_t ii = 0; ii < 7; ii++) {
  6077     047F  01F3               	clrf	yellow_seg4_backward@ii
  6078     0480                     l491:
  6079                           
  6080                           ;LED.c: 421:       LATAbits.LATA3 = 1;
  6081     0480  0022               	movlb	2	; select bank2
  6082     0481  158C               	bsf	12,3	;volatile
  6083     0482                     l2650:
  6084                           
  6085                           ;LED.c: 422:       delay_us(pwm_idx);
  6086     0482  0874               	movf	yellow_seg4_backward@pwm_idx,w
  6087     0483  3186  2602  3184   	fcall	_delay_us
  6088     0486                     l2652:
  6089                           
  6090                           ;LED.c: 423:       LATAbits.LATA3 = 0;
  6091     0486  0022               	movlb	2	; select bank2
  6092     0487  118C               	bcf	12,3	;volatile
  6093                           
  6094                           ;LED.c: 424:       delay_us(10 - pwm_idx);
  6095     0488  0874               	movf	yellow_seg4_backward@pwm_idx,w
  6096     0489  3C0A               	sublw	10
  6097     048A  3186  2602  3184   	fcall	_delay_us
  6098     048D                     l2654:
  6099                           
  6100                           ;LED.c: 425:     }
  6101     048D  3001               	movlw	1
  6102     048E  00F2               	movwf	??_yellow_seg4_backward
  6103     048F  0872               	movf	??_yellow_seg4_backward,w
  6104     0490  07F3               	addwf	yellow_seg4_backward@ii,f
  6105     0491                     l2656:
  6106     0491  3007               	movlw	7
  6107     0492  0273               	subwf	yellow_seg4_backward@ii,w
  6108     0493  1C03               	skipc
  6109     0494  2C96               	goto	u1381
  6110     0495  2C97               	goto	u1380
  6111     0496                     u1381:
  6112     0496  2C80               	goto	l491
  6113     0497                     u1380:
  6114     0497                     l2658:
  6115                           
  6116                           ;LED.c: 426:   }
  6117     0497  30FF               	movlw	255
  6118     0498  00F2               	movwf	??_yellow_seg4_backward
  6119     0499  0872               	movf	??_yellow_seg4_backward,w
  6120     049A  07F4               	addwf	yellow_seg4_backward@pwm_idx,f
  6121     049B                     l2660:
  6122     049B  0874               	movf	yellow_seg4_backward@pwm_idx,w
  6123     049C  3A80               	xorlw	128
  6124     049D  3E7F               	addlw	-129
  6125     049E  1803               	skipnc
  6126     049F  2CA1               	goto	u1391
  6127     04A0  2CA2               	goto	u1390
  6128     04A1                     u1391:
  6129     04A1  2C79               	goto	l488
  6130     04A2                     u1390:
  6131     04A2                     l489:
  6132                           
  6133                           ;LED.c: 427:   LATAbits.LATA3 = 0;
  6134     04A2  0022               	movlb	2	; select bank2
  6135     04A3  118C               	bcf	12,3	;volatile
  6136     04A4                     l493:
  6137     04A4  0008               	return
  6138     04A5                     __end_of_yellow_seg4_backward:
  6139                           
  6140                           	psect	text42
  6141     032C                     __ptext42:	
  6142 ;; *************** function _yellow_seg3_forward *****************
  6143 ;; Defined at:
  6144 ;;		line 281 in file "LED.c"
  6145 ;; Parameters:    Size  Location     Type
  6146 ;;		None
  6147 ;; Auto vars:     Size  Location     Type
  6148 ;;  ii              1    3[COMMON] unsigned char 
  6149 ;;  pwm_idx         1    4[COMMON] char 
  6150 ;; Return value:  Size  Location     Type
  6151 ;;                  1    wreg      void 
  6152 ;; Registers used:
  6153 ;;		wreg, status,2, status,0, pclath, cstack
  6154 ;; Tracked objects:
  6155 ;;		On entry : 0/0
  6156 ;;		On exit  : 0/0
  6157 ;;		Unchanged: 0/0
  6158 ;; Data sizes:     COMMON   BANK0   BANK1   BANK2   BANK3   BANK4   BANK5   BANK6
  6159 ;;      Params:         0       0       0       0       0       0       0       0
  6160 ;;      Locals:         2       0       0       0       0       0       0       0
  6161 ;;      Temps:          1       0       0       0       0       0       0       0
  6162 ;;      Totals:         3       0       0       0       0       0       0       0
  6163 ;;Total ram usage:        3 bytes
  6164 ;; Hardware stack levels used: 1
  6165 ;; Hardware stack levels required when called: 4
  6166 ;; This function calls:
  6167 ;;		_delay_us
  6168 ;; This function is called by:
  6169 ;;		_check_welcome_light
  6170 ;; This function uses a non-reentrant model
  6171 ;;
  6172                           
  6173     032C                     _yellow_seg3_forward:	
  6174                           ;psect for function _yellow_seg3_forward
  6175                           
  6176     032C                     l2426:	
  6177                           ;incstack = 0
  6178                           ; Regs used in _yellow_seg3_forward: [wreg+status,2+status,0+pclath+cstack]
  6179                           
  6180                           
  6181                           ;LED.c: 282:   for (int8_t pwm_idx = 1; pwm_idx <= 10; pwm_idx++) {
  6182     032C  01F4               	clrf	yellow_seg3_forward@pwm_idx
  6183     032D  0AF4               	incf	yellow_seg3_forward@pwm_idx,f
  6184     032E                     l424:
  6185                           
  6186                           ;LED.c: 283:     if (PORTBbits.RB1)
  6187     032E  0020               	movlb	0	; select bank0
  6188     032F  1C8D               	btfss	13,1	;volatile
  6189     0330  2B32               	goto	u1131
  6190     0331  2B33               	goto	u1130
  6191     0332                     u1131:
  6192     0332  2B34               	goto	l2434
  6193     0333                     u1130:
  6194     0333  2B59               	goto	l425
  6195     0334                     l2434:
  6196                           
  6197                           ;LED.c: 285:     for (uint8_t ii = 0; ii < 7; ii++) {
  6198     0334  01F3               	clrf	yellow_seg3_forward@ii
  6199     0335                     l427:
  6200                           
  6201                           ;LED.c: 286:       LATAbits.LATA4 = 1;
  6202     0335  0022               	movlb	2	; select bank2
  6203     0336  160C               	bsf	12,4	;volatile
  6204                           
  6205                           ;LED.c: 287:       LATAbits.LATA7 = 1;
  6206     0337  178C               	bsf	12,7	;volatile
  6207     0338                     l2440:
  6208                           
  6209                           ;LED.c: 288:       delay_us(pwm_idx);
  6210     0338  0874               	movf	yellow_seg3_forward@pwm_idx,w
  6211     0339  3186  2602  3183   	fcall	_delay_us
  6212     033C                     l2442:
  6213                           
  6214                           ;LED.c: 289:       LATAbits.LATA4 = 0;
  6215     033C  0022               	movlb	2	; select bank2
  6216     033D  120C               	bcf	12,4	;volatile
  6217     033E                     l2444:
  6218                           
  6219                           ;LED.c: 290:       LATAbits.LATA7 = 0;
  6220     033E  138C               	bcf	12,7	;volatile
  6221                           
  6222                           ;LED.c: 291:       delay_us(10 - pwm_idx);
  6223     033F  0874               	movf	yellow_seg3_forward@pwm_idx,w
  6224     0340  3C0A               	sublw	10
  6225     0341  3186  2602  3183   	fcall	_delay_us
  6226     0344                     l2446:
  6227                           
  6228                           ;LED.c: 292:     }
  6229     0344  3001               	movlw	1
  6230     0345  00F2               	movwf	??_yellow_seg3_forward
  6231     0346  0872               	movf	??_yellow_seg3_forward,w
  6232     0347  07F3               	addwf	yellow_seg3_forward@ii,f
  6233     0348                     l2448:
  6234     0348  3007               	movlw	7
  6235     0349  0273               	subwf	yellow_seg3_forward@ii,w
  6236     034A  1C03               	skipc
  6237     034B  2B4D               	goto	u1141
  6238     034C  2B4E               	goto	u1140
  6239     034D                     u1141:
  6240     034D  2B35               	goto	l427
  6241     034E                     u1140:
  6242     034E                     l2450:
  6243                           
  6244                           ;LED.c: 293:   }
  6245     034E  3001               	movlw	1
  6246     034F  00F2               	movwf	??_yellow_seg3_forward
  6247     0350  0872               	movf	??_yellow_seg3_forward,w
  6248     0351  07F4               	addwf	yellow_seg3_forward@pwm_idx,f
  6249     0352                     l2452:
  6250     0352  0874               	movf	yellow_seg3_forward@pwm_idx,w
  6251     0353  3A80               	xorlw	128
  6252     0354  3E75               	addlw	-139
  6253     0355  1C03               	skipc
  6254     0356  2B58               	goto	u1151
  6255     0357  2B59               	goto	u1150
  6256     0358                     u1151:
  6257     0358  2B2E               	goto	l424
  6258     0359                     u1150:
  6259     0359                     l425:
  6260                           
  6261                           ;LED.c: 294:   LATAbits.LATA4 = 1;
  6262     0359  0022               	movlb	2	; select bank2
  6263     035A  160C               	bsf	12,4	;volatile
  6264                           
  6265                           ;LED.c: 295:   LATAbits.LATA7 = 1;
  6266     035B  178C               	bsf	12,7	;volatile
  6267     035C                     l429:
  6268     035C  0008               	return
  6269     035D                     __end_of_yellow_seg3_forward:
  6270                           
  6271                           	psect	text43
  6272     035D                     __ptext43:	
  6273 ;; *************** function _yellow_seg3_backward *****************
  6274 ;; Defined at:
  6275 ;;		line 398 in file "LED.c"
  6276 ;; Parameters:    Size  Location     Type
  6277 ;;		None
  6278 ;; Auto vars:     Size  Location     Type
  6279 ;;  ii              1    3[COMMON] unsigned char 
  6280 ;;  pwm_idx         1    4[COMMON] char 
  6281 ;; Return value:  Size  Location     Type
  6282 ;;                  1    wreg      void 
  6283 ;; Registers used:
  6284 ;;		wreg, status,2, status,0, pclath, cstack
  6285 ;; Tracked objects:
  6286 ;;		On entry : 0/0
  6287 ;;		On exit  : 0/0
  6288 ;;		Unchanged: 0/0
  6289 ;; Data sizes:     COMMON   BANK0   BANK1   BANK2   BANK3   BANK4   BANK5   BANK6
  6290 ;;      Params:         0       0       0       0       0       0       0       0
  6291 ;;      Locals:         2       0       0       0       0       0       0       0
  6292 ;;      Temps:          1       0       0       0       0       0       0       0
  6293 ;;      Totals:         3       0       0       0       0       0       0       0
  6294 ;;Total ram usage:        3 bytes
  6295 ;; Hardware stack levels used: 1
  6296 ;; Hardware stack levels required when called: 4
  6297 ;; This function calls:
  6298 ;;		_delay_us
  6299 ;; This function is called by:
  6300 ;;		_check_welcome_light
  6301 ;; This function uses a non-reentrant model
  6302 ;;
  6303                           
  6304     035D                     _yellow_seg3_backward:	
  6305                           ;psect for function _yellow_seg3_backward
  6306                           
  6307     035D                     l2612:	
  6308                           ;incstack = 0
  6309                           ; Regs used in _yellow_seg3_backward: [wreg+status,2+status,0+pclath+cstack]
  6310                           
  6311                           
  6312                           ;LED.c: 399:   for (int8_t pwm_idx = 10; pwm_idx > 0; pwm_idx--) {
  6313     035D  300A               	movlw	10
  6314     035E  00F4               	movwf	yellow_seg3_backward@pwm_idx
  6315     035F                     l480:
  6316                           
  6317                           ;LED.c: 400:     if (PORTBbits.RB1)
  6318     035F  0020               	movlb	0	; select bank0
  6319     0360  1C8D               	btfss	13,1	;volatile
  6320     0361  2B63               	goto	u1341
  6321     0362  2B64               	goto	u1340
  6322     0363                     u1341:
  6323     0363  2B65               	goto	l2618
  6324     0364                     u1340:
  6325     0364  2B8A               	goto	l481
  6326     0365                     l2618:
  6327                           
  6328                           ;LED.c: 402:     for (uint8_t ii = 0; ii < 7; ii++) {
  6329     0365  01F3               	clrf	yellow_seg3_backward@ii
  6330     0366                     l483:
  6331                           
  6332                           ;LED.c: 403:       LATAbits.LATA2 = 1;
  6333     0366  0022               	movlb	2	; select bank2
  6334     0367  150C               	bsf	12,2	;volatile
  6335                           
  6336                           ;LED.c: 404:       LATAbits.LATA6 = 1;
  6337     0368  170C               	bsf	12,6	;volatile
  6338     0369                     l2624:
  6339                           
  6340                           ;LED.c: 405:       delay_us(pwm_idx);
  6341     0369  0874               	movf	yellow_seg3_backward@pwm_idx,w
  6342     036A  3186  2602  3183   	fcall	_delay_us
  6343     036D                     l2626:
  6344                           
  6345                           ;LED.c: 406:       LATAbits.LATA2 = 0;
  6346     036D  0022               	movlb	2	; select bank2
  6347     036E  110C               	bcf	12,2	;volatile
  6348     036F                     l2628:
  6349                           
  6350                           ;LED.c: 407:       LATAbits.LATA6 = 0;
  6351     036F  130C               	bcf	12,6	;volatile
  6352                           
  6353                           ;LED.c: 408:       delay_us(10 - pwm_idx);
  6354     0370  0874               	movf	yellow_seg3_backward@pwm_idx,w
  6355     0371  3C0A               	sublw	10
  6356     0372  3186  2602  3183   	fcall	_delay_us
  6357     0375                     l2630:
  6358                           
  6359                           ;LED.c: 409:     }
  6360     0375  3001               	movlw	1
  6361     0376  00F2               	movwf	??_yellow_seg3_backward
  6362     0377  0872               	movf	??_yellow_seg3_backward,w
  6363     0378  07F3               	addwf	yellow_seg3_backward@ii,f
  6364     0379                     l2632:
  6365     0379  3007               	movlw	7
  6366     037A  0273               	subwf	yellow_seg3_backward@ii,w
  6367     037B  1C03               	skipc
  6368     037C  2B7E               	goto	u1351
  6369     037D  2B7F               	goto	u1350
  6370     037E                     u1351:
  6371     037E  2B66               	goto	l483
  6372     037F                     u1350:
  6373     037F                     l2634:
  6374                           
  6375                           ;LED.c: 410:   }
  6376     037F  30FF               	movlw	255
  6377     0380  00F2               	movwf	??_yellow_seg3_backward
  6378     0381  0872               	movf	??_yellow_seg3_backward,w
  6379     0382  07F4               	addwf	yellow_seg3_backward@pwm_idx,f
  6380     0383                     l2636:
  6381     0383  0874               	movf	yellow_seg3_backward@pwm_idx,w
  6382     0384  3A80               	xorlw	128
  6383     0385  3E7F               	addlw	-129
  6384     0386  1803               	skipnc
  6385     0387  2B89               	goto	u1361
  6386     0388  2B8A               	goto	u1360
  6387     0389                     u1361:
  6388     0389  2B5F               	goto	l480
  6389     038A                     u1360:
  6390     038A                     l481:
  6391                           
  6392                           ;LED.c: 411:   LATAbits.LATA2 = 0;
  6393     038A  0022               	movlb	2	; select bank2
  6394     038B  110C               	bcf	12,2	;volatile
  6395                           
  6396                           ;LED.c: 412:   LATAbits.LATA6 = 0;
  6397     038C  130C               	bcf	12,6	;volatile
  6398     038D                     l485:
  6399     038D  0008               	return
  6400     038E                     __end_of_yellow_seg3_backward:
  6401                           
  6402                           	psect	text44
  6403     04A5                     __ptext44:	
  6404 ;; *************** function _yellow_seg2_forward *****************
  6405 ;; Defined at:
  6406 ;;		line 265 in file "LED.c"
  6407 ;; Parameters:    Size  Location     Type
  6408 ;;		None
  6409 ;; Auto vars:     Size  Location     Type
  6410 ;;  ii              1    3[COMMON] unsigned char 
  6411 ;;  pwm_idx         1    4[COMMON] char 
  6412 ;; Return value:  Size  Location     Type
  6413 ;;                  1    wreg      void 
  6414 ;; Registers used:
  6415 ;;		wreg, status,2, status,0, pclath, cstack
  6416 ;; Tracked objects:
  6417 ;;		On entry : 0/0
  6418 ;;		On exit  : 0/0
  6419 ;;		Unchanged: 0/0
  6420 ;; Data sizes:     COMMON   BANK0   BANK1   BANK2   BANK3   BANK4   BANK5   BANK6
  6421 ;;      Params:         0       0       0       0       0       0       0       0
  6422 ;;      Locals:         2       0       0       0       0       0       0       0
  6423 ;;      Temps:          1       0       0       0       0       0       0       0
  6424 ;;      Totals:         3       0       0       0       0       0       0       0
  6425 ;;Total ram usage:        3 bytes
  6426 ;; Hardware stack levels used: 1
  6427 ;; Hardware stack levels required when called: 4
  6428 ;; This function calls:
  6429 ;;		_delay_us
  6430 ;; This function is called by:
  6431 ;;		_check_welcome_light
  6432 ;; This function uses a non-reentrant model
  6433 ;;
  6434                           
  6435     04A5                     _yellow_seg2_forward:	
  6436                           ;psect for function _yellow_seg2_forward
  6437                           
  6438     04A5                     l2400:	
  6439                           ;incstack = 0
  6440                           ; Regs used in _yellow_seg2_forward: [wreg+status,2+status,0+pclath+cstack]
  6441                           
  6442                           
  6443                           ;LED.c: 266:   for (int8_t pwm_idx = 1; pwm_idx <= 10; pwm_idx++) {
  6444     04A5  01F4               	clrf	yellow_seg2_forward@pwm_idx
  6445     04A6  0AF4               	incf	yellow_seg2_forward@pwm_idx,f
  6446     04A7                     l416:
  6447                           
  6448                           ;LED.c: 267:     if (PORTBbits.RB1) {
  6449     04A7  0020               	movlb	0	; select bank0
  6450     04A8  1C8D               	btfss	13,1	;volatile
  6451     04A9  2CAB               	goto	u1101
  6452     04AA  2CAC               	goto	u1100
  6453     04AB                     u1101:
  6454     04AB  2CAD               	goto	l2408
  6455     04AC                     u1100:
  6456     04AC  2CD0               	goto	l417
  6457     04AD                     l2408:
  6458                           
  6459                           ;LED.c: 270:     for (uint8_t ii = 0; ii < 7; ii++) {
  6460     04AD  01F3               	clrf	yellow_seg2_forward@ii
  6461     04AE                     l419:
  6462                           
  6463                           ;LED.c: 271:       LATAbits.LATA5 = 1;
  6464     04AE  0022               	movlb	2	; select bank2
  6465     04AF  168C               	bsf	12,5	;volatile
  6466     04B0                     l2414:
  6467                           
  6468                           ;LED.c: 272:       delay_us(pwm_idx);
  6469     04B0  0874               	movf	yellow_seg2_forward@pwm_idx,w
  6470     04B1  3186  2602  3184   	fcall	_delay_us
  6471     04B4                     l2416:
  6472                           
  6473                           ;LED.c: 273:       LATAbits.LATA5 = 0;
  6474     04B4  0022               	movlb	2	; select bank2
  6475     04B5  128C               	bcf	12,5	;volatile
  6476                           
  6477                           ;LED.c: 274:       delay_us(10 - pwm_idx);
  6478     04B6  0874               	movf	yellow_seg2_forward@pwm_idx,w
  6479     04B7  3C0A               	sublw	10
  6480     04B8  3186  2602  3184   	fcall	_delay_us
  6481     04BB                     l2418:
  6482                           
  6483                           ;LED.c: 275:     }
  6484     04BB  3001               	movlw	1
  6485     04BC  00F2               	movwf	??_yellow_seg2_forward
  6486     04BD  0872               	movf	??_yellow_seg2_forward,w
  6487     04BE  07F3               	addwf	yellow_seg2_forward@ii,f
  6488     04BF                     l2420:
  6489     04BF  3007               	movlw	7
  6490     04C0  0273               	subwf	yellow_seg2_forward@ii,w
  6491     04C1  1C03               	skipc
  6492     04C2  2CC4               	goto	u1111
  6493     04C3  2CC5               	goto	u1110
  6494     04C4                     u1111:
  6495     04C4  2CAE               	goto	l419
  6496     04C5                     u1110:
  6497     04C5                     l2422:
  6498                           
  6499                           ;LED.c: 276:   }
  6500     04C5  3001               	movlw	1
  6501     04C6  00F2               	movwf	??_yellow_seg2_forward
  6502     04C7  0872               	movf	??_yellow_seg2_forward,w
  6503     04C8  07F4               	addwf	yellow_seg2_forward@pwm_idx,f
  6504     04C9                     l2424:
  6505     04C9  0874               	movf	yellow_seg2_forward@pwm_idx,w
  6506     04CA  3A80               	xorlw	128
  6507     04CB  3E75               	addlw	-139
  6508     04CC  1C03               	skipc
  6509     04CD  2CCF               	goto	u1121
  6510     04CE  2CD0               	goto	u1120
  6511     04CF                     u1121:
  6512     04CF  2CA7               	goto	l416
  6513     04D0                     u1120:
  6514     04D0                     l417:
  6515                           
  6516                           ;LED.c: 277:   LATAbits.LATA5 = 1;
  6517     04D0  0022               	movlb	2	; select bank2
  6518     04D1  168C               	bsf	12,5	;volatile
  6519     04D2                     l421:
  6520     04D2  0008               	return
  6521     04D3                     __end_of_yellow_seg2_forward:
  6522                           
  6523                           	psect	text45
  6524     04D3                     __ptext45:	
  6525 ;; *************** function _yellow_seg2_backward *****************
  6526 ;; Defined at:
  6527 ;;		line 383 in file "LED.c"
  6528 ;; Parameters:    Size  Location     Type
  6529 ;;		None
  6530 ;; Auto vars:     Size  Location     Type
  6531 ;;  ii              1    3[COMMON] unsigned char 
  6532 ;;  pwm_idx         1    4[COMMON] char 
  6533 ;; Return value:  Size  Location     Type
  6534 ;;                  1    wreg      void 
  6535 ;; Registers used:
  6536 ;;		wreg, status,2, status,0, pclath, cstack
  6537 ;; Tracked objects:
  6538 ;;		On entry : 0/0
  6539 ;;		On exit  : 0/0
  6540 ;;		Unchanged: 0/0
  6541 ;; Data sizes:     COMMON   BANK0   BANK1   BANK2   BANK3   BANK4   BANK5   BANK6
  6542 ;;      Params:         0       0       0       0       0       0       0       0
  6543 ;;      Locals:         2       0       0       0       0       0       0       0
  6544 ;;      Temps:          1       0       0       0       0       0       0       0
  6545 ;;      Totals:         3       0       0       0       0       0       0       0
  6546 ;;Total ram usage:        3 bytes
  6547 ;; Hardware stack levels used: 1
  6548 ;; Hardware stack levels required when called: 4
  6549 ;; This function calls:
  6550 ;;		_delay_us
  6551 ;; This function is called by:
  6552 ;;		_check_welcome_light
  6553 ;; This function uses a non-reentrant model
  6554 ;;
  6555                           
  6556     04D3                     _yellow_seg2_backward:	
  6557                           ;psect for function _yellow_seg2_backward
  6558                           
  6559     04D3                     l2588:	
  6560                           ;incstack = 0
  6561                           ; Regs used in _yellow_seg2_backward: [wreg+status,2+status,0+pclath+cstack]
  6562                           
  6563                           
  6564                           ;LED.c: 384:   for (int8_t pwm_idx = 10; pwm_idx > 0; pwm_idx--) {
  6565     04D3  300A               	movlw	10
  6566     04D4  00F4               	movwf	yellow_seg2_backward@pwm_idx
  6567     04D5                     l472:
  6568                           
  6569                           ;LED.c: 385:     if (PORTBbits.RB1)
  6570     04D5  0020               	movlb	0	; select bank0
  6571     04D6  1C8D               	btfss	13,1	;volatile
  6572     04D7  2CD9               	goto	u1311
  6573     04D8  2CDA               	goto	u1310
  6574     04D9                     u1311:
  6575     04D9  2CDB               	goto	l2594
  6576     04DA                     u1310:
  6577     04DA  2CFE               	goto	l473
  6578     04DB                     l2594:
  6579                           
  6580                           ;LED.c: 387:     for (uint8_t ii = 0; ii < 7; ii++) {
  6581     04DB  01F3               	clrf	yellow_seg2_backward@ii
  6582     04DC                     l475:
  6583                           
  6584                           ;LED.c: 388:       LATAbits.LATA1 = 1;
  6585     04DC  0022               	movlb	2	; select bank2
  6586     04DD  148C               	bsf	12,1	;volatile
  6587     04DE                     l2600:
  6588                           
  6589                           ;LED.c: 389:       delay_us(pwm_idx);
  6590     04DE  0874               	movf	yellow_seg2_backward@pwm_idx,w
  6591     04DF  3186  2602  3184   	fcall	_delay_us
  6592     04E2                     l2602:
  6593                           
  6594                           ;LED.c: 390:       LATAbits.LATA1 = 0;
  6595     04E2  0022               	movlb	2	; select bank2
  6596     04E3  108C               	bcf	12,1	;volatile
  6597                           
  6598                           ;LED.c: 391:       delay_us(10 - pwm_idx);
  6599     04E4  0874               	movf	yellow_seg2_backward@pwm_idx,w
  6600     04E5  3C0A               	sublw	10
  6601     04E6  3186  2602  3184   	fcall	_delay_us
  6602     04E9                     l2604:
  6603                           
  6604                           ;LED.c: 392:     }
  6605     04E9  3001               	movlw	1
  6606     04EA  00F2               	movwf	??_yellow_seg2_backward
  6607     04EB  0872               	movf	??_yellow_seg2_backward,w
  6608     04EC  07F3               	addwf	yellow_seg2_backward@ii,f
  6609     04ED                     l2606:
  6610     04ED  3007               	movlw	7
  6611     04EE  0273               	subwf	yellow_seg2_backward@ii,w
  6612     04EF  1C03               	skipc
  6613     04F0  2CF2               	goto	u1321
  6614     04F1  2CF3               	goto	u1320
  6615     04F2                     u1321:
  6616     04F2  2CDC               	goto	l475
  6617     04F3                     u1320:
  6618     04F3                     l2608:
  6619                           
  6620                           ;LED.c: 393:   }
  6621     04F3  30FF               	movlw	255
  6622     04F4  00F2               	movwf	??_yellow_seg2_backward
  6623     04F5  0872               	movf	??_yellow_seg2_backward,w
  6624     04F6  07F4               	addwf	yellow_seg2_backward@pwm_idx,f
  6625     04F7                     l2610:
  6626     04F7  0874               	movf	yellow_seg2_backward@pwm_idx,w
  6627     04F8  3A80               	xorlw	128
  6628     04F9  3E7F               	addlw	-129
  6629     04FA  1803               	skipnc
  6630     04FB  2CFD               	goto	u1331
  6631     04FC  2CFE               	goto	u1330
  6632     04FD                     u1331:
  6633     04FD  2CD5               	goto	l472
  6634     04FE                     u1330:
  6635     04FE                     l473:
  6636                           
  6637                           ;LED.c: 394:   LATAbits.LATA1 = 0;
  6638     04FE  0022               	movlb	2	; select bank2
  6639     04FF  108C               	bcf	12,1	;volatile
  6640     0500                     l477:
  6641     0500  0008               	return
  6642     0501                     __end_of_yellow_seg2_backward:
  6643                           
  6644                           	psect	text46
  6645     0501                     __ptext46:	
  6646 ;; *************** function _yellow_seg1_forward *****************
  6647 ;; Defined at:
  6648 ;;		line 249 in file "LED.c"
  6649 ;; Parameters:    Size  Location     Type
  6650 ;;		None
  6651 ;; Auto vars:     Size  Location     Type
  6652 ;;  ii              1    3[COMMON] unsigned char 
  6653 ;;  pwm_idx         1    4[COMMON] char 
  6654 ;; Return value:  Size  Location     Type
  6655 ;;                  1    wreg      void 
  6656 ;; Registers used:
  6657 ;;		wreg, status,2, status,0, pclath, cstack
  6658 ;; Tracked objects:
  6659 ;;		On entry : 0/0
  6660 ;;		On exit  : 0/0
  6661 ;;		Unchanged: 0/0
  6662 ;; Data sizes:     COMMON   BANK0   BANK1   BANK2   BANK3   BANK4   BANK5   BANK6
  6663 ;;      Params:         0       0       0       0       0       0       0       0
  6664 ;;      Locals:         2       0       0       0       0       0       0       0
  6665 ;;      Temps:          1       0       0       0       0       0       0       0
  6666 ;;      Totals:         3       0       0       0       0       0       0       0
  6667 ;;Total ram usage:        3 bytes
  6668 ;; Hardware stack levels used: 1
  6669 ;; Hardware stack levels required when called: 4
  6670 ;; This function calls:
  6671 ;;		_delay_us
  6672 ;; This function is called by:
  6673 ;;		_check_welcome_light
  6674 ;; This function uses a non-reentrant model
  6675 ;;
  6676                           
  6677     0501                     _yellow_seg1_forward:	
  6678                           ;psect for function _yellow_seg1_forward
  6679                           
  6680     0501                     l2374:	
  6681                           ;incstack = 0
  6682                           ; Regs used in _yellow_seg1_forward: [wreg+status,2+status,0+pclath+cstack]
  6683                           
  6684                           
  6685                           ;LED.c: 250:   for (int8_t pwm_idx = 1; pwm_idx <= 10; pwm_idx++) {
  6686     0501  01F4               	clrf	yellow_seg1_forward@pwm_idx
  6687     0502  0AF4               	incf	yellow_seg1_forward@pwm_idx,f
  6688     0503                     l408:
  6689                           
  6690                           ;LED.c: 251:     if (PORTBbits.RB1) {
  6691     0503  0020               	movlb	0	; select bank0
  6692     0504  1C8D               	btfss	13,1	;volatile
  6693     0505  2D07               	goto	u1071
  6694     0506  2D08               	goto	u1070
  6695     0507                     u1071:
  6696     0507  2D09               	goto	l2382
  6697     0508                     u1070:
  6698     0508  2D2C               	goto	l409
  6699     0509                     l2382:
  6700                           
  6701                           ;LED.c: 254:     for (uint8_t ii = 0; ii < 7; ii++) {
  6702     0509  01F3               	clrf	yellow_seg1_forward@ii
  6703     050A                     l411:
  6704                           
  6705                           ;LED.c: 255:       LATCbits.LATC1 = 1;
  6706     050A  0022               	movlb	2	; select bank2
  6707     050B  148E               	bsf	14,1	;volatile
  6708     050C                     l2388:
  6709                           
  6710                           ;LED.c: 256:       delay_us(pwm_idx);
  6711     050C  0874               	movf	yellow_seg1_forward@pwm_idx,w
  6712     050D  3186  2602  3185   	fcall	_delay_us
  6713     0510                     l2390:
  6714                           
  6715                           ;LED.c: 257:       LATCbits.LATC1 = 0;
  6716     0510  0022               	movlb	2	; select bank2
  6717     0511  108E               	bcf	14,1	;volatile
  6718                           
  6719                           ;LED.c: 258:       delay_us(10 - pwm_idx);
  6720     0512  0874               	movf	yellow_seg1_forward@pwm_idx,w
  6721     0513  3C0A               	sublw	10
  6722     0514  3186  2602  3185   	fcall	_delay_us
  6723     0517                     l2392:
  6724                           
  6725                           ;LED.c: 259:     }
  6726     0517  3001               	movlw	1
  6727     0518  00F2               	movwf	??_yellow_seg1_forward
  6728     0519  0872               	movf	??_yellow_seg1_forward,w
  6729     051A  07F3               	addwf	yellow_seg1_forward@ii,f
  6730     051B                     l2394:
  6731     051B  3007               	movlw	7
  6732     051C  0273               	subwf	yellow_seg1_forward@ii,w
  6733     051D  1C03               	skipc
  6734     051E  2D20               	goto	u1081
  6735     051F  2D21               	goto	u1080
  6736     0520                     u1081:
  6737     0520  2D0A               	goto	l411
  6738     0521                     u1080:
  6739     0521                     l2396:
  6740                           
  6741                           ;LED.c: 260:   }
  6742     0521  3001               	movlw	1
  6743     0522  00F2               	movwf	??_yellow_seg1_forward
  6744     0523  0872               	movf	??_yellow_seg1_forward,w
  6745     0524  07F4               	addwf	yellow_seg1_forward@pwm_idx,f
  6746     0525                     l2398:
  6747     0525  0874               	movf	yellow_seg1_forward@pwm_idx,w
  6748     0526  3A80               	xorlw	128
  6749     0527  3E75               	addlw	-139
  6750     0528  1C03               	skipc
  6751     0529  2D2B               	goto	u1091
  6752     052A  2D2C               	goto	u1090
  6753     052B                     u1091:
  6754     052B  2D03               	goto	l408
  6755     052C                     u1090:
  6756     052C                     l409:
  6757                           
  6758                           ;LED.c: 261:   LATCbits.LATC1 = 1;
  6759     052C  0022               	movlb	2	; select bank2
  6760     052D  148E               	bsf	14,1	;volatile
  6761     052E                     l413:
  6762     052E  0008               	return
  6763     052F                     __end_of_yellow_seg1_forward:
  6764                           
  6765                           	psect	text47
  6766     038E                     __ptext47:	
  6767 ;; *************** function _yellow_seg1_backward *****************
  6768 ;; Defined at:
  6769 ;;		line 365 in file "LED.c"
  6770 ;; Parameters:    Size  Location     Type
  6771 ;;		None
  6772 ;; Auto vars:     Size  Location     Type
  6773 ;;  ii              1    3[COMMON] unsigned char 
  6774 ;;  pwm_idx         1    4[COMMON] char 
  6775 ;; Return value:  Size  Location     Type
  6776 ;;                  1    wreg      void 
  6777 ;; Registers used:
  6778 ;;		wreg, status,2, status,0, pclath, cstack
  6779 ;; Tracked objects:
  6780 ;;		On entry : 0/0
  6781 ;;		On exit  : 0/0
  6782 ;;		Unchanged: 0/0
  6783 ;; Data sizes:     COMMON   BANK0   BANK1   BANK2   BANK3   BANK4   BANK5   BANK6
  6784 ;;      Params:         0       0       0       0       0       0       0       0
  6785 ;;      Locals:         2       0       0       0       0       0       0       0
  6786 ;;      Temps:          1       0       0       0       0       0       0       0
  6787 ;;      Totals:         3       0       0       0       0       0       0       0
  6788 ;;Total ram usage:        3 bytes
  6789 ;; Hardware stack levels used: 1
  6790 ;; Hardware stack levels required when called: 4
  6791 ;; This function calls:
  6792 ;;		_delay_us
  6793 ;; This function is called by:
  6794 ;;		_check_welcome_light
  6795 ;; This function uses a non-reentrant model
  6796 ;;
  6797                           
  6798     038E                     _yellow_seg1_backward:	
  6799                           ;psect for function _yellow_seg1_backward
  6800                           
  6801     038E                     l2562:	
  6802                           ;incstack = 0
  6803                           ; Regs used in _yellow_seg1_backward: [wreg+status,2+status,0+pclath+cstack]
  6804                           
  6805                           
  6806                           ;LED.c: 366:   for (int8_t pwm_idx = 10; pwm_idx > 0; pwm_idx--) {
  6807     038E  300A               	movlw	10
  6808     038F  00F4               	movwf	yellow_seg1_backward@pwm_idx
  6809     0390                     l464:
  6810                           
  6811                           ;LED.c: 367:     if (PORTBbits.RB1)
  6812     0390  0020               	movlb	0	; select bank0
  6813     0391  1C8D               	btfss	13,1	;volatile
  6814     0392  2B94               	goto	u1281
  6815     0393  2B95               	goto	u1280
  6816     0394                     u1281:
  6817     0394  2B96               	goto	l2568
  6818     0395                     u1280:
  6819     0395  2BBB               	goto	l465
  6820     0396                     l2568:
  6821                           
  6822                           ;LED.c: 369:     for (uint8_t ii = 0; ii < 7; ii++) {
  6823     0396  01F3               	clrf	yellow_seg1_backward@ii
  6824     0397                     l467:
  6825                           
  6826                           ;LED.c: 370:       LATAbits.LATA0 = 1;
  6827     0397  0022               	movlb	2	; select bank2
  6828     0398  140C               	bsf	12,0	;volatile
  6829                           
  6830                           ;LED.c: 371:       LATCbits.LATC0 = 1;
  6831     0399  140E               	bsf	14,0	;volatile
  6832     039A                     l2574:
  6833                           
  6834                           ;LED.c: 372:       delay_us(pwm_idx);
  6835     039A  0874               	movf	yellow_seg1_backward@pwm_idx,w
  6836     039B  3186  2602  3183   	fcall	_delay_us
  6837     039E                     l2576:
  6838                           
  6839                           ;LED.c: 373:       LATAbits.LATA0 = 0;
  6840     039E  0022               	movlb	2	; select bank2
  6841     039F  100C               	bcf	12,0	;volatile
  6842     03A0                     l2578:
  6843                           
  6844                           ;LED.c: 374:       LATCbits.LATC0 = 0;
  6845     03A0  100E               	bcf	14,0	;volatile
  6846                           
  6847                           ;LED.c: 375:       delay_us(10 - pwm_idx);
  6848     03A1  0874               	movf	yellow_seg1_backward@pwm_idx,w
  6849     03A2  3C0A               	sublw	10
  6850     03A3  3186  2602  3183   	fcall	_delay_us
  6851     03A6                     l2580:
  6852                           
  6853                           ;LED.c: 376:     }
  6854     03A6  3001               	movlw	1
  6855     03A7  00F2               	movwf	??_yellow_seg1_backward
  6856     03A8  0872               	movf	??_yellow_seg1_backward,w
  6857     03A9  07F3               	addwf	yellow_seg1_backward@ii,f
  6858     03AA                     l2582:
  6859     03AA  3007               	movlw	7
  6860     03AB  0273               	subwf	yellow_seg1_backward@ii,w
  6861     03AC  1C03               	skipc
  6862     03AD  2BAF               	goto	u1291
  6863     03AE  2BB0               	goto	u1290
  6864     03AF                     u1291:
  6865     03AF  2B97               	goto	l467
  6866     03B0                     u1290:
  6867     03B0                     l2584:
  6868                           
  6869                           ;LED.c: 377:   }
  6870     03B0  30FF               	movlw	255
  6871     03B1  00F2               	movwf	??_yellow_seg1_backward
  6872     03B2  0872               	movf	??_yellow_seg1_backward,w
  6873     03B3  07F4               	addwf	yellow_seg1_backward@pwm_idx,f
  6874     03B4                     l2586:
  6875     03B4  0874               	movf	yellow_seg1_backward@pwm_idx,w
  6876     03B5  3A80               	xorlw	128
  6877     03B6  3E7F               	addlw	-129
  6878     03B7  1803               	skipnc
  6879     03B8  2BBA               	goto	u1301
  6880     03B9  2BBB               	goto	u1300
  6881     03BA                     u1301:
  6882     03BA  2B90               	goto	l464
  6883     03BB                     u1300:
  6884     03BB                     l465:
  6885                           
  6886                           ;LED.c: 378:   LATAbits.LATA0 = 0;
  6887     03BB  0022               	movlb	2	; select bank2
  6888     03BC  100C               	bcf	12,0	;volatile
  6889                           
  6890                           ;LED.c: 379:   LATCbits.LATC0 = 0;
  6891     03BD  100E               	bcf	14,0	;volatile
  6892     03BE                     l469:
  6893     03BE  0008               	return
  6894     03BF                     __end_of_yellow_seg1_backward:
  6895                           
  6896                           	psect	text48
  6897     052F                     __ptext48:	
  6898 ;; *************** function _white_fad_out *****************
  6899 ;; Defined at:
  6900 ;;		line 235 in file "LED.c"
  6901 ;; Parameters:    Size  Location     Type
  6902 ;;		None
  6903 ;; Auto vars:     Size  Location     Type
  6904 ;;  ii              1    3[COMMON] unsigned char 
  6905 ;;  pwm_idx         1    4[COMMON] char 
  6906 ;; Return value:  Size  Location     Type
  6907 ;;                  1    wreg      void 
  6908 ;; Registers used:
  6909 ;;		wreg, status,2, status,0, pclath, cstack
  6910 ;; Tracked objects:
  6911 ;;		On entry : 0/0
  6912 ;;		On exit  : 0/0
  6913 ;;		Unchanged: 0/0
  6914 ;; Data sizes:     COMMON   BANK0   BANK1   BANK2   BANK3   BANK4   BANK5   BANK6
  6915 ;;      Params:         0       0       0       0       0       0       0       0
  6916 ;;      Locals:         2       0       0       0       0       0       0       0
  6917 ;;      Temps:          1       0       0       0       0       0       0       0
  6918 ;;      Totals:         3       0       0       0       0       0       0       0
  6919 ;;Total ram usage:        3 bytes
  6920 ;; Hardware stack levels used: 1
  6921 ;; Hardware stack levels required when called: 4
  6922 ;; This function calls:
  6923 ;;		_all_white_led_turn_off
  6924 ;;		_all_white_led_turn_on
  6925 ;;		_delay_us
  6926 ;; This function is called by:
  6927 ;;		_check_welcome_light
  6928 ;; This function uses a non-reentrant model
  6929 ;;
  6930                           
  6931     052F                     _white_fad_out:	
  6932                           ;psect for function _white_fad_out
  6933                           
  6934     052F                     l2346:	
  6935                           ;incstack = 0
  6936                           ; Regs used in _white_fad_out: [wreg+status,2+status,0+pclath+cstack]
  6937                           
  6938                           
  6939                           ;LED.c: 236:   for (int8_t pwm_idx = 10; pwm_idx >= 0; pwm_idx--) {
  6940     052F  300A               	movlw	10
  6941     0530  00F4               	movwf	white_fad_out@pwm_idx
  6942     0531                     l400:
  6943                           
  6944                           ;LED.c: 237:     if (PORTBbits.RB1)
  6945     0531  0020               	movlb	0	; select bank0
  6946     0532  1C8D               	btfss	13,1	;volatile
  6947     0533  2D35               	goto	u1041
  6948     0534  2D36               	goto	u1040
  6949     0535                     u1041:
  6950     0535  2D37               	goto	l2354
  6951     0536                     u1040:
  6952     0536  2D59               	goto	l405
  6953     0537                     l2354:
  6954                           
  6955                           ;LED.c: 239:     for (uint8_t ii = 0; ii < 25; ii++) {
  6956     0537  01F3               	clrf	white_fad_out@ii
  6957     0538                     l2360:
  6958                           
  6959                           ;LED.c: 240:       all_white_led_turn_on();
  6960     0538  3187  2721  3185   	fcall	_all_white_led_turn_on
  6961     053B                     l2362:
  6962                           
  6963                           ;LED.c: 241:       delay_us(pwm_idx);
  6964     053B  0874               	movf	white_fad_out@pwm_idx,w
  6965     053C  3186  2602  3185   	fcall	_delay_us
  6966     053F                     l2364:
  6967                           
  6968                           ;LED.c: 242:       all_white_led_turn_off();
  6969     053F  3187  2724  3185   	fcall	_all_white_led_turn_off
  6970                           
  6971                           ;LED.c: 243:       delay_us(10 - pwm_idx);
  6972     0542  0874               	movf	white_fad_out@pwm_idx,w
  6973     0543  3C0A               	sublw	10
  6974     0544  3186  2602  3185   	fcall	_delay_us
  6975     0547                     l2366:
  6976                           
  6977                           ;LED.c: 244:     }
  6978     0547  3001               	movlw	1
  6979     0548  00F2               	movwf	??_white_fad_out
  6980     0549  0872               	movf	??_white_fad_out,w
  6981     054A  07F3               	addwf	white_fad_out@ii,f
  6982     054B                     l2368:
  6983     054B  3019               	movlw	25
  6984     054C  0273               	subwf	white_fad_out@ii,w
  6985     054D  1C03               	skipc
  6986     054E  2D50               	goto	u1051
  6987     054F  2D51               	goto	u1050
  6988     0550                     u1051:
  6989     0550  2D38               	goto	l2360
  6990     0551                     u1050:
  6991     0551                     l2370:
  6992                           
  6993                           ;LED.c: 245:   }
  6994     0551  30FF               	movlw	255
  6995     0552  00F2               	movwf	??_white_fad_out
  6996     0553  0872               	movf	??_white_fad_out,w
  6997     0554  07F4               	addwf	white_fad_out@pwm_idx,f
  6998     0555                     l2372:
  6999     0555  1FF4               	btfss	white_fad_out@pwm_idx,7
  7000     0556  2D58               	goto	u1061
  7001     0557  2D59               	goto	u1060
  7002     0558                     u1061:
  7003     0558  2D31               	goto	l400
  7004     0559                     u1060:
  7005     0559                     l405:
  7006     0559  0008               	return
  7007     055A                     __end_of_white_fad_out:
  7008                           
  7009                           	psect	text49
  7010     0602                     __ptext49:	
  7011 ;; *************** function _delay_us *****************
  7012 ;; Defined at:
  7013 ;;		line 202 in file "LED.c"
  7014 ;; Parameters:    Size  Location     Type
  7015 ;;  us              1    wreg     char 
  7016 ;; Auto vars:     Size  Location     Type
  7017 ;;  us              1    1[COMMON] char 
  7018 ;; Return value:  Size  Location     Type
  7019 ;;                  1    wreg      void 
  7020 ;; Registers used:
  7021 ;;		wreg, status,2, status,0
  7022 ;; Tracked objects:
  7023 ;;		On entry : 0/0
  7024 ;;		On exit  : 0/0
  7025 ;;		Unchanged: 0/0
  7026 ;; Data sizes:     COMMON   BANK0   BANK1   BANK2   BANK3   BANK4   BANK5   BANK6
  7027 ;;      Params:         0       0       0       0       0       0       0       0
  7028 ;;      Locals:         1       0       0       0       0       0       0       0
  7029 ;;      Temps:          1       0       0       0       0       0       0       0
  7030 ;;      Totals:         2       0       0       0       0       0       0       0
  7031 ;;Total ram usage:        2 bytes
  7032 ;; Hardware stack levels used: 1
  7033 ;; Hardware stack levels required when called: 3
  7034 ;; This function calls:
  7035 ;;		Nothing
  7036 ;; This function is called by:
  7037 ;;		_yellow_to_white
  7038 ;;		_white_fad_out
  7039 ;;		_yellow_seg1_forward
  7040 ;;		_yellow_seg2_forward
  7041 ;;		_yellow_seg3_forward
  7042 ;;		_yellow_seg4_forward
  7043 ;;		_yellow_seg5_forward
  7044 ;;		_yellow_seg6_forward
  7045 ;;		_yellow_seg7_forward
  7046 ;;		_yellow_seg1_backward
  7047 ;;		_yellow_seg2_backward
  7048 ;;		_yellow_seg3_backward
  7049 ;;		_yellow_seg4_backward
  7050 ;;		_yellow_seg5_backward
  7051 ;;		_yellow_seg6_backward
  7052 ;;		_yellow_seg7_backward
  7053 ;; This function uses a non-reentrant model
  7054 ;;
  7055                           
  7056     0602                     _delay_us:	
  7057                           ;psect for function _delay_us
  7058                           
  7059                           
  7060                           ;incstack = 0
  7061                           ; Regs used in _delay_us: [wreg+status,2+status,0]
  7062                           ;delay_us@us stored from wreg
  7063     0602  00F1               	movwf	delay_us@us
  7064     0603                     l2264:
  7065                           
  7066                           ;LED.c: 203:   while (us--)
  7067     0603  2E0A               	goto	l2268
  7068     0604                     l2266:
  7069                           
  7070                           ;LED.c: 204:     _delay((unsigned long)((148)*(32000000/4000000.0)));
  7071     0604  30EC               	movlw	236
  7072     0605                     u1917:
  7073     0605  3200               	nop2
  7074     0606  0B89               	decfsz	9,f
  7075     0607  2E05               	goto	u1917
  7076     0608  3200               	nop2
  7077     0609  3200               	nop2
  7078     060A                     l2268:
  7079                           
  7080                           ;LED.c: 203:   while (us--)
  7081     060A  30FF               	movlw	255
  7082     060B  00F0               	movwf	??_delay_us
  7083     060C  0870               	movf	??_delay_us,w
  7084     060D  07F1               	addwf	delay_us@us,f
  7085     060E  0A71               	incf	delay_us@us,w
  7086     060F  1D03               	btfss	3,2
  7087     0610  2E12               	goto	u981
  7088     0611  2E13               	goto	u980
  7089     0612                     u981:
  7090     0612  2E04               	goto	l2266
  7091     0613                     u980:
  7092     0613                     l382:
  7093     0613  0008               	return
  7094     0614                     __end_of_delay_us:
  7095                           
  7096                           	psect	text50
  7097     055A                     __ptext50:	
  7098 ;; *************** function _delay_ms *****************
  7099 ;; Defined at:
  7100 ;;		line 208 in file "LED.c"
  7101 ;; Parameters:    Size  Location     Type
  7102 ;;  ms              2    0[COMMON] unsigned short 
  7103 ;; Auto vars:     Size  Location     Type
  7104 ;;		None
  7105 ;; Return value:  Size  Location     Type
  7106 ;;                  1    wreg      void 
  7107 ;; Registers used:
  7108 ;;		wreg, status,2, status,0
  7109 ;; Tracked objects:
  7110 ;;		On entry : 0/0
  7111 ;;		On exit  : 0/0
  7112 ;;		Unchanged: 0/0
  7113 ;; Data sizes:     COMMON   BANK0   BANK1   BANK2   BANK3   BANK4   BANK5   BANK6
  7114 ;;      Params:         2       0       0       0       0       0       0       0
  7115 ;;      Locals:         0       0       0       0       0       0       0       0
  7116 ;;      Temps:          1       0       0       0       0       0       0       0
  7117 ;;      Totals:         3       0       0       0       0       0       0       0
  7118 ;;Total ram usage:        3 bytes
  7119 ;; Hardware stack levels used: 1
  7120 ;; Hardware stack levels required when called: 3
  7121 ;; This function calls:
  7122 ;;		Nothing
  7123 ;; This function is called by:
  7124 ;;		_check_welcome_light
  7125 ;; This function uses a non-reentrant model
  7126 ;;
  7127                           
  7128     055A                     _delay_ms:	
  7129                           ;psect for function _delay_ms
  7130                           
  7131     055A                     l2304:	
  7132                           ;incstack = 0
  7133                           ; Regs used in _delay_ms: [wreg+status,2+status,0]
  7134                           
  7135                           
  7136                           ;LED.c: 209:   while (ms--) {
  7137     055A  2D68               	goto	l2310
  7138     055B                     l386:
  7139                           
  7140                           ;LED.c: 210:     if (PORTBbits.RB1) {
  7141     055B  0020               	movlb	0	; select bank0
  7142     055C  1C8D               	btfss	13,1	;volatile
  7143     055D  2D5F               	goto	u991
  7144     055E  2D60               	goto	u990
  7145     055F                     u991:
  7146     055F  2D61               	goto	l2308
  7147     0560                     u990:
  7148     0560  2D74               	goto	l389
  7149     0561                     l2308:
  7150                           
  7151                           ;LED.c: 213:     _delay((unsigned long)((990)*(32000000/4000000.0)));
  7152     0561  300B               	movlw	11
  7153     0562  00F2               	movwf	??_delay_ms
  7154     0563  3048               	movlw	72
  7155     0564                     u1927:
  7156     0564  0B89               	decfsz	9,f
  7157     0565  2D64               	goto	u1927
  7158     0566  0BF2               	decfsz	??_delay_ms,f
  7159     0567  2D64               	goto	u1927
  7160     0568                     l2310:
  7161                           
  7162                           ;LED.c: 209:   while (ms--) {
  7163     0568  3001               	movlw	1
  7164     0569  02F0               	subwf	delay_ms@ms,f
  7165     056A  3000               	movlw	0
  7166     056B  3BF1               	subwfb	delay_ms@ms+1,f
  7167     056C  0A70               	incf	delay_ms@ms,w
  7168     056D  1D03               	skipz
  7169     056E  2D73               	goto	u1001
  7170     056F  0A71               	incf	delay_ms@ms+1,w
  7171     0570  1D03               	btfss	3,2
  7172     0571  2D73               	goto	u1001
  7173     0572  2D74               	goto	u1000
  7174     0573                     u1001:
  7175     0573  2D5B               	goto	l386
  7176     0574                     u1000:
  7177     0574                     l389:
  7178     0574  0008               	return
  7179     0575                     __end_of_delay_ms:
  7180                           
  7181                           	psect	text51
  7182     0691                     __ptext51:	
  7183 ;; *************** function _all_led_off *****************
  7184 ;; Defined at:
  7185 ;;		line 180 in file "LED.c"
  7186 ;; Parameters:    Size  Location     Type
  7187 ;;		None
  7188 ;; Auto vars:     Size  Location     Type
  7189 ;;		None
  7190 ;; Return value:  Size  Location     Type
  7191 ;;                  1    wreg      void 
  7192 ;; Registers used:
  7193 ;;		wreg, status,2, status,0, pclath, cstack
  7194 ;; Tracked objects:
  7195 ;;		On entry : 0/0
  7196 ;;		On exit  : 0/0
  7197 ;;		Unchanged: 0/0
  7198 ;; Data sizes:     COMMON   BANK0   BANK1   BANK2   BANK3   BANK4   BANK5   BANK6
  7199 ;;      Params:         0       0       0       0       0       0       0       0
  7200 ;;      Locals:         0       0       0       0       0       0       0       0
  7201 ;;      Temps:          0       0       0       0       0       0       0       0
  7202 ;;      Totals:         0       0       0       0       0       0       0       0
  7203 ;;Total ram usage:        0 bytes
  7204 ;; Hardware stack levels used: 1
  7205 ;; Hardware stack levels required when called: 5
  7206 ;; This function calls:
  7207 ;;		_PWM_turn_signals
  7208 ;;		_all_white_led_turn_off
  7209 ;;		_all_yellow_led_turn_off
  7210 ;; This function is called by:
  7211 ;;		_turn_signals_state_update
  7212 ;;		_turn_on_turn_signals
  7213 ;;		_check_welcome_light
  7214 ;;		_LED_main
  7215 ;; This function uses a non-reentrant model
  7216 ;;
  7217                           
  7218     0691                     _all_led_off:	
  7219                           ;psect for function _all_led_off
  7220                           
  7221     0691                     l2294:	
  7222                           ;incstack = 0
  7223                           ; Regs used in _all_led_off: [wreg+status,2+status,0+pclath+cstack]
  7224                           
  7225                           
  7226                           ;LED.c: 181:   all_yellow_led_turn_off();
  7227     0691  3186  26CA  3186   	fcall	_all_yellow_led_turn_off
  7228     0694                     l2296:
  7229                           
  7230                           ;LED.c: 182:   all_white_led_turn_off();
  7231     0694  3187  2724  3186   	fcall	_all_white_led_turn_off
  7232     0697                     l2298:
  7233                           
  7234                           ;LED.c: 183:   PWM_turn_signals();
  7235     0697  3186  26A3  3186   	fcall	_PWM_turn_signals
  7236     069A                     l355:
  7237     069A  0008               	return
  7238     069B                     __end_of_all_led_off:
  7239                           
  7240                           	psect	text52
  7241     06A3                     __ptext52:	
  7242 ;; *************** function _PWM_turn_signals *****************
  7243 ;; Defined at:
  7244 ;;		line 146 in file "LED.c"
  7245 ;; Parameters:    Size  Location     Type
  7246 ;;		None
  7247 ;; Auto vars:     Size  Location     Type
  7248 ;;		None
  7249 ;; Return value:  Size  Location     Type
  7250 ;;                  1    wreg      void 
  7251 ;; Registers used:
  7252 ;;		wreg, status,2, status,0, pclath, cstack
  7253 ;; Tracked objects:
  7254 ;;		On entry : 0/0
  7255 ;;		On exit  : 0/0
  7256 ;;		Unchanged: 0/0
  7257 ;; Data sizes:     COMMON   BANK0   BANK1   BANK2   BANK3   BANK4   BANK5   BANK6
  7258 ;;      Params:         0       0       0       0       0       0       0       0
  7259 ;;      Locals:         0       0       0       0       0       0       0       0
  7260 ;;      Temps:          0       0       0       0       0       0       0       0
  7261 ;;      Totals:         0       0       0       0       0       0       0       0
  7262 ;;Total ram usage:        0 bytes
  7263 ;; Hardware stack levels used: 1
  7264 ;; Hardware stack levels required when called: 4
  7265 ;; This function calls:
  7266 ;;		_EPWM1_LoadDutyValue
  7267 ;; This function is called by:
  7268 ;;		_all_led_off
  7269 ;; This function uses a non-reentrant model
  7270 ;;
  7271                           
  7272     06A3                     _PWM_turn_signals:	
  7273                           ;psect for function _PWM_turn_signals
  7274                           
  7275     06A3                     l2262:	
  7276                           ;incstack = 0
  7277                           ; Regs used in _PWM_turn_signals: [wreg+status,2+status,0+pclath+cstack]
  7278                           
  7279     06A3  30E8               	movlw	232
  7280     06A4  00F0               	movwf	EPWM1_LoadDutyValue@dutyValue
  7281     06A5  3003               	movlw	3
  7282     06A6  00F1               	movwf	EPWM1_LoadDutyValue@dutyValue+1
  7283     06A7  3185  25D8  3186   	fcall	_EPWM1_LoadDutyValue
  7284     06AA                     l335:
  7285     06AA  0008               	return
  7286     06AB                     __end_of_PWM_turn_signals:
  7287                           
  7288                           	psect	text53
  7289     0652                     __ptext53:	
  7290 ;; *************** function _check_test_mode *****************
  7291 ;; Defined at:
  7292 ;;		line 479 in file "LED.c"
  7293 ;; Parameters:    Size  Location     Type
  7294 ;;		None
  7295 ;; Auto vars:     Size  Location     Type
  7296 ;;		None
  7297 ;; Return value:  Size  Location     Type
  7298 ;;                  1    wreg      void 
  7299 ;; Registers used:
  7300 ;;		wreg
  7301 ;; Tracked objects:
  7302 ;;		On entry : 0/0
  7303 ;;		On exit  : 0/0
  7304 ;;		Unchanged: 0/0
  7305 ;; Data sizes:     COMMON   BANK0   BANK1   BANK2   BANK3   BANK4   BANK5   BANK6
  7306 ;;      Params:         0       0       0       0       0       0       0       0
  7307 ;;      Locals:         0       0       0       0       0       0       0       0
  7308 ;;      Temps:          0       0       0       0       0       0       0       0
  7309 ;;      Totals:         0       0       0       0       0       0       0       0
  7310 ;;Total ram usage:        0 bytes
  7311 ;; Hardware stack levels used: 1
  7312 ;; Hardware stack levels required when called: 3
  7313 ;; This function calls:
  7314 ;;		Nothing
  7315 ;; This function is called by:
  7316 ;;		_LED_main
  7317 ;; This function uses a non-reentrant model
  7318 ;;
  7319                           
  7320     0652                     _check_test_mode:	
  7321                           ;psect for function _check_test_mode
  7322                           
  7323     0652                     l2834:	
  7324                           ;incstack = 0
  7325                           ; Regs used in _check_test_mode: [wreg]
  7326                           
  7327                           
  7328                           ;LED.c: 480:   if (ORB.TEST) {
  7329     0652  1E7A               	btfss	_ORB,4
  7330     0653  2E55               	goto	u1661
  7331     0654  2E56               	goto	u1660
  7332     0655                     u1661:
  7333     0655  2E5B               	goto	l2838
  7334     0656                     u1660:
  7335     0656                     l2836:
  7336                           
  7337                           ;LED.c: 481:     tDelay_ms = 1000;
  7338     0656  30E8               	movlw	232
  7339     0657  00FC               	movwf	_tDelay_ms
  7340     0658  3003               	movlw	3
  7341     0659  00FD               	movwf	_tDelay_ms+1
  7342                           
  7343                           ;LED.c: 482:   } else {
  7344     065A  2E5F               	goto	l522
  7345     065B                     l2838:
  7346                           
  7347                           ;LED.c: 483:     tDelay_ms = 33;
  7348     065B  3021               	movlw	33
  7349     065C  00FC               	movwf	_tDelay_ms
  7350     065D  3000               	movlw	0
  7351     065E  00FD               	movwf	_tDelay_ms+1
  7352     065F                     l522:
  7353     065F  0008               	return
  7354     0660                     __end_of_check_test_mode:
  7355                           
  7356                           	psect	text54
  7357     0685                     __ptext54:	
  7358 ;; *************** function _check_POS_P2 *****************
  7359 ;; Defined at:
  7360 ;;		line 488 in file "LED.c"
  7361 ;; Parameters:    Size  Location     Type
  7362 ;;		None
  7363 ;; Auto vars:     Size  Location     Type
  7364 ;;		None
  7365 ;; Return value:  Size  Location     Type
  7366 ;;                  1    wreg      void 
  7367 ;; Registers used:
  7368 ;;		status,2, status,0, pclath, cstack
  7369 ;; Tracked objects:
  7370 ;;		On entry : 0/0
  7371 ;;		On exit  : 0/0
  7372 ;;		Unchanged: 0/0
  7373 ;; Data sizes:     COMMON   BANK0   BANK1   BANK2   BANK3   BANK4   BANK5   BANK6
  7374 ;;      Params:         0       0       0       0       0       0       0       0
  7375 ;;      Locals:         0       0       0       0       0       0       0       0
  7376 ;;      Temps:          0       0       0       0       0       0       0       0
  7377 ;;      Totals:         0       0       0       0       0       0       0       0
  7378 ;;Total ram usage:        0 bytes
  7379 ;; Hardware stack levels used: 1
  7380 ;; Hardware stack levels required when called: 4
  7381 ;; This function calls:
  7382 ;;		_P2_off
  7383 ;;		_P2_on
  7384 ;; This function is called by:
  7385 ;;		_LED_main
  7386 ;; This function uses a non-reentrant model
  7387 ;;
  7388                           
  7389     0685                     _check_POS_P2:	
  7390                           ;psect for function _check_POS_P2
  7391                           
  7392     0685                     l2840:	
  7393                           ;incstack = 0
  7394                           ; Regs used in _check_POS_P2: [status,2+status,0+pclath+cstack]
  7395                           
  7396                           
  7397                           ;LED.c: 489:   if (ORB.POS) {
  7398     0685  1D7A               	btfss	_ORB,2
  7399     0686  2E88               	goto	u1671
  7400     0687  2E89               	goto	u1670
  7401     0688                     u1671:
  7402     0688  2E8D               	goto	l2844
  7403     0689                     u1670:
  7404     0689                     l2842:
  7405                           
  7406                           ;LED.c: 490:     P2_on();
  7407     0689  3187  271B  3186   	fcall	_P2_on
  7408                           
  7409                           ;LED.c: 491:   } else {
  7410     068C  2E90               	goto	l527
  7411     068D                     l2844:
  7412                           
  7413                           ;LED.c: 492:     P2_off();
  7414     068D  3187  271E  3186   	fcall	_P2_off
  7415     0690                     l527:
  7416     0690  0008               	return
  7417     0691                     __end_of_check_POS_P2:
  7418                           
  7419                           	psect	text55
  7420     071B                     __ptext55:	
  7421 ;; *************** function _P2_on *****************
  7422 ;; Defined at:
  7423 ;;		line 138 in file "LED.c"
  7424 ;; Parameters:    Size  Location     Type
  7425 ;;		None
  7426 ;; Auto vars:     Size  Location     Type
  7427 ;;		None
  7428 ;; Return value:  Size  Location     Type
  7429 ;;                  1    wreg      void 
  7430 ;; Registers used:
  7431 ;;		None
  7432 ;; Tracked objects:
  7433 ;;		On entry : 0/0
  7434 ;;		On exit  : 0/0
  7435 ;;		Unchanged: 0/0
  7436 ;; Data sizes:     COMMON   BANK0   BANK1   BANK2   BANK3   BANK4   BANK5   BANK6
  7437 ;;      Params:         0       0       0       0       0       0       0       0
  7438 ;;      Locals:         0       0       0       0       0       0       0       0
  7439 ;;      Temps:          0       0       0       0       0       0       0       0
  7440 ;;      Totals:         0       0       0       0       0       0       0       0
  7441 ;;Total ram usage:        0 bytes
  7442 ;; Hardware stack levels used: 1
  7443 ;; Hardware stack levels required when called: 3
  7444 ;; This function calls:
  7445 ;;		Nothing
  7446 ;; This function is called by:
  7447 ;;		_check_POS_P2
  7448 ;; This function uses a non-reentrant model
  7449 ;;
  7450                           
  7451     071B                     _P2_on:	
  7452                           ;psect for function _P2_on
  7453                           
  7454     071B                     l319:	
  7455                           ;incstack = 0
  7456                           ; Regs used in _P2_on: []
  7457                           
  7458     071B  0022               	movlb	2	; select bank2
  7459     071C  160E               	bsf	14,4	;volatile
  7460     071D                     l321:
  7461     071D  0008               	return
  7462     071E                     __end_of_P2_on:
  7463                           
  7464                           	psect	text56
  7465     071E                     __ptext56:	
  7466 ;; *************** function _P2_off *****************
  7467 ;; Defined at:
  7468 ;;		line 139 in file "LED.c"
  7469 ;; Parameters:    Size  Location     Type
  7470 ;;		None
  7471 ;; Auto vars:     Size  Location     Type
  7472 ;;		None
  7473 ;; Return value:  Size  Location     Type
  7474 ;;                  1    wreg      void 
  7475 ;; Registers used:
  7476 ;;		None
  7477 ;; Tracked objects:
  7478 ;;		On entry : 0/0
  7479 ;;		On exit  : 0/0
  7480 ;;		Unchanged: 0/0
  7481 ;; Data sizes:     COMMON   BANK0   BANK1   BANK2   BANK3   BANK4   BANK5   BANK6
  7482 ;;      Params:         0       0       0       0       0       0       0       0
  7483 ;;      Locals:         0       0       0       0       0       0       0       0
  7484 ;;      Temps:          0       0       0       0       0       0       0       0
  7485 ;;      Totals:         0       0       0       0       0       0       0       0
  7486 ;;Total ram usage:        0 bytes
  7487 ;; Hardware stack levels used: 1
  7488 ;; Hardware stack levels required when called: 3
  7489 ;; This function calls:
  7490 ;;		Nothing
  7491 ;; This function is called by:
  7492 ;;		_check_POS_P2
  7493 ;; This function uses a non-reentrant model
  7494 ;;
  7495                           
  7496     071E                     _P2_off:	
  7497                           ;psect for function _P2_off
  7498                           
  7499     071E                     l324:	
  7500                           ;incstack = 0
  7501                           ; Regs used in _P2_off: []
  7502                           
  7503     071E  0022               	movlb	2	; select bank2
  7504     071F  120E               	bcf	14,4	;volatile
  7505     0720                     l326:
  7506     0720  0008               	return
  7507     0721                     __end_of_P2_off:
  7508                           
  7509                           	psect	text57
  7510     0575                     __ptext57:	
  7511 ;; *************** function _POS_on *****************
  7512 ;; Defined at:
  7513 ;;		line 165 in file "LED.c"
  7514 ;; Parameters:    Size  Location     Type
  7515 ;;		None
  7516 ;; Auto vars:     Size  Location     Type
  7517 ;;		None
  7518 ;; Return value:  Size  Location     Type
  7519 ;;                  1    wreg      void 
  7520 ;; Registers used:
  7521 ;;		wreg, status,2, status,0, pclath, cstack
  7522 ;; Tracked objects:
  7523 ;;		On entry : 0/0
  7524 ;;		On exit  : 0/0
  7525 ;;		Unchanged: 0/0
  7526 ;; Data sizes:     COMMON   BANK0   BANK1   BANK2   BANK3   BANK4   BANK5   BANK6
  7527 ;;      Params:         0       0       0       0       0       0       0       0
  7528 ;;      Locals:         0       0       0       0       0       0       0       0
  7529 ;;      Temps:          0       0       0       0       0       0       0       0
  7530 ;;      Totals:         0       0       0       0       0       0       0       0
  7531 ;;Total ram usage:        0 bytes
  7532 ;; Hardware stack levels used: 1
  7533 ;; Hardware stack levels required when called: 5
  7534 ;; This function calls:
  7535 ;;		_PWM_POS
  7536 ;;		_all_white_led_turn_off
  7537 ;;		_all_white_led_turn_on
  7538 ;;		_all_yellow_led_turn_off
  7539 ;;		_all_yellow_led_turn_on
  7540 ;; This function is called by:
  7541 ;;		_LED_main
  7542 ;; This function uses a non-reentrant model
  7543 ;;
  7544                           
  7545     0575                     _POS_on:	
  7546                           ;psect for function _POS_on
  7547                           
  7548     0575                     l2816:	
  7549                           ;incstack = 0
  7550                           ; Regs used in _POS_on: [wreg+status,2+status,0+pclath+cstack]
  7551                           
  7552                           
  7553                           ;LED.c: 166:   if (ORB.WHITE) {
  7554     0575  1DFA               	btfss	_ORB,3
  7555     0576  2D78               	goto	u1641
  7556     0577  2D79               	goto	u1640
  7557     0578                     u1641:
  7558     0578  2D7D               	goto	l2820
  7559     0579                     u1640:
  7560     0579                     l2818:
  7561                           
  7562                           ;LED.c: 167:     all_yellow_led_turn_off();
  7563     0579  3186  26CA  3185   	fcall	_all_yellow_led_turn_off
  7564                           
  7565                           ;LED.c: 168:   } else {
  7566     057C  2D80               	goto	l2822
  7567     057D                     l2820:
  7568                           
  7569                           ;LED.c: 169:     all_white_led_turn_off();
  7570     057D  3187  2724  3185   	fcall	_all_white_led_turn_off
  7571     0580                     l2822:
  7572                           
  7573                           ;LED.c: 171:   PWM_POS();
  7574     0580  3186  26AB  3185   	fcall	_PWM_POS
  7575     0583                     l2824:
  7576                           
  7577                           ;LED.c: 172:   if (ORB.WHITE) {
  7578     0583  1DFA               	btfss	_ORB,3
  7579     0584  2D86               	goto	u1651
  7580     0585  2D87               	goto	u1650
  7581     0586                     u1651:
  7582     0586  2D8B               	goto	l2828
  7583     0587                     u1650:
  7584     0587                     l2826:
  7585                           
  7586                           ;LED.c: 173:     all_white_led_turn_on();
  7587     0587  3187  2721  3185   	fcall	_all_white_led_turn_on
  7588                           
  7589                           ;LED.c: 174:   } else {
  7590     058A  2D8E               	goto	l352
  7591     058B                     l2828:
  7592                           
  7593                           ;LED.c: 175:     all_yellow_led_turn_on();
  7594     058B  3186  26B3  3185   	fcall	_all_yellow_led_turn_on
  7595     058E                     l352:
  7596     058E  0008               	return
  7597     058F                     __end_of_POS_on:
  7598                           
  7599                           	psect	text58
  7600     06AB                     __ptext58:	
  7601 ;; *************** function _PWM_POS *****************
  7602 ;; Defined at:
  7603 ;;		line 145 in file "LED.c"
  7604 ;; Parameters:    Size  Location     Type
  7605 ;;		None
  7606 ;; Auto vars:     Size  Location     Type
  7607 ;;		None
  7608 ;; Return value:  Size  Location     Type
  7609 ;;                  1    wreg      void 
  7610 ;; Registers used:
  7611 ;;		wreg, status,2, status,0, pclath, cstack
  7612 ;; Tracked objects:
  7613 ;;		On entry : 0/0
  7614 ;;		On exit  : 0/0
  7615 ;;		Unchanged: 0/0
  7616 ;; Data sizes:     COMMON   BANK0   BANK1   BANK2   BANK3   BANK4   BANK5   BANK6
  7617 ;;      Params:         0       0       0       0       0       0       0       0
  7618 ;;      Locals:         0       0       0       0       0       0       0       0
  7619 ;;      Temps:          0       0       0       0       0       0       0       0
  7620 ;;      Totals:         0       0       0       0       0       0       0       0
  7621 ;;Total ram usage:        0 bytes
  7622 ;; Hardware stack levels used: 1
  7623 ;; Hardware stack levels required when called: 4
  7624 ;; This function calls:
  7625 ;;		_EPWM1_LoadDutyValue
  7626 ;; This function is called by:
  7627 ;;		_POS_on
  7628 ;; This function uses a non-reentrant model
  7629 ;;
  7630                           
  7631     06AB                     _PWM_POS:	
  7632                           ;psect for function _PWM_POS
  7633                           
  7634     06AB                     l2302:	
  7635                           ;incstack = 0
  7636                           ; Regs used in _PWM_POS: [wreg+status,2+status,0+pclath+cstack]
  7637                           
  7638     06AB  303C               	movlw	60
  7639     06AC  00F0               	movwf	EPWM1_LoadDutyValue@dutyValue
  7640     06AD  3000               	movlw	0
  7641     06AE  00F1               	movwf	EPWM1_LoadDutyValue@dutyValue+1
  7642     06AF  3185  25D8  3186   	fcall	_EPWM1_LoadDutyValue
  7643     06B2                     l332:
  7644     06B2  0008               	return
  7645     06B3                     __end_of_PWM_POS:
  7646                           
  7647                           	psect	text59
  7648     058F                     __ptext59:	
  7649 ;; *************** function _DRL_on *****************
  7650 ;; Defined at:
  7651 ;;		line 150 in file "LED.c"
  7652 ;; Parameters:    Size  Location     Type
  7653 ;;		None
  7654 ;; Auto vars:     Size  Location     Type
  7655 ;;		None
  7656 ;; Return value:  Size  Location     Type
  7657 ;;                  1    wreg      void 
  7658 ;; Registers used:
  7659 ;;		wreg, status,2, status,0, pclath, cstack
  7660 ;; Tracked objects:
  7661 ;;		On entry : 0/0
  7662 ;;		On exit  : 0/0
  7663 ;;		Unchanged: 0/0
  7664 ;; Data sizes:     COMMON   BANK0   BANK1   BANK2   BANK3   BANK4   BANK5   BANK6
  7665 ;;      Params:         0       0       0       0       0       0       0       0
  7666 ;;      Locals:         0       0       0       0       0       0       0       0
  7667 ;;      Temps:          0       0       0       0       0       0       0       0
  7668 ;;      Totals:         0       0       0       0       0       0       0       0
  7669 ;;Total ram usage:        0 bytes
  7670 ;; Hardware stack levels used: 1
  7671 ;; Hardware stack levels required when called: 5
  7672 ;; This function calls:
  7673 ;;		_PWM_DRL
  7674 ;;		_all_white_led_turn_off
  7675 ;;		_all_white_led_turn_on
  7676 ;;		_all_yellow_led_turn_off
  7677 ;;		_all_yellow_led_turn_on
  7678 ;; This function is called by:
  7679 ;;		_LED_main
  7680 ;; This function uses a non-reentrant model
  7681 ;;
  7682                           
  7683     058F                     _DRL_on:	
  7684                           ;psect for function _DRL_on
  7685                           
  7686     058F                     l2802:	
  7687                           ;incstack = 0
  7688                           ; Regs used in _DRL_on: [wreg+status,2+status,0+pclath+cstack]
  7689                           
  7690                           
  7691                           ;LED.c: 151:   if (ORB.WHITE) {
  7692     058F  1DFA               	btfss	_ORB,3
  7693     0590  2D92               	goto	u1621
  7694     0591  2D93               	goto	u1620
  7695     0592                     u1621:
  7696     0592  2D97               	goto	l2806
  7697     0593                     u1620:
  7698     0593                     l2804:
  7699                           
  7700                           ;LED.c: 152:     all_yellow_led_turn_off();
  7701     0593  3186  26CA  3185   	fcall	_all_yellow_led_turn_off
  7702                           
  7703                           ;LED.c: 153:   } else {
  7704     0596  2D9A               	goto	l2808
  7705     0597                     l2806:
  7706                           
  7707                           ;LED.c: 154:     all_white_led_turn_off();
  7708     0597  3187  2724  3185   	fcall	_all_white_led_turn_off
  7709     059A                     l2808:
  7710                           
  7711                           ;LED.c: 156:   PWM_DRL();
  7712     059A  3186  26BB  3185   	fcall	_PWM_DRL
  7713     059D                     l2810:
  7714                           
  7715                           ;LED.c: 157:   if (ORB.WHITE) {
  7716     059D  1DFA               	btfss	_ORB,3
  7717     059E  2DA0               	goto	u1631
  7718     059F  2DA1               	goto	u1630
  7719     05A0                     u1631:
  7720     05A0  2DA5               	goto	l2814
  7721     05A1                     u1630:
  7722     05A1                     l2812:
  7723                           
  7724                           ;LED.c: 158:     all_white_led_turn_on();
  7725     05A1  3187  2721  3185   	fcall	_all_white_led_turn_on
  7726                           
  7727                           ;LED.c: 159:   } else {
  7728     05A4  2DA8               	goto	l345
  7729     05A5                     l2814:
  7730                           
  7731                           ;LED.c: 160:     all_yellow_led_turn_on();
  7732     05A5  3186  26B3  3185   	fcall	_all_yellow_led_turn_on
  7733     05A8                     l345:
  7734     05A8  0008               	return
  7735     05A9                     __end_of_DRL_on:
  7736                           
  7737                           	psect	text60
  7738     06B3                     __ptext60:	
  7739 ;; *************** function _all_yellow_led_turn_on *****************
  7740 ;; Defined at:
  7741 ;;		line 122 in file "LED.c"
  7742 ;; Parameters:    Size  Location     Type
  7743 ;;		None
  7744 ;; Auto vars:     Size  Location     Type
  7745 ;;		None
  7746 ;; Return value:  Size  Location     Type
  7747 ;;                  1    wreg      void 
  7748 ;; Registers used:
  7749 ;;		wreg, status,2, status,0
  7750 ;; Tracked objects:
  7751 ;;		On entry : 0/0
  7752 ;;		On exit  : 0/0
  7753 ;;		Unchanged: 0/0
  7754 ;; Data sizes:     COMMON   BANK0   BANK1   BANK2   BANK3   BANK4   BANK5   BANK6
  7755 ;;      Params:         0       0       0       0       0       0       0       0
  7756 ;;      Locals:         0       0       0       0       0       0       0       0
  7757 ;;      Temps:          1       0       0       0       0       0       0       0
  7758 ;;      Totals:         1       0       0       0       0       0       0       0
  7759 ;;Total ram usage:        1 bytes
  7760 ;; Hardware stack levels used: 1
  7761 ;; Hardware stack levels required when called: 3
  7762 ;; This function calls:
  7763 ;;		Nothing
  7764 ;; This function is called by:
  7765 ;;		_DRL_on
  7766 ;;		_POS_on
  7767 ;;		_yellow_to_white
  7768 ;; This function uses a non-reentrant model
  7769 ;;
  7770                           
  7771     06B3                     _all_yellow_led_turn_on:	
  7772                           ;psect for function _all_yellow_led_turn_on
  7773                           
  7774     06B3                     l2250:	
  7775                           ;incstack = 0
  7776                           ; Regs used in _all_yellow_led_turn_on: [wreg+status,2+status,0]
  7777                           
  7778                           
  7779                           ;LED.c: 123:   LATA |= 0xff;
  7780     06B3  30FF               	movlw	255
  7781     06B4  0022               	movlb	2	; select bank2
  7782     06B5  008C               	movwf	12	;volatile
  7783     06B6                     l2252:
  7784                           
  7785                           ;LED.c: 124:   LATC |= 0x03;
  7786     06B6  3003               	movlw	3
  7787     06B7  00F0               	movwf	??_all_yellow_led_turn_on
  7788     06B8  0870               	movf	??_all_yellow_led_turn_on,w
  7789     06B9  048E               	iorwf	14,f	;volatile
  7790     06BA                     l307:
  7791     06BA  0008               	return
  7792     06BB                     __end_of_all_yellow_led_turn_on:
  7793                           
  7794                           	psect	text61
  7795     06CA                     __ptext61:	
  7796 ;; *************** function _all_yellow_led_turn_off *****************
  7797 ;; Defined at:
  7798 ;;		line 128 in file "LED.c"
  7799 ;; Parameters:    Size  Location     Type
  7800 ;;		None
  7801 ;; Auto vars:     Size  Location     Type
  7802 ;;		None
  7803 ;; Return value:  Size  Location     Type
  7804 ;;                  1    wreg      void 
  7805 ;; Registers used:
  7806 ;;		wreg, status,2, status,0
  7807 ;; Tracked objects:
  7808 ;;		On entry : 0/0
  7809 ;;		On exit  : 0/0
  7810 ;;		Unchanged: 0/0
  7811 ;; Data sizes:     COMMON   BANK0   BANK1   BANK2   BANK3   BANK4   BANK5   BANK6
  7812 ;;      Params:         0       0       0       0       0       0       0       0
  7813 ;;      Locals:         0       0       0       0       0       0       0       0
  7814 ;;      Temps:          1       0       0       0       0       0       0       0
  7815 ;;      Totals:         1       0       0       0       0       0       0       0
  7816 ;;Total ram usage:        1 bytes
  7817 ;; Hardware stack levels used: 1
  7818 ;; Hardware stack levels required when called: 3
  7819 ;; This function calls:
  7820 ;;		Nothing
  7821 ;; This function is called by:
  7822 ;;		_DRL_on
  7823 ;;		_POS_on
  7824 ;;		_all_led_off
  7825 ;;		_yellow_to_white
  7826 ;; This function uses a non-reentrant model
  7827 ;;
  7828                           
  7829     06CA                     _all_yellow_led_turn_off:	
  7830                           ;psect for function _all_yellow_led_turn_off
  7831                           
  7832     06CA                     l2254:	
  7833                           ;incstack = 0
  7834                           ; Regs used in _all_yellow_led_turn_off: [wreg+status,2+status,0]
  7835                           
  7836                           
  7837                           ;LED.c: 129:   LATA &= 0x00;
  7838     06CA  0022               	movlb	2	; select bank2
  7839     06CB  018C               	clrf	12	;volatile
  7840     06CC                     l2256:
  7841                           
  7842                           ;LED.c: 130:   LATC &= 0xFC;
  7843     06CC  30FC               	movlw	252
  7844     06CD  00F0               	movwf	??_all_yellow_led_turn_off
  7845     06CE  0870               	movf	??_all_yellow_led_turn_off,w
  7846     06CF  058E               	andwf	14,f	;volatile
  7847     06D0                     l310:
  7848     06D0  0008               	return
  7849     06D1                     __end_of_all_yellow_led_turn_off:
  7850                           
  7851                           	psect	text62
  7852     0721                     __ptext62:	
  7853 ;; *************** function _all_white_led_turn_on *****************
  7854 ;; Defined at:
  7855 ;;		line 134 in file "LED.c"
  7856 ;; Parameters:    Size  Location     Type
  7857 ;;		None
  7858 ;; Auto vars:     Size  Location     Type
  7859 ;;		None
  7860 ;; Return value:  Size  Location     Type
  7861 ;;                  1    wreg      void 
  7862 ;; Registers used:
  7863 ;;		None
  7864 ;; Tracked objects:
  7865 ;;		On entry : 0/0
  7866 ;;		On exit  : 0/0
  7867 ;;		Unchanged: 0/0
  7868 ;; Data sizes:     COMMON   BANK0   BANK1   BANK2   BANK3   BANK4   BANK5   BANK6
  7869 ;;      Params:         0       0       0       0       0       0       0       0
  7870 ;;      Locals:         0       0       0       0       0       0       0       0
  7871 ;;      Temps:          0       0       0       0       0       0       0       0
  7872 ;;      Totals:         0       0       0       0       0       0       0       0
  7873 ;;Total ram usage:        0 bytes
  7874 ;; Hardware stack levels used: 1
  7875 ;; Hardware stack levels required when called: 3
  7876 ;; This function calls:
  7877 ;;		Nothing
  7878 ;; This function is called by:
  7879 ;;		_DRL_on
  7880 ;;		_POS_on
  7881 ;;		_yellow_to_white
  7882 ;;		_white_fad_out
  7883 ;; This function uses a non-reentrant model
  7884 ;;
  7885                           
  7886     0721                     _all_white_led_turn_on:	
  7887                           ;psect for function _all_white_led_turn_on
  7888                           
  7889     0721                     l2258:	
  7890                           ;incstack = 0
  7891                           ; Regs used in _all_white_led_turn_on: []
  7892                           
  7893     0721  0022               	movlb	2	; select bank2
  7894     0722  158E               	bsf	14,3	;volatile
  7895     0723                     l313:
  7896     0723  0008               	return
  7897     0724                     __end_of_all_white_led_turn_on:
  7898                           
  7899                           	psect	text63
  7900     0724                     __ptext63:	
  7901 ;; *************** function _all_white_led_turn_off *****************
  7902 ;; Defined at:
  7903 ;;		line 135 in file "LED.c"
  7904 ;; Parameters:    Size  Location     Type
  7905 ;;		None
  7906 ;; Auto vars:     Size  Location     Type
  7907 ;;		None
  7908 ;; Return value:  Size  Location     Type
  7909 ;;                  1    wreg      void 
  7910 ;; Registers used:
  7911 ;;		None
  7912 ;; Tracked objects:
  7913 ;;		On entry : 0/0
  7914 ;;		On exit  : 0/0
  7915 ;;		Unchanged: 0/0
  7916 ;; Data sizes:     COMMON   BANK0   BANK1   BANK2   BANK3   BANK4   BANK5   BANK6
  7917 ;;      Params:         0       0       0       0       0       0       0       0
  7918 ;;      Locals:         0       0       0       0       0       0       0       0
  7919 ;;      Temps:          0       0       0       0       0       0       0       0
  7920 ;;      Totals:         0       0       0       0       0       0       0       0
  7921 ;;Total ram usage:        0 bytes
  7922 ;; Hardware stack levels used: 1
  7923 ;; Hardware stack levels required when called: 3
  7924 ;; This function calls:
  7925 ;;		Nothing
  7926 ;; This function is called by:
  7927 ;;		_DRL_on
  7928 ;;		_POS_on
  7929 ;;		_all_led_off
  7930 ;;		_yellow_to_white
  7931 ;;		_white_fad_out
  7932 ;; This function uses a non-reentrant model
  7933 ;;
  7934                           
  7935     0724                     _all_white_led_turn_off:	
  7936                           ;psect for function _all_white_led_turn_off
  7937                           
  7938     0724                     l2260:	
  7939                           ;incstack = 0
  7940                           ; Regs used in _all_white_led_turn_off: []
  7941                           
  7942     0724  0022               	movlb	2	; select bank2
  7943     0725  118E               	bcf	14,3	;volatile
  7944     0726                     l316:
  7945     0726  0008               	return
  7946     0727                     __end_of_all_white_led_turn_off:
  7947                           
  7948                           	psect	text64
  7949     06BB                     __ptext64:	
  7950 ;; *************** function _PWM_DRL *****************
  7951 ;; Defined at:
  7952 ;;		line 144 in file "LED.c"
  7953 ;; Parameters:    Size  Location     Type
  7954 ;;		None
  7955 ;; Auto vars:     Size  Location     Type
  7956 ;;		None
  7957 ;; Return value:  Size  Location     Type
  7958 ;;                  1    wreg      void 
  7959 ;; Registers used:
  7960 ;;		wreg, status,2, status,0, pclath, cstack
  7961 ;; Tracked objects:
  7962 ;;		On entry : 0/0
  7963 ;;		On exit  : 0/0
  7964 ;;		Unchanged: 0/0
  7965 ;; Data sizes:     COMMON   BANK0   BANK1   BANK2   BANK3   BANK4   BANK5   BANK6
  7966 ;;      Params:         0       0       0       0       0       0       0       0
  7967 ;;      Locals:         0       0       0       0       0       0       0       0
  7968 ;;      Temps:          0       0       0       0       0       0       0       0
  7969 ;;      Totals:         0       0       0       0       0       0       0       0
  7970 ;;Total ram usage:        0 bytes
  7971 ;; Hardware stack levels used: 1
  7972 ;; Hardware stack levels required when called: 4
  7973 ;; This function calls:
  7974 ;;		_EPWM1_LoadDutyValue
  7975 ;; This function is called by:
  7976 ;;		_DRL_on
  7977 ;; This function uses a non-reentrant model
  7978 ;;
  7979                           
  7980     06BB                     _PWM_DRL:	
  7981                           ;psect for function _PWM_DRL
  7982                           
  7983     06BB                     l2300:	
  7984                           ;incstack = 0
  7985                           ; Regs used in _PWM_DRL: [wreg+status,2+status,0+pclath+cstack]
  7986                           
  7987     06BB  3058               	movlw	88
  7988     06BC  00F0               	movwf	EPWM1_LoadDutyValue@dutyValue
  7989     06BD  3002               	movlw	2
  7990     06BE  00F1               	movwf	EPWM1_LoadDutyValue@dutyValue+1
  7991     06BF  3185  25D8  3186   	fcall	_EPWM1_LoadDutyValue
  7992     06C2                     l329:
  7993     06C2  0008               	return
  7994     06C3                     __end_of_PWM_DRL:
  7995                           
  7996                           	psect	text65
  7997     05D8                     __ptext65:	
  7998 ;; *************** function _EPWM1_LoadDutyValue *****************
  7999 ;; Defined at:
  8000 ;;		line 90 in file "mcc_generated_files/epwm1.c"
  8001 ;; Parameters:    Size  Location     Type
  8002 ;;  dutyValue       2    0[COMMON] unsigned short 
  8003 ;; Auto vars:     Size  Location     Type
  8004 ;;		None
  8005 ;; Return value:  Size  Location     Type
  8006 ;;                  1    wreg      void 
  8007 ;; Registers used:
  8008 ;;		wreg, status,2, status,0
  8009 ;; Tracked objects:
  8010 ;;		On entry : 0/0
  8011 ;;		On exit  : 0/0
  8012 ;;		Unchanged: 0/0
  8013 ;; Data sizes:     COMMON   BANK0   BANK1   BANK2   BANK3   BANK4   BANK5   BANK6
  8014 ;;      Params:         2       0       0       0       0       0       0       0
  8015 ;;      Locals:         0       0       0       0       0       0       0       0
  8016 ;;      Temps:          2       0       0       0       0       0       0       0
  8017 ;;      Totals:         4       0       0       0       0       0       0       0
  8018 ;;Total ram usage:        4 bytes
  8019 ;; Hardware stack levels used: 1
  8020 ;; Hardware stack levels required when called: 3
  8021 ;; This function calls:
  8022 ;;		Nothing
  8023 ;; This function is called by:
  8024 ;;		_PWM_DRL
  8025 ;;		_PWM_POS
  8026 ;;		_PWM_turn_signals
  8027 ;;		_PWM_all_off
  8028 ;; This function uses a non-reentrant model
  8029 ;;
  8030                           
  8031     05D8                     _EPWM1_LoadDutyValue:	
  8032                           ;psect for function _EPWM1_LoadDutyValue
  8033                           
  8034     05D8                     l2248:	
  8035                           ;incstack = 0
  8036                           ; Regs used in _EPWM1_LoadDutyValue: [wreg+status,2+status,0]
  8037                           
  8038                           
  8039                           ;mcc_generated_files/epwm1.c: 90: void EPWM1_LoadDutyValue(uint16_t dutyValue);mcc_gener
      +                          ated_files/epwm1.c: 91: {;mcc_generated_files/epwm1.c: 93:     CCPR1L = ((dutyValue & 0x
      +                          03FC)>>2);
  8040     05D8  0871               	movf	EPWM1_LoadDutyValue@dutyValue+1,w
  8041     05D9  00F3               	movwf	??_EPWM1_LoadDutyValue+1
  8042     05DA  0870               	movf	EPWM1_LoadDutyValue@dutyValue,w
  8043     05DB  00F2               	movwf	??_EPWM1_LoadDutyValue
  8044     05DC  36F3               	lsrf	??_EPWM1_LoadDutyValue+1,f
  8045     05DD  0CF2               	rrf	??_EPWM1_LoadDutyValue,f
  8046     05DE  36F3               	lsrf	??_EPWM1_LoadDutyValue+1,f
  8047     05DF  0CF2               	rrf	??_EPWM1_LoadDutyValue,f
  8048     05E0  0872               	movf	??_EPWM1_LoadDutyValue,w
  8049     05E1  0025               	movlb	5	; select bank5
  8050     05E2  0091               	movwf	17	;volatile
  8051                           
  8052                           ;mcc_generated_files/epwm1.c: 96:     CCP1CON = (uint8_t)((CCP1CON & 0xCF) | ((dutyValue
      +                           & 0x0003)<<4));
  8053     05E3  0870               	movf	EPWM1_LoadDutyValue@dutyValue,w
  8054     05E4  3903               	andlw	3
  8055     05E5  00F2               	movwf	??_EPWM1_LoadDutyValue
  8056     05E6  3004               	movlw	4
  8057     05E7                     u975:
  8058     05E7  35F2               	lslf	??_EPWM1_LoadDutyValue,f
  8059     05E8  0B89               	decfsz	9,f
  8060     05E9  2DE7               	goto	u975
  8061     05EA  0813               	movf	19,w	;volatile
  8062     05EB  39CF               	andlw	207
  8063     05EC  0472               	iorwf	??_EPWM1_LoadDutyValue,w
  8064     05ED  0093               	movwf	19	;volatile
  8065     05EE                     l88:
  8066     05EE  0008               	return
  8067     05EF                     __end_of_EPWM1_LoadDutyValue:
  8068                           
  8069                           	psect	intentry
  8070     0004                     __pintentry:	
  8071 ;; *************** function _INTERRUPT_InterruptManager *****************
  8072 ;; Defined at:
  8073 ;;		line 52 in file "mcc_generated_files/interrupt_manager.c"
  8074 ;; Parameters:    Size  Location     Type
  8075 ;;		None
  8076 ;; Auto vars:     Size  Location     Type
  8077 ;;		None
  8078 ;; Return value:  Size  Location     Type
  8079 ;;                  1    wreg      void 
  8080 ;; Registers used:
  8081 ;;		wreg, status,2, status,0, pclath, cstack
  8082 ;; Tracked objects:
  8083 ;;		On entry : 0/0
  8084 ;;		On exit  : 0/0
  8085 ;;		Unchanged: 0/0
  8086 ;; Data sizes:     COMMON   BANK0   BANK1   BANK2   BANK3   BANK4   BANK5   BANK6
  8087 ;;      Params:         0       0       0       0       0       0       0       0
  8088 ;;      Locals:         0       0       0       0       0       0       0       0
  8089 ;;      Temps:          0       0       0       0       0       0       0       0
  8090 ;;      Totals:         0       0       0       0       0       0       0       0
  8091 ;;Total ram usage:        0 bytes
  8092 ;; Hardware stack levels used: 1
  8093 ;; Hardware stack levels required when called: 2
  8094 ;; This function calls:
  8095 ;;		_TMR0_ISR
  8096 ;; This function is called by:
  8097 ;;		Interrupt level 1
  8098 ;; This function uses a non-reentrant model
  8099 ;;
  8100                           
  8101     0004                     _INTERRUPT_InterruptManager:
  8102                           
  8103                           ;incstack = 0
  8104     0004  147E               	bsf	int$flags,0	;set compiler interrupt flag (level 1)
  8105                           
  8106                           ; Regs used in _INTERRUPT_InterruptManager: [wreg+status,2+status,0+pclath+cstack]
  8107     0005  3180               	pagesel	$
  8108     0006                     i1l3130:
  8109                           
  8110                           ;mcc_generated_files/interrupt_manager.c: 55:     if(INTCONbits.TMR0IE == 1 && INTCONbit
      +                          s.TMR0IF == 1)
  8111     0006  1E8B               	btfss	11,5	;volatile
  8112     0007  2809               	goto	u189_21
  8113     0008  280A               	goto	u189_20
  8114     0009                     u189_21:
  8115     0009  2811               	goto	i1l131
  8116     000A                     u189_20:
  8117     000A                     i1l3132:
  8118     000A  1D0B               	btfss	11,2	;volatile
  8119     000B  280D               	goto	u190_21
  8120     000C  280E               	goto	u190_20
  8121     000D                     u190_21:
  8122     000D  2811               	goto	i1l131
  8123     000E                     u190_20:
  8124     000E                     i1l3134:
  8125                           
  8126                           ;mcc_generated_files/interrupt_manager.c: 56:     {;mcc_generated_files/interrupt_manage
      +                          r.c: 57:         TMR0_ISR();
  8127     000E  3186  2624  3180   	fcall	_TMR0_ISR
  8128     0011                     i1l131:	
  8129                           ;mcc_generated_files/interrupt_manager.c: 58:     }
  8130                           
  8131     0011  107E               	bcf	int$flags,0	;clear compiler interrupt flag (level 1)
  8132     0012  0009               	retfie
  8133     0013                     __end_of_INTERRUPT_InterruptManager:
  8134                           
  8135                           	psect	text67
  8136     0624                     __ptext67:	
  8137 ;; *************** function _TMR0_ISR *****************
  8138 ;; Defined at:
  8139 ;;		line 108 in file "mcc_generated_files/tmr0.c"
  8140 ;; Parameters:    Size  Location     Type
  8141 ;;		None
  8142 ;; Auto vars:     Size  Location     Type
  8143 ;;		None
  8144 ;; Return value:  Size  Location     Type
  8145 ;;                  1    wreg      void 
  8146 ;; Registers used:
  8147 ;;		wreg, status,2, status,0, pclath, cstack
  8148 ;; Tracked objects:
  8149 ;;		On entry : 0/0
  8150 ;;		On exit  : 0/0
  8151 ;;		Unchanged: 0/0
  8152 ;; Data sizes:     COMMON   BANK0   BANK1   BANK2   BANK3   BANK4   BANK5   BANK6
  8153 ;;      Params:         0       0       0       0       0       0       0       0
  8154 ;;      Locals:         0       0       0       0       0       0       0       0
  8155 ;;      Temps:          0       0       0       0       0       0       0       0
  8156 ;;      Totals:         0       0       0       0       0       0       0       0
  8157 ;;Total ram usage:        0 bytes
  8158 ;; Hardware stack levels used: 1
  8159 ;; Hardware stack levels required when called: 1
  8160 ;; This function calls:
  8161 ;;		NULL
  8162 ;;		_tmr0_10ms_even
  8163 ;; This function is called by:
  8164 ;;		_INTERRUPT_InterruptManager
  8165 ;; This function uses a non-reentrant model
  8166 ;;
  8167                           
  8168     0624                     _TMR0_ISR:	
  8169                           ;psect for function _TMR0_ISR
  8170                           
  8171     0624                     i1l3042:	
  8172                           ;incstack = 0
  8173                           ; Regs used in _TMR0_ISR: [wreg+status,2+status,0+pclath+cstack]
  8174                           
  8175                           
  8176                           ;mcc_generated_files/tmr0.c: 112:     INTCONbits.TMR0IF = 0;
  8177     0624  110B               	bcf	11,2	;volatile
  8178     0625                     i1l3044:
  8179                           
  8180                           ;mcc_generated_files/tmr0.c: 114:     TMR0 = timer0ReloadVal;
  8181     0625  087B               	movf	_timer0ReloadVal,w	;volatile
  8182     0626  0020               	movlb	0	; select bank0
  8183     0627  0095               	movwf	21	;volatile
  8184     0628                     i1l3046:
  8185                           
  8186                           ;mcc_generated_files/tmr0.c: 116:     if(TMR0_InterruptHandler)
  8187     0628  0826               	movf	_TMR0_InterruptHandler,w
  8188     0629  0427               	iorwf	_TMR0_InterruptHandler+1,w
  8189     062A  1903               	btfsc	3,2
  8190     062B  2E2D               	goto	u179_21
  8191     062C  2E2E               	goto	u179_20
  8192     062D                     u179_21:
  8193     062D  2E33               	goto	i1l157
  8194     062E                     u179_20:
  8195     062E                     i1l3048:
  8196                           
  8197                           ;mcc_generated_files/tmr0.c: 117:     {;mcc_generated_files/tmr0.c: 118:         TMR0_In
      +                          terruptHandler();
  8198     062E  0827               	movf	_TMR0_InterruptHandler+1,w
  8199     062F  008A               	movwf	10
  8200     0630  0826               	movf	_TMR0_InterruptHandler,w
  8201     0631  000A               	callw
  8202     0632  3186               	pagesel	$
  8203     0633                     i1l157:
  8204     0633  0008               	return
  8205     0634                     __end_of_TMR0_ISR:
  8206                           
  8207                           	psect	text68
  8208     0634                     __ptext68:	
  8209 ;; *************** function _tmr0_10ms_even *****************
  8210 ;; Defined at:
  8211 ;;		line 195 in file "LED.c"
  8212 ;; Parameters:    Size  Location     Type
  8213 ;;		None
  8214 ;; Auto vars:     Size  Location     Type
  8215 ;;		None
  8216 ;; Return value:  Size  Location     Type
  8217 ;;                  1    wreg      void 
  8218 ;; Registers used:
  8219 ;;		wreg
  8220 ;; Tracked objects:
  8221 ;;		On entry : 0/0
  8222 ;;		On exit  : 0/0
  8223 ;;		Unchanged: 0/0
  8224 ;; Data sizes:     COMMON   BANK0   BANK1   BANK2   BANK3   BANK4   BANK5   BANK6
  8225 ;;      Params:         0       0       0       0       0       0       0       0
  8226 ;;      Locals:         0       0       0       0       0       0       0       0
  8227 ;;      Temps:          0       0       0       0       0       0       0       0
  8228 ;;      Totals:         0       0       0       0       0       0       0       0
  8229 ;;Total ram usage:        0 bytes
  8230 ;; Hardware stack levels used: 1
  8231 ;; This function calls:
  8232 ;;		Nothing
  8233 ;; This function is called by:
  8234 ;;		_main
  8235 ;;		_TMR0_ISR
  8236 ;; This function uses a non-reentrant model
  8237 ;;
  8238                           
  8239     0634                     _tmr0_10ms_even:	
  8240                           ;psect for function _tmr0_10ms_even
  8241                           
  8242     0634                     i1l2830:	
  8243                           ;incstack = 0
  8244                           ; Regs used in _tmr0_10ms_even: [wreg]
  8245                           
  8246                           
  8247                           ;LED.c: 196:   f1ms = 1;
  8248     0634  0020               	movlb	0	; select bank0
  8249     0635  01B0               	clrf	_f1ms
  8250     0636  0AB0               	incf	_f1ms,f
  8251     0637                     i1l2832:
  8252                           
  8253                           ;LED.c: 197:   welcome_1ms_cnt++;
  8254     0637  3001               	movlw	1
  8255     0638  07A0               	addwf	_welcome_1ms_cnt,f
  8256     0639  3000               	movlw	0
  8257     063A  3DA1               	addwfc	_welcome_1ms_cnt+1,f
  8258     063B  3000               	movlw	0
  8259     063C  3DA2               	addwfc	_welcome_1ms_cnt+2,f
  8260     063D  3000               	movlw	0
  8261     063E  3DA3               	addwfc	_welcome_1ms_cnt+3,f
  8262                           
  8263                           ;LED.c: 198:   turn_1ms_cnt++;
  8264     063F  3001               	movlw	1
  8265     0640  07F7               	addwf	_turn_1ms_cnt,f
  8266     0641  3000               	movlw	0
  8267     0642  3DF8               	addwfc	_turn_1ms_cnt+1,f
  8268     0643                     i1l376:
  8269     0643  0008               	return
  8270     0644                     __end_of_tmr0_10ms_even:
  8271     007E                     btemp	set	126	;btemp
  8272     007E                     int$flags	set	126
  8273     007E                     wtemp0	set	126
  8274                           
  8275                           	psect	config
  8276                           
  8277                           ;Config register CONFIG1 @ 0x8007
  8278                           ;	Oscillator Selection
  8279                           ;	FOSC = INTOSC, INTOSC oscillator: I/O function on CLKIN pin
  8280                           ;	Watchdog Timer Enable
  8281                           ;	WDTE = OFF, WDT disabled
  8282                           ;	Power-up Timer Enable
  8283                           ;	PWRTE = OFF, PWRT disabled
  8284                           ;	MCLR Pin Function Select
  8285                           ;	MCLRE = ON, MCLR/VPP pin function is MCLR
  8286                           ;	Flash Program Memory Code Protection
  8287                           ;	CP = OFF, Program memory code protection is disabled
  8288                           ;	Data Memory Code Protection
  8289                           ;	CPD = OFF, Data memory code protection is disabled
  8290                           ;	Brown-out Reset Enable
  8291                           ;	BOREN = ON, Brown-out Reset enabled
  8292                           ;	Clock Out Enable
  8293                           ;	CLKOUTEN = OFF, CLKOUT function is disabled. I/O or oscillator function on the CLKOUT 
      +                          pin
  8294                           ;	Internal/External Switchover
  8295                           ;	IESO = ON, Internal/External Switchover mode is enabled
  8296                           ;	Fail-Safe Clock Monitor Enable
  8297                           ;	FCMEN = ON, Fail-Safe Clock Monitor is enabled
  8298     8007                     	org	32775
  8299     8007  3FE4               	dw	16356
  8300                           
  8301                           ;Config register CONFIG2 @ 0x8008
  8302                           ;	Flash Memory Self-Write Protection
  8303                           ;	WRT = OFF, Write protection off
  8304                           ;	Voltage Regulator Capacitor Enable
  8305                           ;	VCAPEN = OFF, All VCAP pin functionality is disabled
  8306                           ;	PLL Enable
  8307                           ;	PLLEN = ON, 4x PLL enabled
  8308                           ;	Stack Overflow/Underflow Reset Enable
  8309                           ;	STVREN = ON, Stack Overflow or Underflow will cause a Reset
  8310                           ;	Brown-out Reset Voltage Selection
  8311                           ;	BORV = LO, Brown-out Reset Voltage (Vbor), low trip point selected.
  8312                           ;	Low-Voltage Programming Enable
  8313                           ;	LVP = OFF, High-voltage on MCLR/VPP must be used for programming
  8314     8008                     	org	32776
  8315     8008  1FFF               	dw	8191

Data Sizes:
    Strings     0
    Constant    0
    Data        2
    BSS         22
    Persistent  32
    Stack       0

Auto Spaces:
    Space          Size  Autos    Used
    COMMON           14      7      14
    BANK0            80      0      17
    BANK1            80      0       0
    BANK2            80      0       0
    BANK3            80      0       0
    BANK4            80      0       0
    BANK5            80      0       0
    BANK6            16      0       0

Pointer List with Targets:

    TMR0_InterruptHandler	PTR FTN()void  size(2) Largest target is 1
		 -> tmr0_10ms_even(), NULL(), 

    TMR0_SetInterruptHandler@InterruptHandler	PTR FTN()void  size(2) Largest target is 1
		 -> tmr0_10ms_even(), 


Critical Paths under _main in COMMON

    _PWM_all_off->_EPWM1_LoadDutyValue
    _LED_main->_check_welcome_light
    _check_welcome_light->_white_fad_out
    _check_welcome_light->_yellow_seg1_backward
    _check_welcome_light->_yellow_seg1_forward
    _check_welcome_light->_yellow_seg2_backward
    _check_welcome_light->_yellow_seg2_forward
    _check_welcome_light->_yellow_seg3_backward
    _check_welcome_light->_yellow_seg3_forward
    _check_welcome_light->_yellow_seg4_backward
    _check_welcome_light->_yellow_seg4_forward
    _check_welcome_light->_yellow_seg5_backward
    _check_welcome_light->_yellow_seg5_forward
    _check_welcome_light->_yellow_seg6_backward
    _check_welcome_light->_yellow_seg6_forward
    _check_welcome_light->_yellow_seg7_backward
    _check_welcome_light->_yellow_seg7_forward
    _check_welcome_light->_yellow_to_white
    _yellow_to_white->_delay_us
    _yellow_seg7_forward->_delay_us
    _yellow_seg7_backward->_delay_us
    _yellow_seg6_forward->_delay_us
    _yellow_seg6_backward->_delay_us
    _yellow_seg5_forward->_delay_us
    _yellow_seg5_backward->_delay_us
    _yellow_seg4_forward->_delay_us
    _yellow_seg4_backward->_delay_us
    _yellow_seg3_forward->_delay_us
    _yellow_seg3_backward->_delay_us
    _yellow_seg2_forward->_delay_us
    _yellow_seg2_backward->_delay_us
    _yellow_seg1_forward->_delay_us
    _yellow_seg1_backward->_delay_us
    _white_fad_out->_delay_us
    _PWM_turn_signals->_EPWM1_LoadDutyValue
    _PWM_POS->_EPWM1_LoadDutyValue
    _PWM_DRL->_EPWM1_LoadDutyValue

Critical Paths under _INTERRUPT_InterruptManager in COMMON

    None.

Critical Paths under _main in BANK0

    None.

Critical Paths under _INTERRUPT_InterruptManager in BANK0

    None.

Critical Paths under _main in BANK1

    None.

Critical Paths under _INTERRUPT_InterruptManager in BANK1

    None.

Critical Paths under _main in BANK2

    None.

Critical Paths under _INTERRUPT_InterruptManager in BANK2

    None.

Critical Paths under _main in BANK3

    None.

Critical Paths under _INTERRUPT_InterruptManager in BANK3

    None.

Critical Paths under _main in BANK4

    None.

Critical Paths under _INTERRUPT_InterruptManager in BANK4

    None.

Critical Paths under _main in BANK5

    None.

Critical Paths under _INTERRUPT_InterruptManager in BANK5

    None.

Critical Paths under _main in BANK6

    None.

Critical Paths under _INTERRUPT_InterruptManager in BANK6

    None.

Call Graph Tables:

 ---------------------------------------------------------------------------------
 (Depth) Function   	        Calls       Base Space   Used Autos Params    Refs
 ---------------------------------------------------------------------------------
 (0) _main                                                 0     0      0    5441
                           _LED_main
                  _SYSTEM_Initialize
           _TMR0_SetInterruptHandler
      _clear_no_call_warning_message
 ---------------------------------------------------------------------------------
 (1) _clear_no_call_warning_message                        1     1      0     556
                    _PIN_MANAGER_IOC
                        _PWM_all_off
                     _TMR0_ReadTimer
                        _TMR0_Reload
                    _TMR0_WriteTimer
            _TMR2_HasOverflowOccured
            _TMR2_LoadPeriodRegister
                     _TMR2_ReadTimer
                    _TMR2_StartTimer
                     _TMR2_StopTimer
                    _TMR2_WriteTimer
 ---------------------------------------------------------------------------------
 (2) _TMR2_WriteTimer                                      1     1      0      15
                                              0 COMMON     1     1      0
 ---------------------------------------------------------------------------------
 (2) _TMR2_StopTimer                                       0     0      0       0
 ---------------------------------------------------------------------------------
 (2) _TMR2_StartTimer                                      0     0      0       0
 ---------------------------------------------------------------------------------
 (2) _TMR2_ReadTimer                                       1     1      0       5
 ---------------------------------------------------------------------------------
 (2) _TMR2_LoadPeriodRegister                              1     1      0      15
                                              0 COMMON     1     1      0
 ---------------------------------------------------------------------------------
 (2) _TMR2_HasOverflowOccured                              1     1      0      20
                                              0 COMMON     1     1      0
 ---------------------------------------------------------------------------------
 (2) _TMR0_WriteTimer                                      1     1      0      15
                                              0 COMMON     1     1      0
 ---------------------------------------------------------------------------------
 (2) _TMR0_Reload                                          0     0      0       0
 ---------------------------------------------------------------------------------
 (2) _TMR0_ReadTimer                                       1     1      0       5
 ---------------------------------------------------------------------------------
 (2) _PWM_all_off                                          0     0      0     348
                _EPWM1_LoadDutyValue
 ---------------------------------------------------------------------------------
 (2) _PIN_MANAGER_IOC                                      0     0      0       0
 ---------------------------------------------------------------------------------
 (1) _TMR0_SetInterruptHandler                             2     0      2      98
                                              0 COMMON     2     0      2
 ---------------------------------------------------------------------------------
 (1) _SYSTEM_Initialize                                    0     0      0       0
                   _EPWM1_Initialize
              _OSCILLATOR_Initialize
             _PIN_MANAGER_Initialize
                    _TMR0_Initialize
                    _TMR2_Initialize
                     _WDT_Initialize
 ---------------------------------------------------------------------------------
 (2) _WDT_Initialize                                       0     0      0       0
 ---------------------------------------------------------------------------------
 (2) _TMR2_Initialize                                      0     0      0       0
 ---------------------------------------------------------------------------------
 (2) _TMR0_Initialize                                      0     0      0       0
 ---------------------------------------------------------------------------------
 (2) _PIN_MANAGER_Initialize                               0     0      0       0
 ---------------------------------------------------------------------------------
 (2) _OSCILLATOR_Initialize                                0     0      0       0
 ---------------------------------------------------------------------------------
 (2) _EPWM1_Initialize                                     0     0      0       0
 ---------------------------------------------------------------------------------
 (1) _LED_main                                             0     0      0    4787
                             _DRL_on
                             _POS_on
                        _all_led_off
                       _check_POS_P2
                    _check_test_mode
                _check_welcome_light
               _check_welcome_signal
                        _debounce_IO
               _turn_on_turn_signals
          _turn_signals_state_update
 ---------------------------------------------------------------------------------
 (2) _turn_signals_state_update                            1     1      0     348
                                              4 COMMON     1     1      0
                        _all_led_off
 ---------------------------------------------------------------------------------
 (2) _turn_on_turn_signals                                 2     2      0     348
                                              4 COMMON     2     2      0
                        _all_led_off
 ---------------------------------------------------------------------------------
 (2) _debounce_IO                                          1     1      0      73
                                              0 COMMON     1     1      0
                             _is_DRL
                             _is_POS
                         _is_WELCOME
                            _is_test
                    _is_turn_signals
                           _is_white
 ---------------------------------------------------------------------------------
 (3) _is_white                                             0     0      0       0
 ---------------------------------------------------------------------------------
 (3) _is_turn_signals                                      0     0      0       0
 ---------------------------------------------------------------------------------
 (3) _is_test                                              0     0      0       0
 ---------------------------------------------------------------------------------
 (3) _is_WELCOME                                           0     0      0       0
 ---------------------------------------------------------------------------------
 (3) _is_POS                                               0     0      0       0
 ---------------------------------------------------------------------------------
 (3) _is_DRL                                               0     0      0       0
 ---------------------------------------------------------------------------------
 (2) _check_welcome_signal                                 0     0      0       0
 ---------------------------------------------------------------------------------
 (2) _check_welcome_light                                  2     2      0    2974
                                              5 COMMON     2     2      0
                        _all_led_off
                           _delay_ms
                      _white_fad_out
               _yellow_seg1_backward
                _yellow_seg1_forward
               _yellow_seg2_backward
                _yellow_seg2_forward
               _yellow_seg3_backward
                _yellow_seg3_forward
               _yellow_seg4_backward
                _yellow_seg4_forward
               _yellow_seg5_backward
                _yellow_seg5_forward
               _yellow_seg6_backward
                _yellow_seg6_forward
               _yellow_seg7_backward
                _yellow_seg7_forward
                    _yellow_to_white
 ---------------------------------------------------------------------------------
 (3) _yellow_to_white                                      3     3      0     158
                                              2 COMMON     3     3      0
             _all_white_led_turn_off
              _all_white_led_turn_on
            _all_yellow_led_turn_off
             _all_yellow_led_turn_on
                           _delay_us
 ---------------------------------------------------------------------------------
 (3) _yellow_seg7_forward                                  3     3      0     158
                                              2 COMMON     3     3      0
                           _delay_us
 ---------------------------------------------------------------------------------
 (3) _yellow_seg7_backward                                 3     3      0     158
                                              2 COMMON     3     3      0
                           _delay_us
 ---------------------------------------------------------------------------------
 (3) _yellow_seg6_forward                                  3     3      0     158
                                              2 COMMON     3     3      0
                           _delay_us
 ---------------------------------------------------------------------------------
 (3) _yellow_seg6_backward                                 3     3      0     158
                                              2 COMMON     3     3      0
                           _delay_us
 ---------------------------------------------------------------------------------
 (3) _yellow_seg5_forward                                  3     3      0     158
                                              2 COMMON     3     3      0
                           _delay_us
 ---------------------------------------------------------------------------------
 (3) _yellow_seg5_backward                                 3     3      0     158
                                              2 COMMON     3     3      0
                           _delay_us
 ---------------------------------------------------------------------------------
 (3) _yellow_seg4_forward                                  3     3      0     158
                                              2 COMMON     3     3      0
                           _delay_us
 ---------------------------------------------------------------------------------
 (3) _yellow_seg4_backward                                 3     3      0     158
                                              2 COMMON     3     3      0
                           _delay_us
 ---------------------------------------------------------------------------------
 (3) _yellow_seg3_forward                                  3     3      0     158
                                              2 COMMON     3     3      0
                           _delay_us
 ---------------------------------------------------------------------------------
 (3) _yellow_seg3_backward                                 3     3      0     158
                                              2 COMMON     3     3      0
                           _delay_us
 ---------------------------------------------------------------------------------
 (3) _yellow_seg2_forward                                  3     3      0     158
                                              2 COMMON     3     3      0
                           _delay_us
 ---------------------------------------------------------------------------------
 (3) _yellow_seg2_backward                                 3     3      0     158
                                              2 COMMON     3     3      0
                           _delay_us
 ---------------------------------------------------------------------------------
 (3) _yellow_seg1_forward                                  3     3      0     158
                                              2 COMMON     3     3      0
                           _delay_us
 ---------------------------------------------------------------------------------
 (3) _yellow_seg1_backward                                 3     3      0     158
                                              2 COMMON     3     3      0
                           _delay_us
 ---------------------------------------------------------------------------------
 (3) _white_fad_out                                        3     3      0     158
                                              2 COMMON     3     3      0
             _all_white_led_turn_off
              _all_white_led_turn_on
                           _delay_us
 ---------------------------------------------------------------------------------
 (4) _delay_us                                             2     2      0      22
                                              0 COMMON     2     2      0
 ---------------------------------------------------------------------------------
 (3) _delay_ms                                             3     1      2      98
                                              0 COMMON     3     1      2
 ---------------------------------------------------------------------------------
 (3) _all_led_off                                          0     0      0     348
                   _PWM_turn_signals
             _all_white_led_turn_off
            _all_yellow_led_turn_off
 ---------------------------------------------------------------------------------
 (4) _PWM_turn_signals                                     0     0      0     348
                _EPWM1_LoadDutyValue
 ---------------------------------------------------------------------------------
 (2) _check_test_mode                                      0     0      0       0
 ---------------------------------------------------------------------------------
 (2) _check_POS_P2                                         0     0      0       0
                             _P2_off
                              _P2_on
 ---------------------------------------------------------------------------------
 (3) _P2_on                                                0     0      0       0
 ---------------------------------------------------------------------------------
 (3) _P2_off                                               0     0      0       0
 ---------------------------------------------------------------------------------
 (2) _POS_on                                               0     0      0     348
                            _PWM_POS
             _all_white_led_turn_off
              _all_white_led_turn_on
            _all_yellow_led_turn_off
             _all_yellow_led_turn_on
 ---------------------------------------------------------------------------------
 (3) _PWM_POS                                              0     0      0     348
                _EPWM1_LoadDutyValue
 ---------------------------------------------------------------------------------
 (2) _DRL_on                                               0     0      0     348
                            _PWM_DRL
             _all_white_led_turn_off
              _all_white_led_turn_on
            _all_yellow_led_turn_off
             _all_yellow_led_turn_on
 ---------------------------------------------------------------------------------
 (4) _all_yellow_led_turn_on                               1     1      0       0
                                              0 COMMON     1     1      0
 ---------------------------------------------------------------------------------
 (4) _all_yellow_led_turn_off                              1     1      0       0
                                              0 COMMON     1     1      0
 ---------------------------------------------------------------------------------
 (4) _all_white_led_turn_on                                0     0      0       0
 ---------------------------------------------------------------------------------
 (4) _all_white_led_turn_off                               0     0      0       0
 ---------------------------------------------------------------------------------
 (3) _PWM_DRL                                              0     0      0     348
                _EPWM1_LoadDutyValue
 ---------------------------------------------------------------------------------
 (3) _EPWM1_LoadDutyValue                                  4     2      2     348
                                              0 COMMON     4     2      2
 ---------------------------------------------------------------------------------
 Estimated maximum stack depth 4
 ---------------------------------------------------------------------------------
 (Depth) Function   	        Calls       Base Space   Used Autos Params    Refs
 ---------------------------------------------------------------------------------
 (6) _INTERRUPT_InterruptManager                           0     0      0       0
                           _TMR0_ISR
 ---------------------------------------------------------------------------------
 (7) _TMR0_ISR                                             0     0      0       0
                                NULL *
                     _tmr0_10ms_even *
 ---------------------------------------------------------------------------------
 (8) _tmr0_10ms_even                                       0     0      0       0
 ---------------------------------------------------------------------------------
 (8) NULL(Fake)                                            0     0      0       0
 ---------------------------------------------------------------------------------
 Estimated maximum stack depth 8
 ---------------------------------------------------------------------------------

 Call Graph Graphs:

 _main (ROOT)
   _LED_main
     _DRL_on
       _PWM_DRL
         _EPWM1_LoadDutyValue
       _all_white_led_turn_off
       _all_white_led_turn_on
       _all_yellow_led_turn_off
       _all_yellow_led_turn_on
     _POS_on
       _PWM_POS
         _EPWM1_LoadDutyValue
       _all_white_led_turn_off
       _all_white_led_turn_on
       _all_yellow_led_turn_off
       _all_yellow_led_turn_on
     _all_led_off
       _PWM_turn_signals
         _EPWM1_LoadDutyValue
       _all_white_led_turn_off
       _all_yellow_led_turn_off
     _check_POS_P2
       _P2_off
       _P2_on
     _check_test_mode
     _check_welcome_light
       _all_led_off
       _delay_ms
       _white_fad_out
         _all_white_led_turn_off
         _all_white_led_turn_on
         _delay_us
       _yellow_seg1_backward
         _delay_us
       _yellow_seg1_forward
         _delay_us
       _yellow_seg2_backward
         _delay_us
       _yellow_seg2_forward
         _delay_us
       _yellow_seg3_backward
         _delay_us
       _yellow_seg3_forward
         _delay_us
       _yellow_seg4_backward
         _delay_us
       _yellow_seg4_forward
         _delay_us
       _yellow_seg5_backward
         _delay_us
       _yellow_seg5_forward
         _delay_us
       _yellow_seg6_backward
         _delay_us
       _yellow_seg6_forward
         _delay_us
       _yellow_seg7_backward
         _delay_us
       _yellow_seg7_forward
         _delay_us
       _yellow_to_white
         _all_white_led_turn_off
         _all_white_led_turn_on
         _all_yellow_led_turn_off
         _all_yellow_led_turn_on
         _delay_us
     _check_welcome_signal
     _debounce_IO
       _is_DRL
       _is_POS
       _is_WELCOME
       _is_test
       _is_turn_signals
       _is_white
     _turn_on_turn_signals
       _all_led_off
     _turn_signals_state_update
       _all_led_off
   _SYSTEM_Initialize
     _EPWM1_Initialize
     _OSCILLATOR_Initialize
     _PIN_MANAGER_Initialize
     _TMR0_Initialize
     _TMR2_Initialize
     _WDT_Initialize
   _TMR0_SetInterruptHandler
   _clear_no_call_warning_message
     _PIN_MANAGER_IOC
     _PWM_all_off
       _EPWM1_LoadDutyValue
     _TMR0_ReadTimer
     _TMR0_Reload
     _TMR0_WriteTimer
     _TMR2_HasOverflowOccured
     _TMR2_LoadPeriodRegister
     _TMR2_ReadTimer
     _TMR2_StartTimer
     _TMR2_StopTimer
     _TMR2_WriteTimer

 _INTERRUPT_InterruptManager (ROOT)
   _TMR0_ISR
     NULL(Fake) *
     _tmr0_10ms_even *

 Address spaces:
Name               Size   Autos  Total    Cost      Usage
BIGRAM             1F0      0       0       0        0.0%
EEDATA             100      0       0       0        0.0%
NULL                 0      0       0       0        0.0%
CODE                 0      0       0       0        0.0%
BITCOMMON            E      0       0       1        0.0%
BITSFR0              0      0       0       1        0.0%
SFR0                 0      0       0       1        0.0%
COMMON               E      7       E       2      100.0%
BITSFR1              0      0       0       2        0.0%
SFR1                 0      0       0       2        0.0%
BITSFR2              0      0       0       3        0.0%
SFR2                 0      0       0       3        0.0%
STACK                0      0       0       3        0.0%
BITSFR3              0      0       0       4        0.0%
SFR3                 0      0       0       4        0.0%
ABS                  0      0      1F       4        0.0%
BITBANK0            50      0       0       5        0.0%
BITSFR4              0      0       0       5        0.0%
SFR4                 0      0       0       5        0.0%
BANK0               50      0      11       6       21.2%
BITSFR5              0      0       0       6        0.0%
SFR5                 0      0       0       6        0.0%
BITBANK1            50      0       0       7        0.0%
BITSFR6              0      0       0       7        0.0%
SFR6                 0      0       0       7        0.0%
BANK1               50      0       0       8        0.0%
BITSFR7              0      0       0       8        0.0%
SFR7                 0      0       0       8        0.0%
BITBANK2            50      0       0       9        0.0%
BITSFR8              0      0       0       9        0.0%
SFR8                 0      0       0       9        0.0%
BANK2               50      0       0      10        0.0%
BITSFR9              0      0       0      10        0.0%
SFR9                 0      0       0      10        0.0%
BITBANK3            50      0       0      11        0.0%
BITSFR10             0      0       0      11        0.0%
SFR10                0      0       0      11        0.0%
BANK3               50      0       0      12        0.0%
BITSFR11             0      0       0      12        0.0%
SFR11                0      0       0      12        0.0%
BITBANK4            50      0       0      13        0.0%
BITSFR12             0      0       0      13        0.0%
SFR12                0      0       0      13        0.0%
BANK4               50      0       0      14        0.0%
BITSFR13             0      0       0      14        0.0%
SFR13                0      0       0      14        0.0%
BITBANK5            50      0       0      15        0.0%
BITSFR14             0      0       0      15        0.0%
SFR14                0      0       0      15        0.0%
BANK5               50      0       0      16        0.0%
BITSFR15             0      0       0      16        0.0%
SFR15                0      0       0      16        0.0%
BITBANK6            10      0       0      17        0.0%
BITSFR16             0      0       0      17        0.0%
SFR16                0      0       0      17        0.0%
BANK6               10      0       0      18        0.0%
BITSFR17             0      0       0      18        0.0%
SFR17                0      0       0      18        0.0%
BITSFR18             0      0       0      19        0.0%
SFR18                0      0       0      19        0.0%
DATA                 0      0      1F      19        0.0%
BITSFR19             0      0       0      20        0.0%
SFR19                0      0       0      20        0.0%
BITSFR20             0      0       0      21        0.0%
SFR20                0      0       0      21        0.0%
BITSFR21             0      0       0      22        0.0%
SFR21                0      0       0      22        0.0%
BITSFR22             0      0       0      23        0.0%
SFR22                0      0       0      23        0.0%
BITSFR23             0      0       0      24        0.0%
SFR23                0      0       0      24        0.0%
BITSFR24             0      0       0      25        0.0%
SFR24                0      0       0      25        0.0%
BITSFR25             0      0       0      26        0.0%
SFR25                0      0       0      26        0.0%
BITSFR26             0      0       0      27        0.0%
SFR26                0      0       0      27        0.0%
BITSFR27             0      0       0      28        0.0%
SFR27                0      0       0      28        0.0%
BITSFR28             0      0       0      29        0.0%
SFR28                0      0       0      29        0.0%
BITSFR29             0      0       0      30        0.0%
SFR29                0      0       0      30        0.0%
BITSFR30             0      0       0      31        0.0%
SFR30                0      0       0      31        0.0%
BITSFR31             0      0       0      32        0.0%
SFR31                0      0       0      32        0.0%


Microchip Technology PIC Macro Assembler V2.46 build 20240104201356 
Symbol Table                                                                                   Wed Apr 01 08:11:07 2026

                                      l31 0684                                        l25 0601  
                                      l34 0702                                        l28 067F  
                                      l65 05C0                                        l68 072A  
                                      l85 0651                                        l88 05EE  
                         _timer0ReloadVal 007B                                       l101 06A2  
                                     l110 0717                                       l120 0678  
                                     l104 0714                                       l113 06E1  
                                     l107 0711                                       l116 06E6  
                                     l310 06D0                                       l150 06EB  
                                     l400 0531                                       l304 0623  
                                     l144 066C                                       l160 06DC  
                                     l313 0723                                       l321 071D  
                                     l153 06FE                                       l307 06BA  
                                     l411 050A                                       l147 071A  
                                     l316 0726                                       l332 06B2  
                                     l324 071E                                       l405 0559  
                                     l413 052E                                       l421 04D2  
                                     l501 032B                                       l326 0720  
                                     l319 071B                                       l335 06AA  
                                     l352 058E                                       l408 0503  
                                     l416 04A7                                       l424 032E  
                                     l432 044B                                       l440 02CC  
                                     l504 041D                                       l512 03C1  
                                     l329 06C2                                       l345 05A8  
                                     l409 052C                                       l417 04D0  
                                     l425 0359                                       l433 0474  
                                     l441 02F7                                       l505 0446  
                                     l513 03EA                                       l361 0706  
                                     l522 065F                                       l370 06FA  
                                     l338 06C9                                       l355 069A  
                                     l419 04AE                                       l427 0335  
                                     l435 0452                                       l443 02D3  
                                     l507 0424                                       l451 03F6  
                                     l515 03C8                                       l531 0106  
                                     l364 070A                                       l276 0729  
                                     l429 035C                                       l437 0476  
                                     l445 02FA                                       l509 0448  
                                     l453 041A                                       l517 03EC  
                                     l461 02C9                                       l373 06F5  
                                     l382 0613                                       l358 06F0  
                                     l527 0690                                       l367 070E  
                                     l464 0390                                       l472 04D5  
                                     l480 035F                                       l448 03EF  
                                     l456 029B                                       l392 0267  
                                     l465 03BB                                       l473 04FE  
                                     l481 038A                                       l449 0418  
                                     l457 02C6                                       l289 022F  
                                     l297 025F                                       l386 055B  
                                     l467 0397                                       l475 04DC  
                                     l483 0366                                       l491 0480  
                                     l459 02A2                                       l299 0264  
                                     l548 0194                                       l389 0574  
                                     l469 03BE                                       l477 0500  
                                     l485 038D                                       l493 04A4  
                                     l397 0298                                       l582 0104  
                                     l488 0479                                       l496 02FD  
                                     l576 0088                                       l592 01DE  
                                     l489 04A2                                       l497 0328  
                                     l499 0304                                       l596 01EB  
                                     _PR2 001B                                       u530 0684  
                                     u531 0683                                       u540 0677  
                                     u541 0676                                       _ORB 007A  
                                     u980 0613                                       u981 0612  
                                     u990 0560                                       u975 05E7  
                                     u991 055F                ?_turn_signals_state_update 0070  
              yellow_seg6_forward@pwm_idx 0074                           _TMR2_Initialize 069B  
                                     wreg 0009             TMR2_HasOverflowOccured@status 0070  
                                    l3010 0084                                      l2300 06BB  
                                    l3020 0095                                      l3100 01AB  
                                    l2302 06AB                                      l2310 0568  
                                    l3030 00AD                                      l3022 0097  
                                    l3014 008C                                      l3110 01C0  
                                    l3102 01B1                                      l2304 055A  
                                    l2400 04A5                                      l2320 026D  
                                    l2312 0265                                      l3024 009A  
                                    l3016 0090                                      l3120 01D6  
                                    l3112 01C6                                      l3104 01B5  
                                    l2080 05EF                                      l2250 06B3  
                                    l2330 0274                                      l3210 00BA  
                                    l3026 00A9                                      l3018 0094  
                                    l3034 00B1                                      l3122 01DA  
                                    l3114 01CA                                      l3106 01BA  
                                    l3050 06D7                                      l2260 0724  
                                    l2252 06B6                                      l2308 0561  
                                    l2420 04BF                                      l2500 02E2  
                                    l2340 028D                                      l2332 0278  
                                    l3028 00AA                                      l3124 01E2  
                                    l3116 01CB                                      l3108 01BE  
                                    l1700 05B8                                      l3052 0729  
                                    l3140 05CE                                      l2254 06CA  
                                    l2262 06A3                                      l2422 04C5  
                                    l2414 04B0                                      l2502 02E6  
                                    l2342 0291                                      l2334 027B  
                                    l2326 026E                                      l2270 0703  
                                    l3126 01E6                                      l3118 01D1  
                                    l1710 0679                                      l1702 05B9  
                                    l3142 05D0                                      l2248 05D8  
                                    l2256 06CC                                      l2264 0603  
                                    l2360 0538                                      l2600 04DE  
                                    l2424 04C9                                      l2416 04B4  
                                    l2408 04AD                                      l2440 0338  
                                    l2504 02EC                                      l2336 0283  
                                    l2328 0271                                      l2344 0295  
                                    l3208 017A                                      l3128 01E9  
                                    l1720 0647                                      l1712 067C  
                                    l1704 05BB                                      l3144 05D1  
                                    l3136 05C1                                      l2258 0721  
                                    l2266 0604                                      l2370 0551  
                                    l2362 053B                                      l2354 0537  
                                    l2346 052F                                      l2610 04F7  
                                    l2602 04E2                                      l2418 04BB  
                                    l2450 034E                                      l2442 033C  
                                    l2434 0334                                      l2426 032C  
                                    l2506 02F0                                      l2530 040D  
                                    l2522 03F8                                      l2338 0287  
                                    l2274 070B                                      l2290 06F1  
                                    l2282 06EC                                      l3090 019C  
                                    l1722 0648                                      l1714 067D  
                                    l1706 05BC                                      l1730 069B  
                                    l3146 05D2                                      l3138 05CB  
                                    l2268 060A                                      l2372 0555  
                                    l2364 053F                                      l2604 04E9  
                                    l2612 035D                                      l2452 0352  
                                    l2444 033E                                      l2700 0426  
                                    l2532 0411                                      l2524 03FC  
                                    l2516 03F5                                      l2508 03ED  
                                    l3092 019F                                      l1724 064A  
                                    l1708 05BE                                      l1740 0665  
                                    l1732 069E                                      l1716 06FF  
                                    l2294 0691                                      l2366 0547  
                                    l2390 0510                                      l2382 0509  
                                    l2374 0501                                      l2606 04ED  
                                    l2630 0375                                      l2446 0344  
                                    l2470 0458                                      l2462 0451  
                                    l2454 0449                                      l2710 043F  
                                    l2702 042A                                      l2526 0403  
                                    l2550 02A9                                      l2542 02A1  
                                    l2534 0299                                      l2278 06F6  
                                    l2286 0707                                      l3094 01A2  
                                    l3086 0195                                      l1726 064C  
                                    l1718 0644                                      l1742 0668  
                                    l1734 069F                                      l1750 070F  
                                    l2296 0694                                      l2368 054B  
                                    l2392 0517                                      l2608 04F3  
                                    l2632 0379                                      l2624 0369  
                                    l2448 0348                                      l2472 045F  
                                    l2480 02CA                                      l2704 0431  
                                    l2528 0407                                      l2712 03BF  
                                    l2560 02BF                                      l2552 02AB  
                                    l2800 0622                                      l3096 01A5  
                                    l3088 019B                                      l1728 064F  
                                    l1744 066A                                      l1736 06A0  
                                    l1760 066D                                      l1752 0715  
                                    l2810 059D                                      l2802 058F  
                                    l2298 0697                                      l2562 038E  
                                    l2394 051B                                      l2634 037F  
                                    l2626 036D                                      l2618 0365  
                                    l2650 0482                                      l2474 0463  
                                    l2706 0435                                      l2730 03D9  
                                    l2554 02B1                                      l3098 01A8  
                                    l1746 066B                                      l1738 0660  
                                    l1770 06E8                                      l1762 0672  
                                    l2812 05A1                                      l2804 0593  
                                    l2820 057D                                      l2580 03A6  
                                    l2396 0521                                      l2388 050C  
                                    l2636 0383                                      l2628 036F  
                                    l2660 049B                                      l2652 0486  
                                    l2644 047F                                      l2476 0469  
                                    l2468 0454                                      l2708 043B  
                                    l2732 03DF                                      l2724 03CA  
                                    l2556 02B5                                      l2548 02A5  
                                    l2740 01ED                                      l2900 016A  
                                    l1692 05A9                                      l1772 06FB  
                                    l1764 0677                                      l1748 0712  
                                    l1756 06DE                                      l2814 05A5  
                                    l2806 0597                                      l2822 0580  
                                    l2582 03AA                                      l2574 039A  
                                    l2398 0525                                      l2654 048D  
                                    l2638 0477                                      l2478 046D  
                                    l2662 02FB                                      l2494 02D6  
                                    l2734 03E3                                      l2726 03CE  
                                    l2718 03C7                                      l2558 02BB  
                                    l2750 0207                                      l2742 01F5  
                                    l2910 0171                                      l1694 05AE  
                                    l1766 0718                                      l1758 06E3  
                                    l2808 059A                                      l2824 0583  
                                    l2816 0575                                      l2840 0685  
                                    l2584 03B0                                      l2576 039E  
                                    l2568 0396                                      l2656 0491  
                                    l2680 0313                                      l2496 02DA  
                                    l2488 02D2                                      l2728 03D5  
                                    l2920 002F                                      l2760 021A  
                                    l2752 0208                                      l2744 01F6  
                                    l1696 05B1                                      l2736 06C3  
                                    l2826 0587                                      l2818 0579  
                                    l2842 0689                                      l2834 0652  
                                    l2586 03B4                                      l2578 03A0  
                                    l2594 04DB                                      l2658 0497  
                                    l2682 0317                                      l2674 0307  
                                    l2498 02DC                                      l2930 0049  
                                    l2922 0032                                      l2762 0222  
                                    l2754 0210                                      l2746 01FE  
                                    l2738 01EC                                      l2906 016D  
                                    l2850 010D                                      l2770 0230  
                                    l1698 05B6                                      l2828 058B  
                                    l2844 068D                                      l2836 0656  
                                    l2588 04D3                                      l2684 031D  
                                    l2676 030B                                      l2668 0303  
                                    l2924 0037                                      l2764 0223  
                                    l2756 0211                                      l2748 01FF  
                                    l2860 0122                                      l2852 0112  
                                    l2780 0243                                      l2772 0234  
                                    l2838 065B                                      l2686 0321  
                                    l2678 030D                                      l2694 0423  
                                    l2950 005D                                      l2942 0055  
                                    l2934 004D                                      l2926 0040  
                                    l2918 002E                                      l2766 022A  
                                    l2758 0219                                      l2862 0124  
                                    l2854 0114                                      l2846 0105  
                                    l2790 0261                                      l2782 0246  
                                    l2774 0237                                      l2688 041B  
                                    l2928 0043                                      l2768 022D  
                                    l2856 0115                                      l2848 010A  
                                    l2792 0262                                      l2784 024C  
                                    l2776 023A                                      l2970 0071  
                                    l2962 0069                                      l2954 0061  
                                    l2946 0059                                      l2938 0051  
                                    l2794 0614                                      l2890 0153  
                                    l2882 0145                                      l2874 0138  
                                    l2866 012A                                      l2858 0118  
                                    l2778 0240                                      l2786 0251  
                                    l2796 061A                                      l2892 015D  
                                    l2884 014F                                      l2876 0142  
                                    l2868 0134                                      l2788 025A  
                                    l2974 0075                                      l2966 006D  
                                    l2958 0065                                      l2798 0620  
                                    l2978 0079                                      l2898 0160  
                           _white_fad_out 052F                                      u1000 0574  
                                    u1001 0573                                      u1010 026C  
                                    u1011 026B                                      u1100 04AC  
                                    u1020 028D                                      u1101 04AB  
                                    u1021 028C                                      u1110 04C5  
                                    u1030 0295                                      u1111 04C4  
                                    u1031 0294                                      u1040 0536  
                                    u1120 04D0                                      u1200 02EC  
                                    u1041 0535                                      u1121 04CF  
                                    u1201 02EB                                      u1050 0551  
                                    u1130 0333                                      u1210 02F7  
                                    u1051 0550                                      u1131 0332  
                                    u1211 02F6                                      u1060 0559  
                                    u1300 03BB                                      u1140 034E  
                                    u1220 03F4                                      u1061 0558  
                                    u1301 03BA                                      u1141 034D  
                                    u1221 03F3                                      u1070 0508  
                                    u1310 04DA                                      u1150 0359  
                                    u1230 040D                                      u1071 0507  
                                    u1311 04D9                                      u1151 0358  
                                    u1231 040C                                      u1080 0521  
                                    u1320 04F3                                      u1160 0450  
                                    u1400 0302                                      u1240 0418  
                                    u1081 0520                                      u1321 04F2  
                                    u1161 044F                                      u1401 0301  
                                    u1241 0417                                      u1090 052C  
                                    u1330 04FE                                      u1170 0469  
                                    u1410 031D                                      u1250 02A0  
                                    u1091 052B                                      u1331 04FD  
                                    u1171 0468                                      u1411 031C  
                                    u1251 029F                                      u1340 0364  
                                    u1180 0474                                      u1420 0328  
                                    u1260 02BB                                      u1500 01FE  
                                    u1341 0363                                      u1181 0473  
                                    u1421 0327                                      u1261 02BA  
                                    u1501 01FD                                      _LATA 010C  
                                    u1350 037F                                      u1190 02D1  
                                    u1430 0422                                      u1270 02C6  
                                    u1510 0207                                      _LATB 010D  
                                    u1351 037E                                      u1191 02D0  
                                    u1431 0421                                      u1271 02C5  
                                    u1511 0206                                      _LATC 010E  
                                    u1280 0395                                      u1360 038A  
                                    u1440 043B                                      u1600 061A  
                                    u1520 0210                                      u1281 0394  
                                    u1361 0389                                      u1441 043A  
                                    u1601 0619                                      u1521 020F  
                                    _LATE 0110                                      u1290 03B0  
                                    u1370 047E                                      u1450 0446  
                                    u1610 0620                                      u1530 0219  
                                    u1291 03AF                                      u1371 047D  
                                    u1451 0445                                      u1611 061F  
                                    u1531 0218                                      u1620 0593  
                                    u1380 0497                                      u1460 03C6  
                                    u1540 0222                                      u1700 0134  
                                    u1621 0592                                      u1381 0496  
                                    u1461 03C5                                      u1541 0221  
                                    u1701 0133                                      u1630 05A1  
                                    u1390 04A2                                      u1470 03DF  
                                    u1550 022A                                      u1710 0142  
                                    u1631 05A0                                      u1391 04A1  
                                    u1471 03DE                                      u1551 0229  
                                    u1711 0141                                      u1640 0579  
                                    u1480 03EA                                      u1720 014F  
                                    u1560 0234                                      u1800 019B  
                                    u1641 0578                                      u1481 03E9  
                                    u1721 014E                                      u1705 0130  
                                    u1561 0233                                      u1801 019A  
                                    u1650 0587                                      u1490 01F5  
                                    u1730 015D                                      u1570 0240  
                                    u1810 01B1                                      u1651 0586  
                                    u1491 01F4                                      u1731 015C  
                                    u1715 013E                                      u1571 023F  
                                    u1811 01B0                                      u1660 0656  
                                    u1740 016A                                      u1580 024C  
                                    u1820 01B5                                      u1661 0655  
                                    u1741 0169                                      u1725 014B  
                                    u1581 024B                                      u1821 01B4  
                                    u1670 0689                                      u1750 008C  
                                    u1590 025A                                      u1830 01BA  
                                    u1671 0688                                      u1751 008B  
                                    u1735 0159                                      u1591 0259  
                                    u1831 01B9                                      u1760 0090  
                                    u1680 010A                                      u1840 01C6  
                                    u1761 008F                                      u1745 0166  
                                    u1681 0109                                      u1841 01C5  
                                    u1770 0094                                      u1690 0122  
                                    u1850 01D1                                      u1771 0093  
                                    u1691 0121                                      u1851 01D0  
                                    u1780 00A9                                      u1860 01D6  
                                    u1917 0605                                      u1781 00A8  
                                    u1861 01D5                                      u1870 01DA  
                                    u1927 0564                                      u1695 011E  
                                    u1871 01D9                                      u1880 01E2  
                                    u1881 01E1                                      _PLLR 04D6  
                                    _TMR0 0015                                      _TMR2 001A  
                                    _WPUB 020D                                      _WPUE 0210  
                             _PWM_all_off 06C3                                      _f1ms 0030  
                                    _main 05C1                                      fsr0h 0005  
                                    indf0 0000                                      fsr0l 0004  
                         __end_of_PWM_DRL 06C3                                      btemp 007E  
                         __end_of_PWM_POS 06B3                                      start 0013  
                   ??_EPWM1_LoadDutyValue 0072               __end_of_check_welcome_light 0105  
                 __end_of_TMR0_Initialize 066D                   ??_all_white_led_turn_on 0070  
           __end_of_OSCILLATOR_Initialize 0685                          __end_of_LED_main 01EC  
                  ??_turn_on_turn_signals 0074                                     ?_main 0070  
                                   _T2CON 001C                                     i1l131 0011  
                                   i1l157 0633                                     i1l376 0643  
                         _TMR0_WriteTimer 06E7                                     _P2_on 071B  
                                   _TRISA 008C                                     _TRISB 008D  
                                   _TRISC 008E                                     _TRISE 0090  
               ?_TMR0_SetInterruptHandler 0070                          __end_of_TMR0_ISR 0634  
                         _check_test_mode 0652                   __end_of_PIN_MANAGER_IOC 072B  
                          _WDT_Initialize 06FF                            ?_white_fad_out 0070  
                         __end_of_is_test 070B                yellow_seg7_forward@pwm_idx 0074  
                                   pclath 000A                           _fturn_off_600ms 0029  
                                   status 0003                                     wtemp0 007E  
                         _TMR2_StartTimer 0712                           __initialization 0015  
             yellow_seg4_backward@pwm_idx 0074                              _turn_1ms_cnt 0077  
                            __end_of_main 05D8                   __end_of_TMR2_Initialize 06A3  
             ?_INTERRUPT_InterruptManager 0070              __end_of_check_welcome_signal 0624  
                           _eWelcome_step 002F                                    ??_main 0077  
                                  ?_P2_on 0070                           _TMR2_WriteTimer 06DD  
                  __end_of_WDT_Initialize 0703                  ??_all_white_led_turn_off 0070  
                                  _CCPR1H 0292                                    _CCPR1L 0291  
                 _all_yellow_led_turn_off 06CA                                 ??_PWM_DRL 0074  
                                  _APFCON 011D                                 ??_PWM_POS 0074  
                                  _ANSELA 018C                                    _ANSELB 018D  
                                  _BORCON 0116                                    i1l3042 0624  
                                  i1l3130 0006                                    i1l3044 0625  
                                  i1l3132 000A                                    i1l3046 0628  
                                  i1l3134 000E                                    i1l3048 062E  
                                  i1l2830 0634                                    i1l2832 0637  
                                  u190_20 000E                                    u190_21 000D  
                                  _DRL_on 058F                                    u179_20 062E  
                                  u179_21 062D                                    u189_20 000A  
                                  u189_21 0009                                    _P2_off 071E  
                                  _OSCCON 0099               __end_of_yellow_seg1_forward 052F  
                                  _WDTCON 0097                                    _POS_on 0575  
             __end_of_yellow_seg2_forward 04D3                          __end_of_delay_ms 0575  
                        __end_of_delay_us 0614               __end_of_yellow_seg3_forward 035D  
                            _turn_off_cnt 0024               __end_of_yellow_seg4_forward 0477  
                            _CCPTMRS0bits 029E               __end_of_yellow_seg5_forward 02FB  
                            ?_TMR0_Reload 0070               __end_of_yellow_seg6_forward 041B  
                 __end_of_TMR0_WriteTimer 06EC                                    _is_DRL 070B  
                                  _is_POS 06F6               __end_of_yellow_seg7_forward 02CA  
                        ??_tmr0_10ms_even 0070                          ?_TMR0_Initialize 0070  
                        __end_of_is_white 06F1                   __end_of_check_test_mode 0660  
                ?_TMR2_HasOverflowOccured 0070                              __pdataCOMMON 007C  
                               ??_is_test 0070                              _check_POS_P2 0685  
                         ?_WDT_Initialize 0070                           ??_white_fad_out 0072  
                 __end_of_TMR2_StartTimer 0715  TMR0_SetInterruptHandler@InterruptHandler 0070  
                        ?_PIN_MANAGER_IOC 0070                         _SYSTEM_Initialize 05EF  
                 __end_of__initialization 002A                        ?_SYSTEM_Initialize 0070  
                               ?_LED_main 0070                             __end_of_P2_on 071E  
                       ?_EPWM1_Initialize 0070                            __pcstackCOMMON 0070  
                     ??_SYSTEM_Initialize 0070                                 ?_TMR0_ISR 0070  
                     _fturn_light_disable 002C                   __end_of_TMR2_WriteTimer 06E2  
                      ??_EPWM1_Initialize 0070                          ?_TMR2_Initialize 0070  
                                 ??_P2_on 0070                            _OPTION_REGbits 0095  
             ??_turn_signals_state_update 0074                 ??_all_yellow_led_turn_off 0070  
                              _eTurn_step 002B               yellow_seg5_backward@pwm_idx 0074  
                   yellow_seg1_forward@ii 0073                 __end_of_SYSTEM_Initialize 0602  
                              __pbssBANK0 0020                              ?_PWM_all_off 0070  
                                 ?_DRL_on 0070                                   ?_P2_off 0070  
                 _TMR2_LoadPeriodRegister 06E2                      _check_welcome_signal 0614  
                                 ?_POS_on 0070                                ??_LED_main 0077  
                              __pmaintext 05C1          __end_of_TMR0_SetInterruptHandler 06DD  
            __end_of_yellow_seg1_backward 03BF                                ??_TMR0_ISR 0070  
                   yellow_seg2_forward@ii 0073                                __pintentry 0004  
                                 ?_is_DRL 0070                          ?_TMR0_WriteTimer 0070  
                                 ?_is_POS 0070           __end_of_TMR2_HasOverflowOccured 0679  
                                 _CCP1CON 0293                                   _ECCP1AS 0295  
            __end_of_yellow_seg2_backward 0501                                _is_WELCOME 06F1  
                ??_all_yellow_led_turn_on 0070                          ?_check_test_mode 0070  
            __end_of_yellow_seg3_backward 038E             __end_of_all_white_led_turn_on 0724  
                  yellow_seg1_backward@ii 0073              __end_of_yellow_seg4_backward 04A5  
                               ?_delay_ms 0070                                 ?_delay_us 0070  
                                 _OSCTUNE 0098                                   _PWM1CON 0294  
            __end_of_yellow_seg5_backward 032C                          ?_TMR2_StartTimer 0070  
                   yellow_seg3_forward@ii 0073                                   _PWM_DRL 06BB  
                                 _PWM_POS 06AB              __end_of_yellow_seg6_backward 0449  
             __end_of_EPWM1_LoadDutyValue 05EF                     ?_check_welcome_signal 0070  
                               ?_is_white 0070              __end_of_yellow_seg7_backward 03ED  
               _turn_signals_state_update 0230                         ??_yellow_to_white 0072  
         __end_of_all_yellow_led_turn_off 06D1                    _all_white_led_turn_off 0724  
                   yellow_seg4_forward@ii 0073                          ?_TMR2_WriteTimer 0070  
                                 __ptext1 0729                                   __ptext2 06DD  
                                 __ptext3 070F                                   __ptext4 0712  
                                 __ptext5 0715                                   __ptext6 06E2  
                                 __ptext7 066D                                   __ptext8 06E7  
                                 __ptext9 06FB                     _OSCILLATOR_Initialize 0679  
                               _T2CONbits 001C                    yellow_seg2_backward@ii 0073  
                                 _is_test 0707                         yellow_to_white@ii 0073  
                         white_fad_out@ii 0073                  ??_PIN_MANAGER_Initialize 0070  
                       ??_is_turn_signals 0070                                ??_delay_ms 0072  
                              ??_delay_us 0070                            _fWelcome_light 0079  
               ??_TMR2_LoadPeriodRegister 0070                                   clrloop0 06D2  
                   yellow_seg5_forward@ii 0073                                delay_ms@ms 0070  
                    end_of_initialization 002A                             ??_debounce_IO 0070  
                              delay_us@us 0071                             ??_all_led_off 0074  
                        _PWM_turn_signals 06A3                                ??_is_white 0070  
             yellow_seg6_backward@pwm_idx 0074                     yellow_seg6_forward@ii 0073  
                          _TMR0_ReadTimer 0718                          ??_WDT_Initialize 0070  
                _TMR0_SetInterruptHandler 06D7                               ?_is_WELCOME 0070  
                               _PORTBbits 000D                                 _PORTCbits 000E  
                  yellow_seg3_backward@ii 0073                      _yellow_seg1_backward 038E  
                   yellow_seg7_forward@ii 0073                    ??_check_welcome_signal 0070  
                          _TMR2_ReadTimer 0715                   TMR2_WriteTimer@timerVal 0070  
                    _yellow_seg2_backward 04D3                            __end_of_DRL_on 05A9  
                          __end_of_P2_off 0721                      _yellow_seg3_backward 035D  
                          __end_of_POS_on 058F                       __end_of_debounce_IO 0230  
                     __end_of_all_led_off 069B                      _yellow_seg4_backward 0477  
                  __end_of_TMR0_ReadTimer 071B                      _yellow_seg5_backward 02FB  
                           __pidataCOMMON 0727                            __end_of_is_DRL 070F  
                          __end_of_is_POS 06FB                      _yellow_seg6_backward 041B  
                  ?_OSCILLATOR_Initialize 0070          TMR2_LoadPeriodRegister@periodVal 0070  
                    _yellow_seg7_backward 03BF                    yellow_seg4_backward@ii 0073  
                     start_initialization 0015                            _TMR2_StopTimer 070F  
                  __end_of_TMR2_ReadTimer 0718                     __end_of_white_fad_out 055A  
                   ?_yellow_seg1_backward 0070              EPWM1_LoadDutyValue@dutyValue 0070  
                                ??_DRL_on 0074                     ?_yellow_seg2_backward 0070  
                                ??_P2_off 0070                    _all_yellow_led_turn_on 06B3  
                                ??_POS_on 0074                     ?_yellow_seg3_backward 0070  
                   ?_yellow_seg4_backward 0070                           ?_TMR0_ReadTimer 0070  
                   ?_yellow_seg5_backward 0070                                  ??_is_DRL 0070  
                                ??_is_POS 0070                yellow_seg1_forward@pwm_idx 0074  
                   ?_yellow_seg6_backward 0070                     ?_yellow_seg7_backward 0070  
                  __end_of_TMR2_StopTimer 0712                           _welcome_1ms_cnt 0020  
                             __pbssCOMMON 0077                    yellow_seg5_backward@ii 0073  
                               ___latbits 0002           ??_clear_no_call_warning_message 0074  
             yellow_seg1_backward@pwm_idx 0074               yellow_seg7_backward@pwm_idx 0074  
                         ?_TMR2_ReadTimer 0070                           _yellow_to_white 0265  
                                ?_PWM_DRL 0070                                  ?_PWM_POS 0070  
                             _debounce_IO 01EC                               _all_led_off 0691  
                 ?_all_white_led_turn_off 0070                     _TMR0_InterruptHandler 0026  
                               _tDelay_ms 007C                       _check_welcome_light 002E  
                  _PIN_MANAGER_Initialize 05A9                           _is_turn_signals 0703  
                __end_of_PWM_turn_signals 06AB              ??_INTERRUPT_InterruptManager 0070  
                ?_all_yellow_led_turn_off 0070         __end_of_turn_signals_state_update 0265  
                    ?_check_welcome_light 0070                yellow_seg2_forward@pwm_idx 0074  
                                ?_is_test 0070                           ?_TMR2_StopTimer 0070  
                  yellow_seg6_backward@ii 0073                     _all_white_led_turn_on 0721  
                  ??_yellow_seg1_backward 0072                    ??_yellow_seg2_backward 0072  
                 _TMR2_HasOverflowOccured 066D            __end_of_all_white_led_turn_off 0727  
                       ??_TMR0_Initialize 0070                    ??_yellow_seg3_backward 0072  
                                _LATAbits 010C                                  _LATCbits 010E  
            __end_of_turn_on_turn_signals 0195                                 clear_ram0 06D1  
                                _LED_main 0195                    ??_yellow_seg4_backward 0072  
              ??_TMR0_SetInterruptHandler 0072                                  _PIR1bits 0011  
                           ??_TMR0_Reload 0070                    ??_yellow_seg5_backward 0072  
                                _TMR0_ISR 0624                                  _PSTR1CON 0296  
                       ??_PIN_MANAGER_IOC 0070                    ??_yellow_seg6_backward 0072  
                            ??_is_WELCOME 0070                    ??_yellow_seg7_backward 0072  
                   ??_check_welcome_light 0075                   __end_of_yellow_to_white 0299  
                           ?_check_POS_P2 0070                          _EPWM1_Initialize 0644  
                         debounce_IO@temp 0070                    yellow_seg7_backward@ii 0073  
                     _yellow_seg1_forward 0501                    yellow_to_white@pwm_idx 0074  
                     _yellow_seg2_forward 04A5                yellow_seg3_forward@pwm_idx 0074  
   __end_of_clear_no_call_warning_message 072A             _clear_no_call_warning_message 0729  
                     _yellow_seg3_forward 032C                       _yellow_seg4_forward 0449  
                       ??_TMR2_Initialize 0070                       _yellow_seg5_forward 02CA  
                     _yellow_seg6_forward 03ED                   __end_of_is_turn_signals 0707  
                      __end_of_is_WELCOME 06F6                       _yellow_seg7_forward 0299  
             yellow_seg2_backward@pwm_idx 0074                      white_fad_out@pwm_idx 0074  
                    ?_yellow_seg1_forward 0070                    _fWelcome_light_disable 002E  
                    ?_yellow_seg2_forward 0070                   ??_OSCILLATOR_Initialize 0070  
                    ?_yellow_seg3_forward 0070                      ?_yellow_seg4_forward 0070  
                     __end_of_TMR0_Reload 06FF                      ?_yellow_seg5_forward 0070  
                    ?_yellow_seg6_forward 0070                            ??_check_POS_P2 0070  
                ?_TMR2_LoadPeriodRegister 0070                    ?_all_white_led_turn_on 0070  
                    ?_yellow_seg7_forward 0070                                  _delay_ms 055A  
                                _delay_us 0602                            _tmr0_10ms_even 0634  
               ??_TMR2_HasOverflowOccured 0070                                  __ptext10 0718  
                                __ptext11 06C3                                  __ptext20 0644  
                                __ptext12 072A                                  __ptext21 0195  
                                __ptext13 06D7                                  __ptext30 070B  
                                __ptext22 0230                                  __ptext14 05EF  
                                __ptext31 0614                                  __ptext23 0105  
                                __ptext15 06FF                                  __ptext40 0449  
                                __ptext32 002E                                  __ptext24 01EC  
                                __ptext16 069B                                  __ptext41 0477  
                                __ptext33 0265                                  __ptext25 06EC  
                                __ptext17 0660                                  __ptext50 055A  
                                __ptext42 032C                                  __ptext34 0299  
                                __ptext26 0703                                  __ptext18 05A9  
                                __ptext51 0691                                  __ptext43 035D  
                                __ptext35 03BF                                  __ptext27 0707  
                                __ptext19 0679                                  __ptext60 06B3  
                                __ptext52 06A3                                  __ptext44 04A5  
                                __ptext36 03ED                                  __ptext28 06F1  
                                __ptext61 06CA                                  __ptext53 0652  
                                __ptext45 04D3                                  __ptext37 041B  
                                __ptext29 06F6                                  __ptext62 0721  
                                __ptext54 0685                                  __ptext46 0501  
                                __ptext38 02CA                                  __ptext63 0724  
                                __ptext55 071B                                  __ptext47 038E  
                                __ptext39 02FB                                  __ptext64 06BB  
                                __ptext56 071E                                  __ptext48 052F  
                                __ptext65 05D8                                  __ptext57 0575  
                                __ptext49 0602                                  __ptext58 06AB  
                                __ptext67 0624                                  __ptext59 058F  
                                __ptext68 0634                   ?_all_yellow_led_turn_on 0070  
                 TMR0_WriteTimer@timerVal 0070                             ??_PWM_all_off 0074  
                       ??_TMR0_WriteTimer 0070                                  _is_white 06EC  
                        ??_TMR0_ReadTimer 0070                         ??_check_test_mode 0070  
              yellow_seg4_forward@pwm_idx 0074                     ??_yellow_seg1_forward 0072  
                   ??_yellow_seg2_forward 0072                                  int$flags 007E  
                   ??_yellow_seg3_forward 0072                         ??_TMR2_StartTimer 0070  
      __end_of_INTERRUPT_InterruptManager 0013                _INTERRUPT_InterruptManager 0004  
                          debounce_IO@TRB 0028                     ??_yellow_seg4_forward 0072  
                   ??_yellow_seg5_forward 0072                               _fturn_state 002D  
                   ??_yellow_seg6_forward 0072                          ??_TMR2_ReadTimer 0070  
                        ?_yellow_to_white 0070                    __end_of_tmr0_10ms_even 0644  
                   ??_yellow_seg7_forward 0072                      _turn_on_turn_signals 0105  
                              _INTCONbits 000B            __end_of_all_yellow_led_turn_on 06BB  
                                intlevel1 0000                              ?_debounce_IO 0070  
                       ??_TMR2_WriteTimer 0070                              ?_all_led_off 0070  
                 ?_PIN_MANAGER_Initialize 0070            ?_clear_no_call_warning_message 0070  
                        ?_is_turn_signals 0070                       __end_of_PWM_all_off 06CA  
                             _TMR0_Reload 06FB                yellow_seg5_forward@pwm_idx 0074  
                      _turn_fall_edge_cnt 002A                          ??_TMR2_StopTimer 0070  
         __end_of_TMR2_LoadPeriodRegister 06E7                         ?_PWM_turn_signals 0070  
                              _OPTION_REG 0095                     ?_turn_on_turn_signals 0070  
                         ?_tmr0_10ms_even 0070                        ??_PWM_turn_signals 0074  
                         _TMR0_Initialize 0660                       _EPWM1_LoadDutyValue 05D8  
             yellow_seg3_backward@pwm_idx 0074            __end_of_PIN_MANAGER_Initialize 05C1  
                         _PIN_MANAGER_IOC 072A                      __end_of_check_POS_P2 0691  
                __end_of_EPWM1_Initialize 0652                      ?_EPWM1_LoadDutyValue 0070  
